	.file	"Xoodoo-plain.c"
# GNU C17 (crosstool-NG esp-2020r3-49-gd5524c1) version 8.4.0 (xtensa-lx106-elf)
#	compiled by GNU C version 4.9.2, GMP version 6.1.2, MPFR version 4.0.1, MPC version 1.1.0, isl version isl-0.19-GMP

# GGC heuristics: --param ggc-min-expand=100 --param ggc-min-heapsize=131072
# options passed:  -I /storage/projects/XKCP/lib/low/Xoodoo/
# -I /storage/projects/XKCP/lib/low/Xoodoo/plain/
# -I /storage/projects/XKCP/lib/common/
# -iprefix /home/san/esp/xtensa-lx106-elf/bin/../lib/gcc/xtensa-lx106-elf/8.4.0/
# -D PLATFORM_BYTE_ORDER=1 -D IS_LITTLE_ENDIAN=1
# /storage/projects/XKCP/lib/low/Xoodoo/plain/Xoodoo-plain.c
# -auxbase-strip /storage/projects/embedded-xoodyak/Xoodoo-plain.s -g -O3
# -fverbose-asm
# options enabled:  -faggressive-loop-optimizations -falign-functions
# -falign-jumps -falign-labels -falign-loops -fauto-inc-dec
# -fbranch-count-reg -fcaller-saves -fchkp-check-incomplete-type
# -fchkp-check-read -fchkp-check-write -fchkp-instrument-calls
# -fchkp-narrow-bounds -fchkp-optimize -fchkp-store-bounds
# -fchkp-use-static-bounds -fchkp-use-static-const-bounds
# -fchkp-use-wrappers -fcode-hoisting -fcombine-stack-adjustments -fcommon
# -fcompare-elim -fcprop-registers -fcrossjumping -fcse-follow-jumps
# -fdefer-pop -fdelete-null-pointer-checks -fdevirtualize
# -fdevirtualize-speculatively -fearly-inlining
# -feliminate-unused-debug-types -fexpensive-optimizations
# -fforward-propagate -ffp-int-builtin-inexact -ffunction-cse -fgcse
# -fgcse-after-reload -fgcse-lm -fgnu-runtime -fgnu-unique
# -fguess-branch-probability -fhoist-adjacent-loads -fident -fif-conversion
# -fif-conversion2 -findirect-inlining -finline -finline-atomics
# -finline-functions -finline-functions-called-once
# -finline-small-functions -fipa-bit-cp -fipa-cp -fipa-cp-clone -fipa-icf
# -fipa-icf-functions -fipa-icf-variables -fipa-profile -fipa-pure-const
# -fipa-ra -fipa-reference -fipa-sra -fipa-vrp -fira-hoist-pressure
# -fira-share-save-slots -fira-share-spill-slots
# -fisolate-erroneous-paths-dereference -fivopts -fkeep-static-consts
# -fleading-underscore -flifetime-dse -floop-interchange
# -floop-unroll-and-jam -flra-remat -flto-odr-type-merging -fmath-errno
# -fmerge-constants -fmerge-debug-strings -fmove-loop-invariants
# -fomit-frame-pointer -foptimize-sibling-calls -foptimize-strlen
# -fpartial-inlining -fpeel-loops -fpeephole -fpeephole2 -fplt
# -fpredictive-commoning -fprefetch-loop-arrays -freg-struct-return
# -freorder-functions -frerun-cse-after-loop
# -fsched-critical-path-heuristic -fsched-dep-count-heuristic
# -fsched-group-heuristic -fsched-interblock -fsched-last-insn-heuristic
# -fsched-rank-heuristic -fsched-spec -fsched-spec-insn-heuristic
# -fsched-stalled-insns-dep -fschedule-fusion -fschedule-insns
# -fschedule-insns2 -fsemantic-interposition -fshow-column -fshrink-wrap
# -fshrink-wrap-separate -fsigned-zeros -fsplit-ivs-in-unroller
# -fsplit-loops -fsplit-paths -fsplit-wide-types -fssa-backprop
# -fssa-phiopt -fstdarg-opt -fstore-merging -fstrict-aliasing
# -fstrict-volatile-bitfields -fsync-libcalls -fthread-jumps
# -ftoplevel-reorder -ftrapping-math -ftree-bit-ccp -ftree-builtin-call-dce
# -ftree-ccp -ftree-ch -ftree-coalesce-vars -ftree-copy-prop -ftree-cselim
# -ftree-dce -ftree-dominator-opts -ftree-dse -ftree-forwprop -ftree-fre
# -ftree-loop-distribute-patterns -ftree-loop-distribution
# -ftree-loop-if-convert -ftree-loop-im -ftree-loop-ivcanon
# -ftree-loop-optimize -ftree-loop-vectorize -ftree-parallelize-loops=
# -ftree-partial-pre -ftree-phiprop -ftree-pre -ftree-pta -ftree-reassoc
# -ftree-scev-cprop -ftree-sink -ftree-slp-vectorize -ftree-slsr -ftree-sra
# -ftree-switch-conversion -ftree-tail-merge -ftree-ter -ftree-vrp
# -funit-at-a-time -funswitch-loops -fvar-tracking
# -fvar-tracking-assignments -fverbose-asm -fzero-initialized-in-bss
# -mserialize-volatile

	.text
.Ltext0:
	.literal_position
	.align	4
	.global	Xoodoo_plain_Initialize
	.type	Xoodoo_plain_Initialize, @function
Xoodoo_plain_Initialize:
.LVL0:
.LFB3:
	.file 1 "/storage/projects/XKCP/lib/low/Xoodoo/plain/Xoodoo-plain.c"
	.loc 1 54 1 view -0
	.loc 1 55 5 view .LVU1
# /storage/projects/XKCP/lib/low/Xoodoo/plain/Xoodoo-plain.c:54: {
	.loc 1 54 1 is_stmt 0 view .LVU2
	addi	sp, sp, -16	#,,
.LCFI0:
# /storage/projects/XKCP/lib/low/Xoodoo/plain/Xoodoo-plain.c:55:     memset(state, 0, sizeof(Xoodoo_plain32_state));
	.loc 1 55 5 view .LVU3
	movi.n	a4, 0x30	#,
	movi.n	a3, 0	#,
# /storage/projects/XKCP/lib/low/Xoodoo/plain/Xoodoo-plain.c:54: {
	.loc 1 54 1 view .LVU4
	s32i.n	a0, sp, 12	#,
.LCFI1:
# /storage/projects/XKCP/lib/low/Xoodoo/plain/Xoodoo-plain.c:55:     memset(state, 0, sizeof(Xoodoo_plain32_state));
	.loc 1 55 5 view .LVU5
	call0	memset		#
.LVL1:
# /storage/projects/XKCP/lib/low/Xoodoo/plain/Xoodoo-plain.c:56: }
	.loc 1 56 1 view .LVU6
	l32i.n	a0, sp, 12	#,
	addi	sp, sp, 16	#,,
	ret.n	
.LFE3:
	.size	Xoodoo_plain_Initialize, .-Xoodoo_plain_Initialize
	.literal_position
	.align	4
	.global	Xoodoo_plain_AddBytes
	.type	Xoodoo_plain_AddBytes, @function
Xoodoo_plain_AddBytes:
.LVL2:
.LFB4:
	.loc 1 61 1 is_stmt 1 view -0
	.loc 1 63 5 view .LVU8
# /storage/projects/XKCP/lib/low/Xoodoo/plain/Xoodoo-plain.c:61: {
	.loc 1 61 1 is_stmt 0 view .LVU9
	addi	sp, sp, -48	#,,
.LCFI2:
	s32i.n	a12, sp, 40	#,
	s32i.n	a0, sp, 44	#,
	s32i.n	a13, sp, 36	#,
	s32i.n	a14, sp, 32	#,
.LCFI3:
# /storage/projects/XKCP/lib/low/Xoodoo/plain/Xoodoo-plain.c:63:     if (length == (3*4*4)) {
	.loc 1 63 8 view .LVU10
	movi.n	a6, 0x30	# tmp109,
# /storage/projects/XKCP/lib/low/Xoodoo/plain/Xoodoo-plain.c:61: {
	.loc 1 61 1 view .LVU11
	mov.n	a12, a3	# argdata, argdata
# /storage/projects/XKCP/lib/low/Xoodoo/plain/Xoodoo-plain.c:63:     if (length == (3*4*4)) {
	.loc 1 63 8 view .LVU12
	bne	a5, a6, .L4	# length, tmp109,
.LBB2:
	.loc 1 64 9 is_stmt 1 view .LVU13
.LVL3:
	.loc 1 65 9 view .LVU14
	.loc 1 66 9 view .LVU15
# /storage/projects/XKCP/lib/low/Xoodoo/plain/Xoodoo-plain.c:66:         state[0] ^= data[0];
	.loc 1 66 18 is_stmt 0 view .LVU16
	l32i.n	a5, a3, 0	# MEM[(uint32_t *)argdata_62(D)], MEM[(uint32_t *)argdata_62(D)]
.LVL4:
	.loc 1 66 18 view .LVU17
	l32i.n	a3, a2, 0	# MEM[(uint32_t *)argState_61(D)], MEM[(uint32_t *)argState_61(D)]
.LVL5:
# /storage/projects/XKCP/lib/low/Xoodoo/plain/Xoodoo-plain.c:67:         state[1] ^= data[1];
	.loc 1 67 18 view .LVU18
	l32i.n	a4, a2, 4	# MEM[(uint32_t *)argState_61(D) + 4B], MEM[(uint32_t *)argState_61(D) + 4B]
.LVL6:
# /storage/projects/XKCP/lib/low/Xoodoo/plain/Xoodoo-plain.c:66:         state[0] ^= data[0];
	.loc 1 66 18 view .LVU19
	xor	a3, a3, a5	# tmp110, MEM[(uint32_t *)argState_61(D)], MEM[(uint32_t *)argdata_62(D)]
	s32i.n	a3, a2, 0	# MEM[(uint32_t *)argState_61(D)], tmp110
	.loc 1 67 9 is_stmt 1 view .LVU20
# /storage/projects/XKCP/lib/low/Xoodoo/plain/Xoodoo-plain.c:67:         state[1] ^= data[1];
	.loc 1 67 18 is_stmt 0 view .LVU21
	l32i.n	a5, a12, 4	# MEM[(uint32_t *)argdata_62(D) + 4B], MEM[(uint32_t *)argdata_62(D) + 4B]
# /storage/projects/XKCP/lib/low/Xoodoo/plain/Xoodoo-plain.c:68:         state[2] ^= data[2];
	.loc 1 68 18 view .LVU22
	l32i.n	a3, a2, 8	# MEM[(uint32_t *)argState_61(D) + 8B], MEM[(uint32_t *)argState_61(D) + 8B]
# /storage/projects/XKCP/lib/low/Xoodoo/plain/Xoodoo-plain.c:67:         state[1] ^= data[1];
	.loc 1 67 18 view .LVU23
	xor	a4, a4, a5	# tmp113, MEM[(uint32_t *)argState_61(D) + 4B], MEM[(uint32_t *)argdata_62(D) + 4B]
	s32i.n	a4, a2, 4	# MEM[(uint32_t *)argState_61(D) + 4B], tmp113
	.loc 1 68 9 is_stmt 1 view .LVU24
# /storage/projects/XKCP/lib/low/Xoodoo/plain/Xoodoo-plain.c:68:         state[2] ^= data[2];
	.loc 1 68 18 is_stmt 0 view .LVU25
	l32i.n	a5, a12, 8	# MEM[(uint32_t *)argdata_62(D) + 8B], MEM[(uint32_t *)argdata_62(D) + 8B]
# /storage/projects/XKCP/lib/low/Xoodoo/plain/Xoodoo-plain.c:69:         state[3] ^= data[3];
	.loc 1 69 18 view .LVU26
	l32i.n	a4, a2, 12	# MEM[(uint32_t *)argState_61(D) + 12B], MEM[(uint32_t *)argState_61(D) + 12B]
# /storage/projects/XKCP/lib/low/Xoodoo/plain/Xoodoo-plain.c:68:         state[2] ^= data[2];
	.loc 1 68 18 view .LVU27
	xor	a3, a3, a5	# tmp116, MEM[(uint32_t *)argState_61(D) + 8B], MEM[(uint32_t *)argdata_62(D) + 8B]
	s32i.n	a3, a2, 8	# MEM[(uint32_t *)argState_61(D) + 8B], tmp116
	.loc 1 69 9 is_stmt 1 view .LVU28
# /storage/projects/XKCP/lib/low/Xoodoo/plain/Xoodoo-plain.c:69:         state[3] ^= data[3];
	.loc 1 69 18 is_stmt 0 view .LVU29
	l32i.n	a5, a12, 12	# MEM[(uint32_t *)argdata_62(D) + 12B], MEM[(uint32_t *)argdata_62(D) + 12B]
# /storage/projects/XKCP/lib/low/Xoodoo/plain/Xoodoo-plain.c:70:         state[4] ^= data[4];
	.loc 1 70 18 view .LVU30
	l32i.n	a3, a2, 16	# MEM[(uint32_t *)argState_61(D) + 16B], MEM[(uint32_t *)argState_61(D) + 16B]
# /storage/projects/XKCP/lib/low/Xoodoo/plain/Xoodoo-plain.c:69:         state[3] ^= data[3];
	.loc 1 69 18 view .LVU31
	xor	a4, a4, a5	# tmp119, MEM[(uint32_t *)argState_61(D) + 12B], MEM[(uint32_t *)argdata_62(D) + 12B]
	s32i.n	a4, a2, 12	# MEM[(uint32_t *)argState_61(D) + 12B], tmp119
	.loc 1 70 9 is_stmt 1 view .LVU32
# /storage/projects/XKCP/lib/low/Xoodoo/plain/Xoodoo-plain.c:70:         state[4] ^= data[4];
	.loc 1 70 18 is_stmt 0 view .LVU33
	l32i.n	a5, a12, 16	# MEM[(uint32_t *)argdata_62(D) + 16B], MEM[(uint32_t *)argdata_62(D) + 16B]
# /storage/projects/XKCP/lib/low/Xoodoo/plain/Xoodoo-plain.c:71:         state[5] ^= data[5];
	.loc 1 71 18 view .LVU34
	l32i.n	a4, a2, 20	# MEM[(uint32_t *)argState_61(D) + 20B], MEM[(uint32_t *)argState_61(D) + 20B]
# /storage/projects/XKCP/lib/low/Xoodoo/plain/Xoodoo-plain.c:70:         state[4] ^= data[4];
	.loc 1 70 18 view .LVU35
	xor	a3, a3, a5	# tmp122, MEM[(uint32_t *)argState_61(D) + 16B], MEM[(uint32_t *)argdata_62(D) + 16B]
	s32i.n	a3, a2, 16	# MEM[(uint32_t *)argState_61(D) + 16B], tmp122
	.loc 1 71 9 is_stmt 1 view .LVU36
# /storage/projects/XKCP/lib/low/Xoodoo/plain/Xoodoo-plain.c:71:         state[5] ^= data[5];
	.loc 1 71 18 is_stmt 0 view .LVU37
	l32i.n	a5, a12, 20	# MEM[(uint32_t *)argdata_62(D) + 20B], MEM[(uint32_t *)argdata_62(D) + 20B]
# /storage/projects/XKCP/lib/low/Xoodoo/plain/Xoodoo-plain.c:72:         state[6] ^= data[6];
	.loc 1 72 18 view .LVU38
	l32i.n	a3, a2, 24	# MEM[(uint32_t *)argState_61(D) + 24B], MEM[(uint32_t *)argState_61(D) + 24B]
# /storage/projects/XKCP/lib/low/Xoodoo/plain/Xoodoo-plain.c:71:         state[5] ^= data[5];
	.loc 1 71 18 view .LVU39
	xor	a4, a4, a5	# tmp125, MEM[(uint32_t *)argState_61(D) + 20B], MEM[(uint32_t *)argdata_62(D) + 20B]
	s32i.n	a4, a2, 20	# MEM[(uint32_t *)argState_61(D) + 20B], tmp125
	.loc 1 72 9 is_stmt 1 view .LVU40
# /storage/projects/XKCP/lib/low/Xoodoo/plain/Xoodoo-plain.c:72:         state[6] ^= data[6];
	.loc 1 72 18 is_stmt 0 view .LVU41
	l32i.n	a5, a12, 24	# MEM[(uint32_t *)argdata_62(D) + 24B], MEM[(uint32_t *)argdata_62(D) + 24B]
# /storage/projects/XKCP/lib/low/Xoodoo/plain/Xoodoo-plain.c:73:         state[7] ^= data[7];
	.loc 1 73 18 view .LVU42
	l32i.n	a4, a2, 28	# MEM[(uint32_t *)argState_61(D) + 28B], MEM[(uint32_t *)argState_61(D) + 28B]
# /storage/projects/XKCP/lib/low/Xoodoo/plain/Xoodoo-plain.c:72:         state[6] ^= data[6];
	.loc 1 72 18 view .LVU43
	xor	a3, a3, a5	# tmp128, MEM[(uint32_t *)argState_61(D) + 24B], MEM[(uint32_t *)argdata_62(D) + 24B]
	s32i.n	a3, a2, 24	# MEM[(uint32_t *)argState_61(D) + 24B], tmp128
	.loc 1 73 9 is_stmt 1 view .LVU44
# /storage/projects/XKCP/lib/low/Xoodoo/plain/Xoodoo-plain.c:73:         state[7] ^= data[7];
	.loc 1 73 18 is_stmt 0 view .LVU45
	l32i.n	a5, a12, 28	# MEM[(uint32_t *)argdata_62(D) + 28B], MEM[(uint32_t *)argdata_62(D) + 28B]
# /storage/projects/XKCP/lib/low/Xoodoo/plain/Xoodoo-plain.c:74:         state[8] ^= data[8];
	.loc 1 74 18 view .LVU46
	l32i.n	a3, a2, 32	# MEM[(uint32_t *)argState_61(D) + 32B], MEM[(uint32_t *)argState_61(D) + 32B]
# /storage/projects/XKCP/lib/low/Xoodoo/plain/Xoodoo-plain.c:73:         state[7] ^= data[7];
	.loc 1 73 18 view .LVU47
	xor	a4, a4, a5	# tmp131, MEM[(uint32_t *)argState_61(D) + 28B], MEM[(uint32_t *)argdata_62(D) + 28B]
	s32i.n	a4, a2, 28	# MEM[(uint32_t *)argState_61(D) + 28B], tmp131
	.loc 1 74 9 is_stmt 1 view .LVU48
# /storage/projects/XKCP/lib/low/Xoodoo/plain/Xoodoo-plain.c:74:         state[8] ^= data[8];
	.loc 1 74 18 is_stmt 0 view .LVU49
	l32i.n	a5, a12, 32	# MEM[(uint32_t *)argdata_62(D) + 32B], MEM[(uint32_t *)argdata_62(D) + 32B]
# /storage/projects/XKCP/lib/low/Xoodoo/plain/Xoodoo-plain.c:75:         state[9] ^= data[9];
	.loc 1 75 18 view .LVU50
	l32i.n	a4, a2, 36	# MEM[(uint32_t *)argState_61(D) + 36B], MEM[(uint32_t *)argState_61(D) + 36B]
# /storage/projects/XKCP/lib/low/Xoodoo/plain/Xoodoo-plain.c:74:         state[8] ^= data[8];
	.loc 1 74 18 view .LVU51
	xor	a3, a3, a5	# tmp134, MEM[(uint32_t *)argState_61(D) + 32B], MEM[(uint32_t *)argdata_62(D) + 32B]
	s32i.n	a3, a2, 32	# MEM[(uint32_t *)argState_61(D) + 32B], tmp134
	.loc 1 75 9 is_stmt 1 view .LVU52
# /storage/projects/XKCP/lib/low/Xoodoo/plain/Xoodoo-plain.c:75:         state[9] ^= data[9];
	.loc 1 75 18 is_stmt 0 view .LVU53
	l32i.n	a5, a12, 36	# MEM[(uint32_t *)argdata_62(D) + 36B], MEM[(uint32_t *)argdata_62(D) + 36B]
# /storage/projects/XKCP/lib/low/Xoodoo/plain/Xoodoo-plain.c:76:         state[10] ^= data[10];
	.loc 1 76 19 view .LVU54
	l32i.n	a3, a2, 40	# MEM[(uint32_t *)argState_61(D) + 40B], MEM[(uint32_t *)argState_61(D) + 40B]
# /storage/projects/XKCP/lib/low/Xoodoo/plain/Xoodoo-plain.c:75:         state[9] ^= data[9];
	.loc 1 75 18 view .LVU55
	xor	a4, a4, a5	# tmp137, MEM[(uint32_t *)argState_61(D) + 36B], MEM[(uint32_t *)argdata_62(D) + 36B]
	s32i.n	a4, a2, 36	# MEM[(uint32_t *)argState_61(D) + 36B], tmp137
	.loc 1 76 9 is_stmt 1 view .LVU56
# /storage/projects/XKCP/lib/low/Xoodoo/plain/Xoodoo-plain.c:76:         state[10] ^= data[10];
	.loc 1 76 19 is_stmt 0 view .LVU57
	l32i.n	a4, a12, 40	# MEM[(uint32_t *)argdata_62(D) + 40B], MEM[(uint32_t *)argdata_62(D) + 40B]
	xor	a3, a3, a4	# tmp140, MEM[(uint32_t *)argState_61(D) + 40B], MEM[(uint32_t *)argdata_62(D) + 40B]
	s32i.n	a3, a2, 40	# MEM[(uint32_t *)argState_61(D) + 40B], tmp140
	.loc 1 77 9 is_stmt 1 view .LVU58
# /storage/projects/XKCP/lib/low/Xoodoo/plain/Xoodoo-plain.c:77:         state[11] ^= data[11];
	.loc 1 77 19 is_stmt 0 view .LVU59
	l32i.n	a3, a2, 44	# MEM[(uint32_t *)argState_61(D) + 44B], MEM[(uint32_t *)argState_61(D) + 44B]
	l32i.n	a4, a12, 44	# MEM[(uint32_t *)argdata_62(D) + 44B], MEM[(uint32_t *)argdata_62(D) + 44B]
	xor	a3, a3, a4	# tmp143, MEM[(uint32_t *)argState_61(D) + 44B], MEM[(uint32_t *)argdata_62(D) + 44B]
	s32i.n	a3, a2, 44	# MEM[(uint32_t *)argState_61(D) + 44B], tmp143
.LBE2:
	j	.L3		#
.LVL7:
.L4:
.LBB3:
	.loc 1 80 9 is_stmt 1 view .LVU60
	.loc 1 81 9 view .LVU61
	.loc 1 82 9 view .LVU62
# /storage/projects/XKCP/lib/low/Xoodoo/plain/Xoodoo-plain.c:86:         state += lanePosition;
	.loc 1 86 15 is_stmt 0 view .LVU63
	movi.n	a13, -4	# tmp146,
	and	a13, a4, a13	# tmp147, offset, tmp146
# /storage/projects/XKCP/lib/low/Xoodoo/plain/Xoodoo-plain.c:82:         unsigned int offsetInLane = offset%4;
	.loc 1 82 22 view .LVU64
	extui	a6, a4, 0, 2	# offsetInLane, offset,
.LVL8:
	.loc 1 83 9 is_stmt 1 view .LVU65
	.loc 1 84 9 view .LVU66
	.loc 1 86 9 view .LVU67
# /storage/projects/XKCP/lib/low/Xoodoo/plain/Xoodoo-plain.c:86:         state += lanePosition;
	.loc 1 86 15 is_stmt 0 view .LVU68
	add.n	a13, a2, a13	# state, argState, tmp147
.LVL9:
	.loc 1 87 9 is_stmt 1 view .LVU69
# /storage/projects/XKCP/lib/low/Xoodoo/plain/Xoodoo-plain.c:87:         if ((sizeLeft > 0) && (offsetInLane != 0)) {
	.loc 1 87 12 is_stmt 0 view .LVU70
	beqz.n	a5, .L6	# length,
	beqz.n	a6, .L6	# offsetInLane,
.LBB4:
	.loc 1 88 13 is_stmt 1 view .LVU71
# /storage/projects/XKCP/lib/low/Xoodoo/plain/Xoodoo-plain.c:88:             unsigned int bytesInLane = 4 - offsetInLane;
	.loc 1 88 26 is_stmt 0 view .LVU72
	movi.n	a2, 4	# tmp158,
.LVL10:
# /storage/projects/XKCP/lib/low/Xoodoo/plain/Xoodoo-plain.c:89:             uint32_t lane = 0;
	.loc 1 89 22 view .LVU73
	movi.n	a3, 0	# tmp151,
.LVL11:
# /storage/projects/XKCP/lib/low/Xoodoo/plain/Xoodoo-plain.c:88:             unsigned int bytesInLane = 4 - offsetInLane;
	.loc 1 88 26 view .LVU74
	sub	a2, a2, a6	# bytesInLane, tmp158, offsetInLane
.LVL12:
	.loc 1 89 13 is_stmt 1 view .LVU75
# /storage/projects/XKCP/lib/low/Xoodoo/plain/Xoodoo-plain.c:89:             uint32_t lane = 0;
	.loc 1 89 22 is_stmt 0 view .LVU76
	s32i.n	a3, sp, 0	# lane, tmp151
	.loc 1 90 13 is_stmt 1 view .LVU77
	mov.n	a14, a5	# bytesInLane, length
	bgeu	a2, a5, .L7	# bytesInLane, length,
	.loc 1 90 13 is_stmt 0 view .LVU78
	mov.n	a14, a2	# bytesInLane, bytesInLane
.L7:
.LVL13:
	.loc 1 92 13 is_stmt 1 view .LVU79
	mov.n	a3, a12	#, argdata
	mov.n	a4, a14	#, bytesInLane
.LVL14:
	.loc 1 92 13 is_stmt 0 view .LVU80
	add.n	a2, sp, a6	#,, offsetInLane
	s32i.n	a5, sp, 16	#,
	call0	memcpy		#
.LVL15:
	.loc 1 93 13 is_stmt 1 view .LVU81
# /storage/projects/XKCP/lib/low/Xoodoo/plain/Xoodoo-plain.c:93:             *state++ ^= lane;
	.loc 1 93 22 is_stmt 0 view .LVU82
	l32i.n	a2, a13, 0	# *state_79, *state_79
	l32i.n	a3, sp, 0	# lane, lane
# /storage/projects/XKCP/lib/low/Xoodoo/plain/Xoodoo-plain.c:94:             sizeLeft -= bytesInLane;
	.loc 1 94 22 view .LVU83
	l32i.n	a5, sp, 16	#,
# /storage/projects/XKCP/lib/low/Xoodoo/plain/Xoodoo-plain.c:93:             *state++ ^= lane;
	.loc 1 93 22 view .LVU84
	xor	a2, a2, a3	# tmp165, *state_79, lane
	s32i.n	a2, a13, 0	# *state_79, tmp165
	.loc 1 94 13 is_stmt 1 view .LVU85
# /storage/projects/XKCP/lib/low/Xoodoo/plain/Xoodoo-plain.c:94:             sizeLeft -= bytesInLane;
	.loc 1 94 22 is_stmt 0 view .LVU86
	sub	a5, a5, a14	# length, length, bytesInLane
.LVL16:
	.loc 1 95 13 is_stmt 1 view .LVU87
# /storage/projects/XKCP/lib/low/Xoodoo/plain/Xoodoo-plain.c:95:             curData += bytesInLane;
	.loc 1 95 21 is_stmt 0 view .LVU88
	add.n	a12, a12, a14	# argdata, argdata, bytesInLane
.LVL17:
# /storage/projects/XKCP/lib/low/Xoodoo/plain/Xoodoo-plain.c:93:             *state++ ^= lane;
	.loc 1 93 19 view .LVU89
	addi.n	a13, a13, 4	# state, state,
.LVL18:
	.loc 1 93 19 view .LVU90
	j	.L6		#
.LVL19:
.L10:
	.loc 1 93 19 view .LVU91
	addi	a2, a5, -4	# tmp168, length,
	srli	a2, a2, 2	# tmp169, tmp168,
	addi.n	a2, a2, 1	# tmp170, tmp169,
	slli	a2, a2, 2	# _120, tmp170,
	mov.n	a4, a13	# ivtmp$19, state
	add.n	a3, a12, a2	# curData, argdata, _120
.LVL20:
.L8:
	.loc 1 93 19 view .LVU92
.LBE4:
	.loc 1 99 13 is_stmt 1 view .LVU93
# /storage/projects/XKCP/lib/low/Xoodoo/plain/Xoodoo-plain.c:99:             *state++ ^= READ32_UNALIGNED( curData );
	.loc 1 99 22 is_stmt 0 view .LVU94
	l32i.n	a6, a4, 0	# MEM[base: _111, offset: 0B], MEM[base: _111, offset: 0B]
	l32i.n	a7, a12, 0	# MEM[base: curData_104, offset: 0B], MEM[base: curData_104, offset: 0B]
# /storage/projects/XKCP/lib/low/Xoodoo/plain/Xoodoo-plain.c:101:             curData += 4;
	.loc 1 101 21 view .LVU95
	addi.n	a12, a12, 4	# argdata, argdata,
.LVL21:
# /storage/projects/XKCP/lib/low/Xoodoo/plain/Xoodoo-plain.c:99:             *state++ ^= READ32_UNALIGNED( curData );
	.loc 1 99 22 view .LVU96
	xor	a6, a6, a7	# tmp171, MEM[base: _111, offset: 0B], MEM[base: curData_104, offset: 0B]
	s32i.n	a6, a4, 0	# MEM[base: _111, offset: 0B], tmp171
	.loc 1 100 13 is_stmt 1 view .LVU97
.LVL22:
	.loc 1 101 13 view .LVU98
	.loc 1 98 14 view .LVU99
	addi.n	a4, a4, 4	# ivtmp$19, ivtmp$19,
.LVL23:
	.loc 1 98 14 is_stmt 0 view .LVU100
	bne	a12, a3, .L8	# argdata, curData,
	add.n	a13, a13, a2	# state, state, _120
.LVL24:
	.loc 1 98 14 view .LVU101
	extui	a5, a5, 0, 2	# length, length,
	j	.L9		#
.LVL25:
.L6:
	.loc 1 98 14 is_stmt 1 view .LVU102
	bgeui	a5, 4, .L10	# length,,
	.loc 1 98 14 is_stmt 0 view .LVU103
	mov.n	a3, a12	# curData, argdata
.LVL26:
.L9:
	.loc 1 104 9 is_stmt 1 view .LVU104
# /storage/projects/XKCP/lib/low/Xoodoo/plain/Xoodoo-plain.c:104:         if (sizeLeft > 0) {
	.loc 1 104 12 is_stmt 0 view .LVU105
	beqz.n	a5, .L3	# length,
.LBB5:
	.loc 1 105 13 is_stmt 1 view .LVU106
# /storage/projects/XKCP/lib/low/Xoodoo/plain/Xoodoo-plain.c:106:             memcpy(&lane, curData, sizeLeft);
	.loc 1 106 13 is_stmt 0 view .LVU107
	mov.n	a4, a5	#, length
	mov.n	a2, sp	#,
# /storage/projects/XKCP/lib/low/Xoodoo/plain/Xoodoo-plain.c:105:             uint32_t lane = 0;
	.loc 1 105 22 view .LVU108
	movi.n	a5, 0	# tmp174,
	s32i.n	a5, sp, 0	# lane, tmp174
	.loc 1 106 13 is_stmt 1 view .LVU109
	call0	memcpy		#
.LVL27:
	.loc 1 107 13 view .LVU110
# /storage/projects/XKCP/lib/low/Xoodoo/plain/Xoodoo-plain.c:107:             *state ^= lane;
	.loc 1 107 20 is_stmt 0 view .LVU111
	l32i.n	a2, a13, 0	# *state_114, *state_114
	l32i.n	a3, sp, 0	# lane, lane
	xor	a2, a2, a3	# tmp179, *state_114, lane
	s32i.n	a2, a13, 0	# *state_114, tmp179
.LVL28:
.L3:
	.loc 1 107 20 view .LVU112
.LBE5:
.LBE3:
# /storage/projects/XKCP/lib/low/Xoodoo/plain/Xoodoo-plain.c:113: }
	.loc 1 113 1 view .LVU113
	l32i.n	a0, sp, 44	#,
	l32i.n	a12, sp, 40	#,
	l32i.n	a13, sp, 36	#,
	l32i.n	a14, sp, 32	#,
	addi	sp, sp, 48	#,,
	ret.n	
.LFE4:
	.size	Xoodoo_plain_AddBytes, .-Xoodoo_plain_AddBytes
	.literal_position
	.align	4
	.global	Xoodoo_plain_OverwriteBytes
	.type	Xoodoo_plain_OverwriteBytes, @function
Xoodoo_plain_OverwriteBytes:
.LVL29:
.LFB5:
	.loc 1 118 1 is_stmt 1 view -0
	.loc 1 120 5 view .LVU115
# /storage/projects/XKCP/lib/low/Xoodoo/plain/Xoodoo-plain.c:118: {
	.loc 1 118 1 is_stmt 0 view .LVU116
	addi	sp, sp, -16	#,,
.LCFI4:
	s32i.n	a0, sp, 12	#,
.LCFI5:
# /storage/projects/XKCP/lib/low/Xoodoo/plain/Xoodoo-plain.c:120:     if (length == (3*4*4)) {
	.loc 1 120 8 view .LVU117
	movi.n	a6, 0x30	# tmp59,
# /storage/projects/XKCP/lib/low/Xoodoo/plain/Xoodoo-plain.c:118: {
	.loc 1 118 1 view .LVU118
	mov.n	a7, a4	# offset, offset
# /storage/projects/XKCP/lib/low/Xoodoo/plain/Xoodoo-plain.c:120:     if (length == (3*4*4)) {
	.loc 1 120 8 view .LVU119
	bne	a5, a6, .L22	# length, tmp59,
.LBB6:
	.loc 1 121 9 is_stmt 1 view .LVU120
.LVL30:
	.loc 1 122 9 view .LVU121
	.loc 1 123 9 view .LVU122
# /storage/projects/XKCP/lib/low/Xoodoo/plain/Xoodoo-plain.c:123:         state[0] = data[0];
	.loc 1 123 24 is_stmt 0 view .LVU123
	l32i.n	a4, a3, 0	# MEM[(uint32_t *)argdata_17(D)], _1
.LVL31:
# /storage/projects/XKCP/lib/low/Xoodoo/plain/Xoodoo-plain.c:123:         state[0] = data[0];
	.loc 1 123 18 view .LVU124
	s32i.n	a4, a2, 0	# MEM[(uint32_t *)argstate_16(D)], _1
	.loc 1 124 9 is_stmt 1 view .LVU125
# /storage/projects/XKCP/lib/low/Xoodoo/plain/Xoodoo-plain.c:124:         state[1] = data[1];
	.loc 1 124 18 is_stmt 0 view .LVU126
	l32i.n	a4, a3, 4	# MEM[(uint32_t *)argdata_17(D) + 4B], _2
	s32i.n	a4, a2, 4	# MEM[(uint32_t *)argstate_16(D) + 4B], _2
	.loc 1 125 9 is_stmt 1 view .LVU127
# /storage/projects/XKCP/lib/low/Xoodoo/plain/Xoodoo-plain.c:125:         state[2] = data[2];
	.loc 1 125 18 is_stmt 0 view .LVU128
	l32i.n	a4, a3, 8	# MEM[(uint32_t *)argdata_17(D) + 8B], _3
	s32i.n	a4, a2, 8	# MEM[(uint32_t *)argstate_16(D) + 8B], _3
	.loc 1 126 9 is_stmt 1 view .LVU129
# /storage/projects/XKCP/lib/low/Xoodoo/plain/Xoodoo-plain.c:126:         state[3] = data[3];
	.loc 1 126 18 is_stmt 0 view .LVU130
	l32i.n	a4, a3, 12	# MEM[(uint32_t *)argdata_17(D) + 12B], _4
	s32i.n	a4, a2, 12	# MEM[(uint32_t *)argstate_16(D) + 12B], _4
	.loc 1 127 9 is_stmt 1 view .LVU131
# /storage/projects/XKCP/lib/low/Xoodoo/plain/Xoodoo-plain.c:127:         state[4] = data[4];
	.loc 1 127 18 is_stmt 0 view .LVU132
	l32i.n	a4, a3, 16	# MEM[(uint32_t *)argdata_17(D) + 16B], _5
	s32i.n	a4, a2, 16	# MEM[(uint32_t *)argstate_16(D) + 16B], _5
	.loc 1 128 9 is_stmt 1 view .LVU133
# /storage/projects/XKCP/lib/low/Xoodoo/plain/Xoodoo-plain.c:128:         state[5] = data[5];
	.loc 1 128 18 is_stmt 0 view .LVU134
	l32i.n	a4, a3, 20	# MEM[(uint32_t *)argdata_17(D) + 20B], _6
	s32i.n	a4, a2, 20	# MEM[(uint32_t *)argstate_16(D) + 20B], _6
	.loc 1 129 9 is_stmt 1 view .LVU135
# /storage/projects/XKCP/lib/low/Xoodoo/plain/Xoodoo-plain.c:129:         state[6] = data[6];
	.loc 1 129 18 is_stmt 0 view .LVU136
	l32i.n	a4, a3, 24	# MEM[(uint32_t *)argdata_17(D) + 24B], _7
	s32i.n	a4, a2, 24	# MEM[(uint32_t *)argstate_16(D) + 24B], _7
	.loc 1 130 9 is_stmt 1 view .LVU137
# /storage/projects/XKCP/lib/low/Xoodoo/plain/Xoodoo-plain.c:130:         state[7] = data[7];
	.loc 1 130 18 is_stmt 0 view .LVU138
	l32i.n	a4, a3, 28	# MEM[(uint32_t *)argdata_17(D) + 28B], _8
	s32i.n	a4, a2, 28	# MEM[(uint32_t *)argstate_16(D) + 28B], _8
	.loc 1 131 9 is_stmt 1 view .LVU139
# /storage/projects/XKCP/lib/low/Xoodoo/plain/Xoodoo-plain.c:131:         state[8] = data[8];
	.loc 1 131 18 is_stmt 0 view .LVU140
	l32i.n	a4, a3, 32	# MEM[(uint32_t *)argdata_17(D) + 32B], _9
	s32i.n	a4, a2, 32	# MEM[(uint32_t *)argstate_16(D) + 32B], _9
	.loc 1 132 9 is_stmt 1 view .LVU141
# /storage/projects/XKCP/lib/low/Xoodoo/plain/Xoodoo-plain.c:132:         state[9] = data[9];
	.loc 1 132 18 is_stmt 0 view .LVU142
	l32i.n	a4, a3, 36	# MEM[(uint32_t *)argdata_17(D) + 36B], _10
	s32i.n	a4, a2, 36	# MEM[(uint32_t *)argstate_16(D) + 36B], _10
	.loc 1 133 9 is_stmt 1 view .LVU143
# /storage/projects/XKCP/lib/low/Xoodoo/plain/Xoodoo-plain.c:133:         state[10] = data[10];
	.loc 1 133 19 is_stmt 0 view .LVU144
	l32i.n	a4, a3, 40	# MEM[(uint32_t *)argdata_17(D) + 40B], _11
	s32i.n	a4, a2, 40	# MEM[(uint32_t *)argstate_16(D) + 40B], _11
	.loc 1 134 9 is_stmt 1 view .LVU145
# /storage/projects/XKCP/lib/low/Xoodoo/plain/Xoodoo-plain.c:134:         state[11] = data[11];
	.loc 1 134 19 is_stmt 0 view .LVU146
	l32i.n	a3, a3, 44	# MEM[(uint32_t *)argdata_17(D) + 44B], _12
.LVL32:
	.loc 1 134 19 view .LVU147
	s32i.n	a3, a2, 44	# MEM[(uint32_t *)argstate_16(D) + 44B], _12
.LBE6:
	j	.L21		#
.LVL33:
.L22:
	.loc 1 137 9 is_stmt 1 view .LVU148
	mov.n	a4, a5	#, length
.LVL34:
	.loc 1 137 9 is_stmt 0 view .LVU149
	add.n	a2, a2, a7	#, argstate, offset
.LVL35:
	.loc 1 137 9 view .LVU150
	call0	memcpy		#
.LVL36:
.L21:
# /storage/projects/XKCP/lib/low/Xoodoo/plain/Xoodoo-plain.c:141: }
	.loc 1 141 1 view .LVU151
	l32i.n	a0, sp, 12	#,
	addi	sp, sp, 16	#,,
	ret.n	
.LFE5:
	.size	Xoodoo_plain_OverwriteBytes, .-Xoodoo_plain_OverwriteBytes
	.literal_position
	.align	4
	.global	Xoodoo_plain_OverwriteWithZeroes
	.type	Xoodoo_plain_OverwriteWithZeroes, @function
Xoodoo_plain_OverwriteWithZeroes:
.LVL37:
.LFB6:
	.loc 1 146 1 is_stmt 1 view -0
	.loc 1 148 5 view .LVU153
# /storage/projects/XKCP/lib/low/Xoodoo/plain/Xoodoo-plain.c:146: {
	.loc 1 146 1 is_stmt 0 view .LVU154
	addi	sp, sp, -16	#,,
.LCFI6:
# /storage/projects/XKCP/lib/low/Xoodoo/plain/Xoodoo-plain.c:148:     memset(argstate, 0, byteCount);
	.loc 1 148 5 view .LVU155
	mov.n	a4, a3	#, byteCount
	movi.n	a3, 0	#,
.LVL38:
# /storage/projects/XKCP/lib/low/Xoodoo/plain/Xoodoo-plain.c:146: {
	.loc 1 146 1 view .LVU156
	s32i.n	a0, sp, 12	#,
.LCFI7:
# /storage/projects/XKCP/lib/low/Xoodoo/plain/Xoodoo-plain.c:148:     memset(argstate, 0, byteCount);
	.loc 1 148 5 view .LVU157
	call0	memset		#
.LVL39:
# /storage/projects/XKCP/lib/low/Xoodoo/plain/Xoodoo-plain.c:152: }
	.loc 1 152 1 view .LVU158
	l32i.n	a0, sp, 12	#,
	addi	sp, sp, 16	#,,
	ret.n	
.LFE6:
	.size	Xoodoo_plain_OverwriteWithZeroes, .-Xoodoo_plain_OverwriteWithZeroes
	.literal_position
	.align	4
	.global	Xoodoo_plain_ExtractBytes
	.type	Xoodoo_plain_ExtractBytes, @function
Xoodoo_plain_ExtractBytes:
.LVL40:
.LFB7:
	.loc 1 157 1 is_stmt 1 view -0
	.loc 1 159 5 view .LVU160
	add.n	a6, a2, a4	# tmp47, state, offset
# /storage/projects/XKCP/lib/low/Xoodoo/plain/Xoodoo-plain.c:157: {
	.loc 1 157 1 is_stmt 0 view .LVU161
	addi	sp, sp, -16	#,,
.LCFI8:
	mov.n	a2, a3	# data, data
.LVL41:
# /storage/projects/XKCP/lib/low/Xoodoo/plain/Xoodoo-plain.c:159:     memcpy(data, (unsigned char*)state+offset, length);
	.loc 1 159 5 view .LVU162
	mov.n	a4, a5	#, length
.LVL42:
	.loc 1 159 5 view .LVU163
	mov.n	a3, a6	#, tmp47
.LVL43:
# /storage/projects/XKCP/lib/low/Xoodoo/plain/Xoodoo-plain.c:157: {
	.loc 1 157 1 view .LVU164
	s32i.n	a0, sp, 12	#,
.LCFI9:
# /storage/projects/XKCP/lib/low/Xoodoo/plain/Xoodoo-plain.c:159:     memcpy(data, (unsigned char*)state+offset, length);
	.loc 1 159 5 view .LVU165
	call0	memcpy		#
.LVL44:
# /storage/projects/XKCP/lib/low/Xoodoo/plain/Xoodoo-plain.c:163: }
	.loc 1 163 1 view .LVU166
	l32i.n	a0, sp, 12	#,
	addi	sp, sp, 16	#,,
	ret.n	
.LFE7:
	.size	Xoodoo_plain_ExtractBytes, .-Xoodoo_plain_ExtractBytes
	.literal_position
	.align	4
	.global	Xoodoo_plain_ExtractAndAddBytes
	.type	Xoodoo_plain_ExtractAndAddBytes, @function
Xoodoo_plain_ExtractAndAddBytes:
.LVL45:
.LFB8:
	.loc 1 168 1 is_stmt 1 view -0
	.loc 1 170 5 view .LVU168
# /storage/projects/XKCP/lib/low/Xoodoo/plain/Xoodoo-plain.c:170:     if (length == (3*4*4)) {
	.loc 1 170 8 is_stmt 0 view .LVU169
	movi.n	a7, 0x30	# tmp132,
	bne	a6, a7, .L27	# length, tmp132,
.LBB7:
	.loc 1 171 9 is_stmt 1 view .LVU170
.LVL46:
	.loc 1 172 9 view .LVU171
	.loc 1 173 9 view .LVU172
	.loc 1 175 9 view .LVU173
# /storage/projects/XKCP/lib/low/Xoodoo/plain/Xoodoo-plain.c:175:         oo[0] = state[0] ^ ii[0];
	.loc 1 175 26 is_stmt 0 view .LVU174
	l32i.n	a6, a3, 0	# MEM[(const uint32_t *)input_75(D)], MEM[(const uint32_t *)input_75(D)]
.LVL47:
	.loc 1 175 26 view .LVU175
	l32i.n	a5, a2, 0	# MEM[(const uint32_t *)argState_74(D)], MEM[(const uint32_t *)argState_74(D)]
.LVL48:
	.loc 1 175 26 view .LVU176
	xor	a5, a5, a6	# tmp133, MEM[(const uint32_t *)argState_74(D)], MEM[(const uint32_t *)input_75(D)]
# /storage/projects/XKCP/lib/low/Xoodoo/plain/Xoodoo-plain.c:175:         oo[0] = state[0] ^ ii[0];
	.loc 1 175 15 view .LVU177
	s32i.n	a5, a4, 0	# MEM[(uint32_t *)output_76(D)], tmp133
	.loc 1 176 9 is_stmt 1 view .LVU178
# /storage/projects/XKCP/lib/low/Xoodoo/plain/Xoodoo-plain.c:176:         oo[1] = state[1] ^ ii[1];
	.loc 1 176 26 is_stmt 0 view .LVU179
	l32i.n	a6, a3, 4	# MEM[(const uint32_t *)input_75(D) + 4B], MEM[(const uint32_t *)input_75(D) + 4B]
	l32i.n	a5, a2, 4	# MEM[(const uint32_t *)argState_74(D) + 4B], MEM[(const uint32_t *)argState_74(D) + 4B]
	xor	a5, a5, a6	# tmp136, MEM[(const uint32_t *)argState_74(D) + 4B], MEM[(const uint32_t *)input_75(D) + 4B]
# /storage/projects/XKCP/lib/low/Xoodoo/plain/Xoodoo-plain.c:176:         oo[1] = state[1] ^ ii[1];
	.loc 1 176 15 view .LVU180
	s32i.n	a5, a4, 4	# MEM[(uint32_t *)output_76(D) + 4B], tmp136
	.loc 1 177 9 is_stmt 1 view .LVU181
# /storage/projects/XKCP/lib/low/Xoodoo/plain/Xoodoo-plain.c:177:         oo[2] = state[2] ^ ii[2];
	.loc 1 177 26 is_stmt 0 view .LVU182
	l32i.n	a6, a3, 8	# MEM[(const uint32_t *)input_75(D) + 8B], MEM[(const uint32_t *)input_75(D) + 8B]
	l32i.n	a5, a2, 8	# MEM[(const uint32_t *)argState_74(D) + 8B], MEM[(const uint32_t *)argState_74(D) + 8B]
	xor	a5, a5, a6	# tmp139, MEM[(const uint32_t *)argState_74(D) + 8B], MEM[(const uint32_t *)input_75(D) + 8B]
# /storage/projects/XKCP/lib/low/Xoodoo/plain/Xoodoo-plain.c:177:         oo[2] = state[2] ^ ii[2];
	.loc 1 177 15 view .LVU183
	s32i.n	a5, a4, 8	# MEM[(uint32_t *)output_76(D) + 8B], tmp139
	.loc 1 178 9 is_stmt 1 view .LVU184
# /storage/projects/XKCP/lib/low/Xoodoo/plain/Xoodoo-plain.c:178:         oo[3] = state[3] ^ ii[3];
	.loc 1 178 26 is_stmt 0 view .LVU185
	l32i.n	a6, a3, 12	# MEM[(const uint32_t *)input_75(D) + 12B], MEM[(const uint32_t *)input_75(D) + 12B]
	l32i.n	a5, a2, 12	# MEM[(const uint32_t *)argState_74(D) + 12B], MEM[(const uint32_t *)argState_74(D) + 12B]
	xor	a5, a5, a6	# tmp142, MEM[(const uint32_t *)argState_74(D) + 12B], MEM[(const uint32_t *)input_75(D) + 12B]
# /storage/projects/XKCP/lib/low/Xoodoo/plain/Xoodoo-plain.c:178:         oo[3] = state[3] ^ ii[3];
	.loc 1 178 15 view .LVU186
	s32i.n	a5, a4, 12	# MEM[(uint32_t *)output_76(D) + 12B], tmp142
	.loc 1 179 9 is_stmt 1 view .LVU187
# /storage/projects/XKCP/lib/low/Xoodoo/plain/Xoodoo-plain.c:179:         oo[4] = state[4] ^ ii[4];
	.loc 1 179 26 is_stmt 0 view .LVU188
	l32i.n	a6, a3, 16	# MEM[(const uint32_t *)input_75(D) + 16B], MEM[(const uint32_t *)input_75(D) + 16B]
	l32i.n	a5, a2, 16	# MEM[(const uint32_t *)argState_74(D) + 16B], MEM[(const uint32_t *)argState_74(D) + 16B]
	xor	a5, a5, a6	# tmp145, MEM[(const uint32_t *)argState_74(D) + 16B], MEM[(const uint32_t *)input_75(D) + 16B]
# /storage/projects/XKCP/lib/low/Xoodoo/plain/Xoodoo-plain.c:179:         oo[4] = state[4] ^ ii[4];
	.loc 1 179 15 view .LVU189
	s32i.n	a5, a4, 16	# MEM[(uint32_t *)output_76(D) + 16B], tmp145
	.loc 1 180 9 is_stmt 1 view .LVU190
# /storage/projects/XKCP/lib/low/Xoodoo/plain/Xoodoo-plain.c:180:         oo[5] = state[5] ^ ii[5];
	.loc 1 180 26 is_stmt 0 view .LVU191
	l32i.n	a6, a3, 20	# MEM[(const uint32_t *)input_75(D) + 20B], MEM[(const uint32_t *)input_75(D) + 20B]
	l32i.n	a5, a2, 20	# MEM[(const uint32_t *)argState_74(D) + 20B], MEM[(const uint32_t *)argState_74(D) + 20B]
	xor	a5, a5, a6	# tmp148, MEM[(const uint32_t *)argState_74(D) + 20B], MEM[(const uint32_t *)input_75(D) + 20B]
# /storage/projects/XKCP/lib/low/Xoodoo/plain/Xoodoo-plain.c:180:         oo[5] = state[5] ^ ii[5];
	.loc 1 180 15 view .LVU192
	s32i.n	a5, a4, 20	# MEM[(uint32_t *)output_76(D) + 20B], tmp148
	.loc 1 181 9 is_stmt 1 view .LVU193
# /storage/projects/XKCP/lib/low/Xoodoo/plain/Xoodoo-plain.c:181:         oo[6] = state[6] ^ ii[6];
	.loc 1 181 26 is_stmt 0 view .LVU194
	l32i.n	a6, a3, 24	# MEM[(const uint32_t *)input_75(D) + 24B], MEM[(const uint32_t *)input_75(D) + 24B]
	l32i.n	a5, a2, 24	# MEM[(const uint32_t *)argState_74(D) + 24B], MEM[(const uint32_t *)argState_74(D) + 24B]
	xor	a5, a5, a6	# tmp151, MEM[(const uint32_t *)argState_74(D) + 24B], MEM[(const uint32_t *)input_75(D) + 24B]
# /storage/projects/XKCP/lib/low/Xoodoo/plain/Xoodoo-plain.c:181:         oo[6] = state[6] ^ ii[6];
	.loc 1 181 15 view .LVU195
	s32i.n	a5, a4, 24	# MEM[(uint32_t *)output_76(D) + 24B], tmp151
	.loc 1 182 9 is_stmt 1 view .LVU196
# /storage/projects/XKCP/lib/low/Xoodoo/plain/Xoodoo-plain.c:182:         oo[7] = state[7] ^ ii[7];
	.loc 1 182 26 is_stmt 0 view .LVU197
	l32i.n	a6, a3, 28	# MEM[(const uint32_t *)input_75(D) + 28B], MEM[(const uint32_t *)input_75(D) + 28B]
	l32i.n	a5, a2, 28	# MEM[(const uint32_t *)argState_74(D) + 28B], MEM[(const uint32_t *)argState_74(D) + 28B]
	xor	a5, a5, a6	# tmp154, MEM[(const uint32_t *)argState_74(D) + 28B], MEM[(const uint32_t *)input_75(D) + 28B]
# /storage/projects/XKCP/lib/low/Xoodoo/plain/Xoodoo-plain.c:182:         oo[7] = state[7] ^ ii[7];
	.loc 1 182 15 view .LVU198
	s32i.n	a5, a4, 28	# MEM[(uint32_t *)output_76(D) + 28B], tmp154
	.loc 1 183 9 is_stmt 1 view .LVU199
# /storage/projects/XKCP/lib/low/Xoodoo/plain/Xoodoo-plain.c:183:         oo[8] = state[8] ^ ii[8];
	.loc 1 183 26 is_stmt 0 view .LVU200
	l32i.n	a6, a3, 32	# MEM[(const uint32_t *)input_75(D) + 32B], MEM[(const uint32_t *)input_75(D) + 32B]
	l32i.n	a5, a2, 32	# MEM[(const uint32_t *)argState_74(D) + 32B], MEM[(const uint32_t *)argState_74(D) + 32B]
	xor	a5, a5, a6	# tmp157, MEM[(const uint32_t *)argState_74(D) + 32B], MEM[(const uint32_t *)input_75(D) + 32B]
# /storage/projects/XKCP/lib/low/Xoodoo/plain/Xoodoo-plain.c:183:         oo[8] = state[8] ^ ii[8];
	.loc 1 183 15 view .LVU201
	s32i.n	a5, a4, 32	# MEM[(uint32_t *)output_76(D) + 32B], tmp157
	.loc 1 184 9 is_stmt 1 view .LVU202
# /storage/projects/XKCP/lib/low/Xoodoo/plain/Xoodoo-plain.c:184:         oo[9] = state[9] ^ ii[9];
	.loc 1 184 26 is_stmt 0 view .LVU203
	l32i.n	a6, a3, 36	# MEM[(const uint32_t *)input_75(D) + 36B], MEM[(const uint32_t *)input_75(D) + 36B]
	l32i.n	a5, a2, 36	# MEM[(const uint32_t *)argState_74(D) + 36B], MEM[(const uint32_t *)argState_74(D) + 36B]
	xor	a5, a5, a6	# tmp160, MEM[(const uint32_t *)argState_74(D) + 36B], MEM[(const uint32_t *)input_75(D) + 36B]
# /storage/projects/XKCP/lib/low/Xoodoo/plain/Xoodoo-plain.c:184:         oo[9] = state[9] ^ ii[9];
	.loc 1 184 15 view .LVU204
	s32i.n	a5, a4, 36	# MEM[(uint32_t *)output_76(D) + 36B], tmp160
	.loc 1 185 9 is_stmt 1 view .LVU205
# /storage/projects/XKCP/lib/low/Xoodoo/plain/Xoodoo-plain.c:185:         oo[10] = state[10] ^ ii[10];
	.loc 1 185 28 is_stmt 0 view .LVU206
	l32i.n	a5, a2, 40	# MEM[(const uint32_t *)argState_74(D) + 40B], MEM[(const uint32_t *)argState_74(D) + 40B]
	l32i.n	a6, a3, 40	# MEM[(const uint32_t *)input_75(D) + 40B], MEM[(const uint32_t *)input_75(D) + 40B]
	xor	a5, a5, a6	# tmp163, MEM[(const uint32_t *)argState_74(D) + 40B], MEM[(const uint32_t *)input_75(D) + 40B]
# /storage/projects/XKCP/lib/low/Xoodoo/plain/Xoodoo-plain.c:185:         oo[10] = state[10] ^ ii[10];
	.loc 1 185 16 view .LVU207
	s32i.n	a5, a4, 40	# MEM[(uint32_t *)output_76(D) + 40B], tmp163
	.loc 1 186 9 is_stmt 1 view .LVU208
# /storage/projects/XKCP/lib/low/Xoodoo/plain/Xoodoo-plain.c:186:         oo[11] = state[11] ^ ii[11];
	.loc 1 186 28 is_stmt 0 view .LVU209
	l32i.n	a2, a2, 44	# MEM[(const uint32_t *)argState_74(D) + 44B], MEM[(const uint32_t *)argState_74(D) + 44B]
.LVL49:
	.loc 1 186 28 view .LVU210
	l32i.n	a3, a3, 44	# MEM[(const uint32_t *)input_75(D) + 44B], MEM[(const uint32_t *)input_75(D) + 44B]
.LVL50:
	.loc 1 186 28 view .LVU211
	xor	a2, a2, a3	# tmp166, MEM[(const uint32_t *)argState_74(D) + 44B], MEM[(const uint32_t *)input_75(D) + 44B]
# /storage/projects/XKCP/lib/low/Xoodoo/plain/Xoodoo-plain.c:186:         oo[11] = state[11] ^ ii[11];
	.loc 1 186 16 view .LVU212
	s32i.n	a2, a4, 44	# MEM[(uint32_t *)output_76(D) + 44B], tmp166
.LBE7:
	j	.L26		#
.LVL51:
.L27:
.LBB8:
	.loc 1 189 9 is_stmt 1 view .LVU213
	.loc 1 190 9 view .LVU214
	.loc 1 191 9 view .LVU215
# /storage/projects/XKCP/lib/low/Xoodoo/plain/Xoodoo-plain.c:196:         state += lanePosition;
	.loc 1 196 15 is_stmt 0 view .LVU216
	movi.n	a7, -4	# tmp169,
	and	a7, a5, a7	# tmp170, offset, tmp169
	add.n	a2, a2, a7	# state, argState, tmp170
.LVL52:
# /storage/projects/XKCP/lib/low/Xoodoo/plain/Xoodoo-plain.c:191:         unsigned int offsetInLane = offset%4;
	.loc 1 191 22 view .LVU217
	extui	a5, a5, 0, 2	# offsetInLane, offset,
.LVL53:
	.loc 1 192 9 is_stmt 1 view .LVU218
	.loc 1 193 9 view .LVU219
	.loc 1 194 9 view .LVU220
	.loc 1 196 9 view .LVU221
	.loc 1 197 9 view .LVU222
# /storage/projects/XKCP/lib/low/Xoodoo/plain/Xoodoo-plain.c:197:         if ((sizeLeft > 0) && (offsetInLane != 0)) {
	.loc 1 197 12 is_stmt 0 view .LVU223
	beqz.n	a6, .L29	# length,
	beqz.n	a5, .L29	# offsetInLane,
.LBB9:
	.loc 1 198 13 is_stmt 1 view .LVU224
# /storage/projects/XKCP/lib/low/Xoodoo/plain/Xoodoo-plain.c:198:             unsigned int bytesInLane = 4 - offsetInLane;
	.loc 1 198 26 is_stmt 0 view .LVU225
	movi.n	a8, 4	# tmp181,
# /storage/projects/XKCP/lib/low/Xoodoo/plain/Xoodoo-plain.c:199:             uint32_t  lane = *state++ >> (offsetInLane * 8);
	.loc 1 199 23 view .LVU226
	l32i.n	a7, a2, 0	# *state_93, *state_93
# /storage/projects/XKCP/lib/low/Xoodoo/plain/Xoodoo-plain.c:199:             uint32_t  lane = *state++ >> (offsetInLane * 8);
	.loc 1 199 56 view .LVU227
	slli	a9, a5, 3	# tmp182, offsetInLane,
# /storage/projects/XKCP/lib/low/Xoodoo/plain/Xoodoo-plain.c:198:             unsigned int bytesInLane = 4 - offsetInLane;
	.loc 1 198 26 view .LVU228
	sub	a5, a8, a5	# bytesInLane, tmp181, offsetInLane
.LVL54:
	.loc 1 199 13 is_stmt 1 view .LVU229
# /storage/projects/XKCP/lib/low/Xoodoo/plain/Xoodoo-plain.c:199:             uint32_t  lane = *state++ >> (offsetInLane * 8);
	.loc 1 199 36 is_stmt 0 view .LVU230
	add.n	a2, a2, a8	# state, state,
.LVL55:
# /storage/projects/XKCP/lib/low/Xoodoo/plain/Xoodoo-plain.c:199:             uint32_t  lane = *state++ >> (offsetInLane * 8);
	.loc 1 199 23 view .LVU231
	ssr	a9	# tmp182
	srl	a7, a7	# lane, *state_93
.LVL56:
	.loc 1 200 13 is_stmt 1 view .LVU232
	mov.n	a8, a6	# bytesInLane, length
	bgeu	a5, a6, .L30	# bytesInLane, length,
	.loc 1 200 13 is_stmt 0 view .LVU233
	mov.n	a8, a5	# bytesInLane, bytesInLane
.L30:
.LVL57:
	.loc 1 202 13 is_stmt 1 view .LVU234
# /storage/projects/XKCP/lib/low/Xoodoo/plain/Xoodoo-plain.c:204:                 *curOutput++ = (*curInput++) ^ (unsigned char)lane;
	.loc 1 204 30 is_stmt 0 view .LVU235
	l8ui	a5, a3, 0	# *input_75(D),
# /storage/projects/XKCP/lib/low/Xoodoo/plain/Xoodoo-plain.c:207:             while ( --bytesInLane != 0);
	.loc 1 207 13 view .LVU236
	addi.n	a9, a8, -1	# bytesInLane, bytesInLane,
# /storage/projects/XKCP/lib/low/Xoodoo/plain/Xoodoo-plain.c:204:                 *curOutput++ = (*curInput++) ^ (unsigned char)lane;
	.loc 1 204 30 view .LVU237
	xor	a5, a7, a5	# tmp186, lane, *input_75(D)
	s8i	a5, a4, 0	# *output_76(D), tmp186
# /storage/projects/XKCP/lib/low/Xoodoo/plain/Xoodoo-plain.c:202:             sizeLeft -= bytesInLane;
	.loc 1 202 22 view .LVU238
	sub	a6, a6, a8	# length, length, bytesInLane
.LVL58:
	.loc 1 203 13 is_stmt 1 view .LVU239
	.loc 1 204 17 view .LVU240
	.loc 1 205 17 view .LVU241
# /storage/projects/XKCP/lib/low/Xoodoo/plain/Xoodoo-plain.c:205:                 lane >>= 8;
	.loc 1 205 22 is_stmt 0 view .LVU242
	srli	a5, a7, 8	# lane, lane,
.LVL59:
	.loc 1 207 19 is_stmt 1 view .LVU243
# /storage/projects/XKCP/lib/low/Xoodoo/plain/Xoodoo-plain.c:207:             while ( --bytesInLane != 0);
	.loc 1 207 13 is_stmt 0 view .LVU244
	beqz.n	a9, .L31	# bytesInLane,
	.loc 1 203 13 is_stmt 1 view .LVU245
	.loc 1 204 17 view .LVU246
.LVL60:
# /storage/projects/XKCP/lib/low/Xoodoo/plain/Xoodoo-plain.c:204:                 *curOutput++ = (*curInput++) ^ (unsigned char)lane;
	.loc 1 204 30 is_stmt 0 view .LVU247
	l8ui	a10, a3, 1	# MEM[(const unsigned char *)input_75(D) + 1B],
# /storage/projects/XKCP/lib/low/Xoodoo/plain/Xoodoo-plain.c:205:                 lane >>= 8;
	.loc 1 205 22 view .LVU248
	extui	a7, a7, 16, 16	# lane, lane,
# /storage/projects/XKCP/lib/low/Xoodoo/plain/Xoodoo-plain.c:204:                 *curOutput++ = (*curInput++) ^ (unsigned char)lane;
	.loc 1 204 30 view .LVU249
	xor	a5, a5, a10	# tmp189, lane, MEM[(const unsigned char *)input_75(D) + 1B]
.LVL61:
	.loc 1 204 30 view .LVU250
	s8i	a5, a4, 1	# MEM[(unsigned char *)output_76(D) + 1B], tmp189
	.loc 1 205 17 is_stmt 1 view .LVU251
.LVL62:
	.loc 1 207 19 view .LVU252
# /storage/projects/XKCP/lib/low/Xoodoo/plain/Xoodoo-plain.c:207:             while ( --bytesInLane != 0);
	.loc 1 207 13 is_stmt 0 view .LVU253
	beqi	a9, 1, .L31	# bytesInLane,,
.LVL63:
	.loc 1 203 13 is_stmt 1 discriminator 1 view .LVU254
	.loc 1 204 17 discriminator 1 view .LVU255
# /storage/projects/XKCP/lib/low/Xoodoo/plain/Xoodoo-plain.c:204:                 *curOutput++ = (*curInput++) ^ (unsigned char)lane;
	.loc 1 204 30 is_stmt 0 discriminator 1 view .LVU256
	l8ui	a5, a3, 2	# MEM[(const unsigned char *)input_75(D) + 2B],
	xor	a7, a7, a5	# tmp192, lane, MEM[(const unsigned char *)input_75(D) + 2B]
.LVL64:
	.loc 1 204 30 discriminator 1 view .LVU257
	s8i	a7, a4, 2	# MEM[(unsigned char *)output_76(D) + 2B], tmp192
	.loc 1 205 17 is_stmt 1 discriminator 1 view .LVU258
.LVL65:
	.loc 1 207 19 discriminator 1 view .LVU259
.L31:
	.loc 1 207 19 is_stmt 0 discriminator 1 view .LVU260
	add.n	a3, a3, a8	# input, input, bytesInLane
.LVL66:
	.loc 1 207 19 discriminator 1 view .LVU261
	add.n	a4, a4, a8	# output, output, bytesInLane
.LVL67:
	.loc 1 207 19 discriminator 1 view .LVU262
	j	.L29		#
.LVL68:
.L34:
	.loc 1 207 19 discriminator 1 view .LVU263
	addi	a11, a6, -4	# tmp193, length,
	srli	a11, a11, 2	# tmp194, tmp193,
	addi.n	a11, a11, 1	# tmp195, tmp194,
	slli	a11, a11, 2	# _167, tmp195,
	mov.n	a8, a2	# ivtmp$32, state
	add.n	a10, a4, a11	# curOutput, output, _167
.LBE9:
# /storage/projects/XKCP/lib/low/Xoodoo/plain/Xoodoo-plain.c:210:         while(sizeLeft >= 4) {
	.loc 1 210 14 view .LVU264
	mov.n	a7, a3	# curInput, input
.LVL69:
.L32:
	.loc 1 211 13 is_stmt 1 view .LVU265
	.loc 1 211 13 is_stmt 0 view .LVU266
	l32i.n	a5, a7, 0	# MEM[base: curInput_123, offset: 0B], MEM[base: curInput_123, offset: 0B]
	l32i.n	a9, a8, 0	# MEM[base: _131, offset: 0B], MEM[base: _131, offset: 0B]
# /storage/projects/XKCP/lib/low/Xoodoo/plain/Xoodoo-plain.c:213:             curInput += 4;
	.loc 1 213 22 view .LVU267
	addi.n	a7, a7, 4	# curInput, curInput,
.LVL70:
# /storage/projects/XKCP/lib/low/Xoodoo/plain/Xoodoo-plain.c:211:             WRITE32_UNALIGNED( curOutput, READ32_UNALIGNED( curInput ) ^ *state++ );
	.loc 1 211 13 view .LVU268
	xor	a5, a5, a9	# tmp196, MEM[base: curInput_123, offset: 0B], MEM[base: _131, offset: 0B]
	s32i.n	a5, a4, 0	# MEM[base: curOutput_120, offset: 0B], tmp196
	.loc 1 212 13 is_stmt 1 view .LVU269
.LVL71:
	.loc 1 213 13 view .LVU270
	.loc 1 214 13 view .LVU271
# /storage/projects/XKCP/lib/low/Xoodoo/plain/Xoodoo-plain.c:214:             curOutput += 4;
	.loc 1 214 23 is_stmt 0 view .LVU272
	addi.n	a4, a4, 4	# output, output,
.LVL72:
	.loc 1 210 14 is_stmt 1 view .LVU273
	addi.n	a8, a8, 4	# ivtmp$32, ivtmp$32,
	bne	a4, a10, .L32	# output, curOutput,
	add.n	a2, a2, a11	# state, state, _167
.LVL73:
	.loc 1 210 14 is_stmt 0 view .LVU274
	extui	a6, a6, 0, 2	# length, length,
	add.n	a3, a3, a11	# input, input, _167
	j	.L33		#
.LVL74:
.L29:
	.loc 1 210 14 is_stmt 1 view .LVU275
	bgeui	a6, 4, .L34	# length,,
	.loc 1 210 14 is_stmt 0 view .LVU276
	mov.n	a10, a4	# curOutput, output
.LVL75:
.L33:
	.loc 1 217 9 is_stmt 1 view .LVU277
# /storage/projects/XKCP/lib/low/Xoodoo/plain/Xoodoo-plain.c:217:         if (sizeLeft > 0) {
	.loc 1 217 12 is_stmt 0 view .LVU278
	beqz.n	a6, .L26	# length,
.LBB10:
	.loc 1 218 13 is_stmt 1 view .LVU279
# /storage/projects/XKCP/lib/low/Xoodoo/plain/Xoodoo-plain.c:218:             uint32_t  lane = *state;
	.loc 1 218 23 is_stmt 0 view .LVU280
	l32i.n	a2, a2, 0	# *state_126, lane
.LVL76:
	.loc 1 219 13 is_stmt 1 view .LVU281
	.loc 1 220 17 view .LVU282
# /storage/projects/XKCP/lib/low/Xoodoo/plain/Xoodoo-plain.c:220:                 *curOutput++ = (*curInput++) ^ (unsigned char)lane;
	.loc 1 220 30 is_stmt 0 view .LVU283
	l8ui	a4, a3, 0	# *curInput_122,
# /storage/projects/XKCP/lib/low/Xoodoo/plain/Xoodoo-plain.c:223:             while ( --sizeLeft != 0 );
	.loc 1 223 13 view .LVU284
	addi.n	a6, a6, -1	# sizeLeft, length,
.LVL77:
# /storage/projects/XKCP/lib/low/Xoodoo/plain/Xoodoo-plain.c:220:                 *curOutput++ = (*curInput++) ^ (unsigned char)lane;
	.loc 1 220 30 view .LVU285
	xor	a4, a2, a4	# tmp201, lane, *curInput_122
	s8i	a4, a10, 0	# *curOutput_135, tmp201
	.loc 1 221 17 is_stmt 1 view .LVU286
# /storage/projects/XKCP/lib/low/Xoodoo/plain/Xoodoo-plain.c:221:                 lane >>= 8;
	.loc 1 221 22 is_stmt 0 view .LVU287
	srli	a4, a2, 8	# lane, lane,
.LVL78:
	.loc 1 223 19 is_stmt 1 view .LVU288
# /storage/projects/XKCP/lib/low/Xoodoo/plain/Xoodoo-plain.c:223:             while ( --sizeLeft != 0 );
	.loc 1 223 13 is_stmt 0 view .LVU289
	beqz.n	a6, .L26	# sizeLeft,
	.loc 1 219 13 is_stmt 1 view .LVU290
	.loc 1 220 17 view .LVU291
.LVL79:
# /storage/projects/XKCP/lib/low/Xoodoo/plain/Xoodoo-plain.c:220:                 *curOutput++ = (*curInput++) ^ (unsigned char)lane;
	.loc 1 220 30 is_stmt 0 view .LVU292
	l8ui	a5, a3, 1	# MEM[(const unsigned char *)curInput_122 + 1B],
# /storage/projects/XKCP/lib/low/Xoodoo/plain/Xoodoo-plain.c:221:                 lane >>= 8;
	.loc 1 221 22 view .LVU293
	extui	a2, a2, 16, 16	# lane, lane,
# /storage/projects/XKCP/lib/low/Xoodoo/plain/Xoodoo-plain.c:220:                 *curOutput++ = (*curInput++) ^ (unsigned char)lane;
	.loc 1 220 30 view .LVU294
	xor	a4, a4, a5	# tmp204, lane, MEM[(const unsigned char *)curInput_122 + 1B]
.LVL80:
	.loc 1 220 30 view .LVU295
	s8i	a4, a10, 1	# MEM[(unsigned char *)curOutput_135 + 1B], tmp204
	.loc 1 221 17 is_stmt 1 view .LVU296
	.loc 1 223 19 view .LVU297
.LVL81:
# /storage/projects/XKCP/lib/low/Xoodoo/plain/Xoodoo-plain.c:223:             while ( --sizeLeft != 0 );
	.loc 1 223 13 is_stmt 0 view .LVU298
	beqi	a6, 1, .L26	# sizeLeft,,
.LVL82:
	.loc 1 219 13 is_stmt 1 discriminator 1 view .LVU299
	.loc 1 220 17 discriminator 1 view .LVU300
# /storage/projects/XKCP/lib/low/Xoodoo/plain/Xoodoo-plain.c:220:                 *curOutput++ = (*curInput++) ^ (unsigned char)lane;
	.loc 1 220 30 is_stmt 0 discriminator 1 view .LVU301
	l8ui	a3, a3, 2	# MEM[(const unsigned char *)curInput_122 + 2B],
.LVL83:
	.loc 1 220 30 discriminator 1 view .LVU302
	xor	a2, a2, a3	# tmp207, lane, MEM[(const unsigned char *)curInput_122 + 2B]
	s8i	a2, a10, 2	# MEM[(unsigned char *)curOutput_135 + 2B], tmp207
	.loc 1 221 17 is_stmt 1 discriminator 1 view .LVU303
	.loc 1 223 19 discriminator 1 view .LVU304
.LVL84:
.L26:
	.loc 1 223 19 is_stmt 0 discriminator 1 view .LVU305
.LBE10:
.LBE8:
# /storage/projects/XKCP/lib/low/Xoodoo/plain/Xoodoo-plain.c:229: }
	.loc 1 229 1 view .LVU306
	ret.n	
.LFE8:
	.size	Xoodoo_plain_ExtractAndAddBytes, .-Xoodoo_plain_ExtractAndAddBytes
	.literal_position
	.literal .LC0, RC
	.literal .LC1, RC+48
	.align	4
	.global	Xoodoo_plain_Permute_Nrounds
	.type	Xoodoo_plain_Permute_Nrounds, @function
Xoodoo_plain_Permute_Nrounds:
.LVL85:
.LFB9:
	.loc 1 353 1 is_stmt 1 view -0
	.loc 1 354 5 view .LVU308
	.loc 1 354 5 view .LVU309
	.loc 1 354 5 view .LVU310
	.loc 1 354 5 view .LVU311
	.loc 1 355 5 view .LVU312
	.loc 1 357 5 view .LVU313
# /storage/projects/XKCP/lib/low/Xoodoo/plain/Xoodoo-plain.c:353: {
	.loc 1 353 1 is_stmt 0 view .LVU314
	addi	sp, sp, -64	#,,
.LCFI10:
	s32i.n	a2, sp, 32	# %sfp, state
# /storage/projects/XKCP/lib/low/Xoodoo/plain/Xoodoo-plain.c:357:     State2Vars;
	.loc 1 357 5 view .LVU315
	l32i.n	a6, sp, 32	# %sfp,
	l32i.n	a7, sp, 32	# %sfp,
	l32i.n	a8, sp, 32	# %sfp,
	l32i.n	a2, a2, 0	# *state_52(D),
.LVL86:
	.loc 1 357 5 view .LVU316
	l32i.n	a6, a6, 4	# *state_52(D),
.LVL87:
	.loc 1 357 5 view .LVU317
	l32i.n	a7, a7, 8	# *state_52(D),
.LVL88:
	.loc 1 357 5 view .LVU318
	l32i.n	a8, a8, 12	# *state_52(D),
.LVL89:
	.loc 1 357 5 view .LVU319
	l32i.n	a10, sp, 32	# %sfp,
# /storage/projects/XKCP/lib/low/Xoodoo/plain/Xoodoo-plain.c:353: {
	.loc 1 353 1 view .LVU320
	s32i.n	a14, sp, 52	#,
# /storage/projects/XKCP/lib/low/Xoodoo/plain/Xoodoo-plain.c:358:     for (i = MAXROUNDS - nr; i < MAXROUNDS; ++i ) {
	.loc 1 358 12 view .LVU321
	movi.n	a4, 0xc	# tmp133,
.LCFI11:
# /storage/projects/XKCP/lib/low/Xoodoo/plain/Xoodoo-plain.c:357:     State2Vars;
	.loc 1 357 5 view .LVU322
	l32i.n	a14, sp, 32	# %sfp,
	s32i.n	a2, sp, 0	# %sfp,
.LVL90:
	.loc 1 357 5 view .LVU323
	s32i.n	a6, sp, 4	# %sfp,
.LVL91:
	.loc 1 357 5 view .LVU324
	l32i.n	a2, sp, 32	# %sfp,
.LVL92:
	.loc 1 357 5 view .LVU325
	l32i.n	a6, sp, 32	# %sfp,
.LVL93:
# /storage/projects/XKCP/lib/low/Xoodoo/plain/Xoodoo-plain.c:353: {
	.loc 1 353 1 view .LVU326
	s32i.n	a12, sp, 60	#,
	s32i.n	a13, sp, 56	#,
	s32i.n	a15, sp, 48	#,
.LCFI12:
# /storage/projects/XKCP/lib/low/Xoodoo/plain/Xoodoo-plain.c:358:     for (i = MAXROUNDS - nr; i < MAXROUNDS; ++i ) {
	.loc 1 358 12 view .LVU327
	sub	a4, a4, a3	# i, tmp133, nr
# /storage/projects/XKCP/lib/low/Xoodoo/plain/Xoodoo-plain.c:358:     for (i = MAXROUNDS - nr; i < MAXROUNDS; ++i ) {
	.loc 1 358 5 view .LVU328
	movi.n	a5, 0xb	# tmp134,
# /storage/projects/XKCP/lib/low/Xoodoo/plain/Xoodoo-plain.c:357:     State2Vars;
	.loc 1 357 5 view .LVU329
	s32i.n	a7, sp, 8	# %sfp,
.LVL94:
	.loc 1 357 5 view .LVU330
	s32i.n	a8, sp, 12	# %sfp,
.LVL95:
	.loc 1 357 5 is_stmt 1 view .LVU331
	l32i.n	a12, a10, 16	# *state_52(D), a10
.LVL96:
	.loc 1 357 5 is_stmt 0 view .LVU332
	l32i.n	a11, a10, 20	# *state_52(D), a11
.LVL97:
	.loc 1 357 5 view .LVU333
	l32i.n	a13, a14, 28	# *state_52(D), a13
	l32i.n	a3, a2, 36	# *state_52(D), a21
.LVL98:
	.loc 1 357 5 view .LVU334
	l32i.n	a10, a10, 24	# *state_52(D), a12
.LVL99:
	.loc 1 357 5 is_stmt 1 view .LVU335
	l32i.n	a14, a14, 32	# *state_52(D), a20
.LVL100:
	.loc 1 357 5 is_stmt 0 view .LVU336
	l32i.n	a2, a2, 40	# *state_52(D), a22
.LVL101:
	.loc 1 357 5 view .LVU337
	l32i.n	a15, a6, 44	# *state_52(D), a23
.LVL102:
	.loc 1 358 5 is_stmt 1 view .LVU338
	.loc 1 358 30 view .LVU339
# /storage/projects/XKCP/lib/low/Xoodoo/plain/Xoodoo-plain.c:358:     for (i = MAXROUNDS - nr; i < MAXROUNDS; ++i ) {
	.loc 1 358 5 is_stmt 0 view .LVU340
	bltu	a5, a4, .L59	# tmp134, i,
	l32r	a5, .LC0	#, tmp136
	slli	a4, a4, 2	# tmp135, i,
.LVL103:
	.loc 1 358 5 view .LVU341
	add.n	a4, a4, a5	#, tmp135, tmp136
# /storage/projects/XKCP/lib/low/Xoodoo/plain/Xoodoo-plain.c:359:         Round(RC[i]);
	.loc 1 359 9 view .LVU342
	s32i.n	a14, sp, 28	# %sfp, a20
	s32i.n	a4, sp, 24	# %sfp,
	movi.n	a9, -1	# tmp145,
	mov.n	a14, a13	# a13, a13
.LVL104:
.L60:
	.loc 1 359 9 is_stmt 1 discriminator 3 view .LVU343
	l32i.n	a7, sp, 12	# %sfp,
	l32i.n	a13, sp, 0	# %sfp,
	xor	a8, a7, a14	# tmp138,, a13
	xor	a7, a13, a12	# tmp139,, a10
	l32i.n	a13, sp, 28	# %sfp,
	l32i.n	a4, sp, 4	# %sfp,
	l32i.n	a6, sp, 8	# %sfp,
	xor	a7, a7, a13	# v2, tmp139,
	xor	a5, a4, a11	# tmp140,, a11
	xor	a8, a8, a15	# v1, tmp138, a23
.LVL105:
	.loc 1 359 9 discriminator 3 view .LVU344
	.loc 1 359 9 discriminator 3 view .LVU345
	ssai	27	#
	src	a13, a7, a7	#, v2
	s32i.n	a13, sp, 16	# %sfp,
	xor	a4, a6, a10	# tmp141,, a12
	xor	a5, a5, a3	# v1, tmp140, a21
	ssai	27	#
	src	a6, a8, a8	# _3, v1
	ssai	18	#
	src	a8, a8, a8	# _4, v1
.LVL106:
	.loc 1 359 9 is_stmt 0 discriminator 3 view .LVU346
	xor	a6, a6, a8	# v1, _3, _4
	ssai	27	#
	src	a13, a5, a5	#, v1
	l32i.n	a8, sp, 16	# %sfp,
	s32i.n	a13, sp, 20	# %sfp,
	ssai	18	#
	src	a7, a7, a7	# _7, v2
.LVL107:
	.loc 1 359 9 discriminator 3 view .LVU347
	xor	a7, a8, a7	# v2,, _7
	l32i.n	a8, sp, 20	# %sfp,
	ssai	18	#
	src	a5, a5, a5	# _10, v1
	xor	a5, a8, a5	# v1,, _10
	xor	a10, a5, a10	#, v1, a12
.LVL108:
	.loc 1 359 9 discriminator 3 view .LVU348
	xor	a11, a7, a11	#, v2, a11
.LVL109:
	.loc 1 359 9 discriminator 3 view .LVU349
	s32i.n	a10, sp, 36	# %sfp,
	l32i.n	a10, sp, 24	# %sfp,
	xor	a4, a4, a2	# v2, tmp141, a22
	s32i.n	a11, sp, 20	# %sfp,
	ssai	27	#
	src	a13, a4, a4	# _11, v2
.LVL110:
	.loc 1 359 9 is_stmt 1 discriminator 3 view .LVU350
	.loc 1 359 9 discriminator 3 view .LVU351
	l32i.n	a10, a10, 0	# MEM[base: _350, offset: 0B],
	l32i.n	a8, sp, 20	# %sfp,
	ssai	18	#
	src	a4, a4, a4	# _12, v2
	xor	a4, a13, a4	# v2, _11, _12
	s32i.n	a10, sp, 40	# %sfp,
	l32i.n	a11, sp, 28	# %sfp,
	xor	a10, a4, a14	# a13, v2, a13
	xor	a14, a9, a8	# tmp157, tmp145,
.LVL111:
	.loc 1 359 9 is_stmt 0 discriminator 3 view .LVU352
	l32i.n	a8, sp, 36	# %sfp,
	xor	a2, a5, a2	# a22, v1, a22
.LVL112:
	.loc 1 359 9 discriminator 3 view .LVU353
	xor	a15, a4, a15	# a23, v2, a23
.LVL113:
	.loc 1 359 9 discriminator 3 view .LVU354
	ssai	21	#
	src	a13, a2, a2	# a22, a22
	ssai	21	#
	src	a15, a15, a15	# a23, a23
	xor	a2, a6, a11	# a20, v1,
	xor	a11, a9, a8	# tmp164, tmp145,
	and	a11, a11, a15	#, tmp164, a23
	l32i.n	a8, sp, 40	# %sfp,
	xor	a12, a6, a12	#, v1, a10
.LVL114:
	.loc 1 359 9 discriminator 3 view .LVU355
	s32i.n	a11, sp, 44	# %sfp,
	xor	a3, a7, a3	# a21, v2, a21
.LVL115:
	.loc 1 359 9 discriminator 3 view .LVU356
	l32i.n	a11, sp, 0	# %sfp,
	ssai	21	#
	src	a3, a3, a3	# a21, a21
	ssai	21	#
	src	a2, a2, a2	# a20, a20
	s32i.n	a12, sp, 16	# %sfp,
.LVL116:
	.loc 1 359 9 is_stmt 1 discriminator 3 view .LVU357
	.loc 1 359 9 discriminator 3 view .LVU358
	.loc 1 359 9 discriminator 3 view .LVU359
	.loc 1 359 9 discriminator 3 view .LVU360
	.loc 1 359 9 discriminator 3 view .LVU361
	.loc 1 359 9 discriminator 3 view .LVU362
	.loc 1 359 9 discriminator 3 view .LVU363
	.loc 1 359 9 discriminator 3 view .LVU364
	.loc 1 359 9 discriminator 3 view .LVU365
	.loc 1 359 9 discriminator 3 view .LVU366
	.loc 1 359 9 discriminator 3 view .LVU367
	.loc 1 359 9 discriminator 3 view .LVU368
	.loc 1 359 9 discriminator 3 view .LVU369
	.loc 1 359 9 discriminator 3 view .LVU370
	.loc 1 359 9 discriminator 3 view .LVU371
	.loc 1 359 9 discriminator 3 view .LVU372
	.loc 1 359 9 discriminator 3 view .LVU373
	.loc 1 359 9 discriminator 3 view .LVU374
	.loc 1 359 9 discriminator 3 view .LVU375
	.loc 1 359 9 discriminator 3 view .LVU376
	.loc 1 359 9 discriminator 3 view .LVU377
	.loc 1 359 9 discriminator 3 view .LVU378
	.loc 1 359 9 discriminator 3 view .LVU379
	.loc 1 359 9 discriminator 3 view .LVU380
	.loc 1 359 9 discriminator 3 view .LVU381
	.loc 1 359 9 discriminator 3 view .LVU382
	.loc 1 359 9 discriminator 3 view .LVU383
	xor	a6, a6, a8	# tmp142, v1,
.LVL117:
	.loc 1 359 9 is_stmt 0 discriminator 3 view .LVU384
	xor	a12, a9, a12	# tmp150, tmp145,
.LVL118:
	.loc 1 359 9 discriminator 3 view .LVU385
	xor	a8, a9, a10	#, tmp145, a13
	xor	a6, a6, a11	# a00, tmp142,
.LVL119:
	.loc 1 359 9 is_stmt 1 discriminator 3 view .LVU386
	.loc 1 359 9 discriminator 3 view .LVU387
	and	a12, a12, a3	# tmp152, tmp150, a21
	and	a14, a14, a13	# tmp159, tmp157, a22
	and	a8, a8, a2	# tmp146,, a20
	xor	a12, a12, a7	# tmp153, tmp152, v2
	xor	a14, a14, a5	# tmp160, tmp159, v1
	xor	a8, a8, a6	#, tmp146, a00
	l32i.n	a5, sp, 44	# %sfp,
.LVL120:
	.loc 1 359 9 is_stmt 0 discriminator 3 view .LVU388
	l32i.n	a6, sp, 4	# %sfp,
.LVL121:
	.loc 1 359 9 discriminator 3 view .LVU389
	l32i.n	a7, sp, 8	# %sfp,
.LVL122:
	.loc 1 359 9 discriminator 3 view .LVU390
	s32i.n	a8, sp, 0	# %sfp,
.LVL123:
	.loc 1 359 9 is_stmt 1 discriminator 3 view .LVU391
	l32i.n	a8, sp, 12	# %sfp,
.LVL124:
	.loc 1 359 9 is_stmt 0 discriminator 3 view .LVU392
	xor	a4, a5, a4	# tmp167,, v2
.LVL125:
	.loc 1 359 9 discriminator 3 view .LVU393
	xor	a6, a6, a12	#,, tmp153
	xor	a7, a7, a14	#,, tmp160
	s32i.n	a6, sp, 4	# %sfp,
	.loc 1 359 9 discriminator 3 view .LVU394
	s32i.n	a7, sp, 8	# %sfp,
	.loc 1 359 9 discriminator 3 view .LVU395
	xor	a8, a8, a4	#,, tmp167
	l32i.n	a7, sp, 4	# %sfp,
	s32i.n	a8, sp, 12	# %sfp,
	.loc 1 359 9 discriminator 3 view .LVU396
	l32i.n	a14, sp, 0	# %sfp,
	l32i.n	a8, sp, 8	# %sfp,
	xor	a6, a9, a2	# tmp147, tmp145, a20
	xor	a11, a9, a3	# tmp154, tmp145, a21
	xor	a5, a9, a13	# tmp161, tmp145, a22
	and	a5, a5, a8	# tmp163, tmp161,
	and	a6, a6, a14	# tmp149, tmp147,
	and	a11, a11, a7	# tmp156, tmp154,
	l32i.n	a14, sp, 12	# %sfp,
	l32i.n	a7, sp, 16	# %sfp,
	l32i.n	a8, sp, 20	# %sfp,
	xor	a4, a9, a15	# tmp168, tmp145, a23
	xor	a6, a6, a10	# a10, tmp149, a13
.LVL126:
	.loc 1 359 9 is_stmt 1 discriminator 3 view .LVU397
	.loc 1 359 9 discriminator 3 view .LVU398
	.loc 1 359 9 discriminator 3 view .LVU399
	xor	a11, a11, a7	# a11, tmp156,
.LVL127:
	.loc 1 359 9 discriminator 3 view .LVU400
	.loc 1 359 9 discriminator 3 view .LVU401
	.loc 1 359 9 discriminator 3 view .LVU402
	xor	a10, a5, a8	# a12, tmp163,
.LVL128:
	.loc 1 359 9 discriminator 3 view .LVU403
	.loc 1 359 9 discriminator 3 view .LVU404
	.loc 1 359 9 discriminator 3 view .LVU405
	and	a4, a4, a14	# tmp170, tmp168,
	l32i.n	a7, sp, 12	# %sfp,
	l32i.n	a14, sp, 36	# %sfp,
.LVL129:
	.loc 1 359 9 is_stmt 0 discriminator 3 view .LVU406
	l32i.n	a8, sp, 4	# %sfp,
	xor	a4, a4, a14	# a13, tmp170,
.LVL130:
	.loc 1 359 9 is_stmt 1 discriminator 3 view .LVU407
	.loc 1 359 9 discriminator 3 view .LVU408
	.loc 1 359 9 discriminator 3 view .LVU409
	xor	a5, a9, a7	# tmp171, tmp145,
	xor	a12, a9, a8	# tmp175, tmp145,
	and	a12, a12, a11	# tmp177, tmp175, a11
	l32i.n	a14, sp, 8	# %sfp,
	and	a5, a5, a4	# tmp173, tmp171, a13
	xor	a5, a5, a15	# a23, tmp173, a23
	xor	a15, a12, a3	# a21, tmp177, a21
.LVL131:
	.loc 1 359 9 is_stmt 0 discriminator 3 view .LVU410
	l32i.n	a3, sp, 24	# %sfp,
.LVL132:
	.loc 1 359 9 discriminator 3 view .LVU411
	xor	a8, a9, a14	# tmp179, tmp145,
	l32i.n	a14, sp, 0	# %sfp,
	and	a8, a8, a10	# tmp181, tmp179, a12
	addi.n	a3, a3, 4	#,,
	xor	a7, a9, a14	# tmp183, tmp145,
.LVL133:
	.loc 1 359 9 discriminator 3 view .LVU412
	s32i.n	a3, sp, 24	# %sfp,
	xor	a13, a8, a13	# a22, tmp181, a22
.LVL134:
	.loc 1 359 9 discriminator 3 view .LVU413
	and	a7, a7, a6	# tmp185, tmp183, a10
	ssai	31	#
	src	a14, a4, a4	# a13, a13
	ssai	24	#
	src	a3, a5, a5	# a21, a23
	ssai	24	#
	src	a13, a13, a13	#, a22
# /storage/projects/XKCP/lib/low/Xoodoo/plain/Xoodoo-plain.c:358:     for (i = MAXROUNDS - nr; i < MAXROUNDS; ++i ) {
	.loc 1 358 5 discriminator 3 view .LVU414
	l32r	a4, .LC1	#,
.LVL135:
	.loc 1 358 5 discriminator 3 view .LVU415
	l32i.n	a5, sp, 24	# %sfp,
# /storage/projects/XKCP/lib/low/Xoodoo/plain/Xoodoo-plain.c:359:         Round(RC[i]);
	.loc 1 359 9 discriminator 3 view .LVU416
	xor	a2, a7, a2	# a20, tmp185, a20
.LVL136:
	.loc 1 359 9 discriminator 3 view .LVU417
	s32i.n	a13, sp, 28	# %sfp,
	ssai	31	#
	src	a12, a6, a6	# a10, a10
.LVL137:
	.loc 1 359 9 is_stmt 1 discriminator 3 view .LVU418
	ssai	31	#
	src	a11, a11, a11	# a11, a11
.LVL138:
	.loc 1 359 9 discriminator 3 view .LVU419
	ssai	31	#
	src	a10, a10, a10	# a12, a12
.LVL139:
	.loc 1 359 9 discriminator 3 view .LVU420
	.loc 1 359 9 discriminator 3 view .LVU421
	.loc 1 359 9 discriminator 3 view .LVU422
	ssai	24	#
	src	a15, a15, a15	# a23, a21
.LVL140:
	.loc 1 359 9 discriminator 3 view .LVU423
	.loc 1 359 9 discriminator 3 view .LVU424
	.loc 1 359 9 discriminator 3 view .LVU425
	ssai	24	#
	src	a2, a2, a2	# a22, a20
.LVL141:
	.loc 1 359 9 discriminator 3 view .LVU426
	.loc 1 359 21 discriminator 3 view .LVU427
	.loc 1 360 23 discriminator 3 view .LVU428
	.loc 1 358 45 discriminator 3 view .LVU429
	.loc 1 358 30 discriminator 3 view .LVU430
# /storage/projects/XKCP/lib/low/Xoodoo/plain/Xoodoo-plain.c:358:     for (i = MAXROUNDS - nr; i < MAXROUNDS; ++i ) {
	.loc 1 358 5 is_stmt 0 discriminator 3 view .LVU431
	bne	a4, a5, .L60	#,,
	mov.n	a13, a14	# a13, a13
.LVL142:
	.loc 1 358 5 discriminator 3 view .LVU432
	l32i.n	a14, sp, 28	# %sfp, a20
.LVL143:
.L59:
	.loc 1 362 25 is_stmt 1 view .LVU433
	.loc 1 363 5 view .LVU434
	l32i.n	a6, sp, 32	# %sfp,
	l32i.n	a7, sp, 0	# %sfp,
	l32i.n	a8, sp, 4	# %sfp,
	l32i.n	a4, sp, 8	# %sfp,
	l32i.n	a5, sp, 12	# %sfp,
	s32i.n	a12, a6, 16	# *state_52(D), a10
	s32i.n	a13, a6, 28	# *state_52(D), a13
	s32i.n	a14, a6, 32	# *state_52(D), a20
	s32i.n	a15, a6, 44	# *state_52(D), a23
# /storage/projects/XKCP/lib/low/Xoodoo/plain/Xoodoo-plain.c:364: }
	.loc 1 364 1 is_stmt 0 view .LVU435
	l32i.n	a12, sp, 60	#,
.LVL144:
	.loc 1 364 1 view .LVU436
	l32i.n	a13, sp, 56	#,
.LVL145:
	.loc 1 364 1 view .LVU437
	l32i.n	a14, sp, 52	#,
.LVL146:
	.loc 1 364 1 view .LVU438
	l32i.n	a15, sp, 48	#,
.LVL147:
# /storage/projects/XKCP/lib/low/Xoodoo/plain/Xoodoo-plain.c:363:     Vars2State;
	.loc 1 363 5 view .LVU439
	s32i.n	a7, a6, 0	# *state_52(D),
	s32i.n	a8, a6, 4	# *state_52(D),
	s32i.n	a4, a6, 8	# *state_52(D),
	s32i.n	a5, a6, 12	# *state_52(D),
	.loc 1 363 5 is_stmt 1 view .LVU440
	.loc 1 363 5 view .LVU441
	s32i.n	a11, a6, 20	# *state_52(D), a11
	s32i.n	a10, a6, 24	# *state_52(D), a12
	s32i.n	a3, a6, 36	# *state_52(D), a21
	s32i.n	a2, a6, 40	# *state_52(D), a22
# /storage/projects/XKCP/lib/low/Xoodoo/plain/Xoodoo-plain.c:364: }
	.loc 1 364 1 is_stmt 0 view .LVU442
	addi	sp, sp, 64	#,,
.LVL148:
	.loc 1 364 1 view .LVU443
	ret.n	
.LFE9:
	.size	Xoodoo_plain_Permute_Nrounds, .-Xoodoo_plain_Permute_Nrounds
	.literal_position
	.align	4
	.global	Xoodoo_plain_Permute_6rounds
	.type	Xoodoo_plain_Permute_6rounds, @function
Xoodoo_plain_Permute_6rounds:
.LVL149:
.LFB10:
	.loc 1 367 1 is_stmt 1 view -0
	.loc 1 368 5 view .LVU445
	.loc 1 368 5 view .LVU446
	.loc 1 368 5 view .LVU447
	.loc 1 368 5 view .LVU448
	.loc 1 370 5 view .LVU449
# /storage/projects/XKCP/lib/low/Xoodoo/plain/Xoodoo-plain.c:367: {
	.loc 1 367 1 is_stmt 0 view .LVU450
	addi	sp, sp, -80	#,,
.LCFI13:
	s32i.n	a2, sp, 12	# %sfp, state
# /storage/projects/XKCP/lib/low/Xoodoo/plain/Xoodoo-plain.c:370:     State2Vars;
	.loc 1 370 5 view .LVU451
	l32i.n	a5, sp, 12	# %sfp,
	l32i.n	a3, sp, 12	# %sfp,
	l32i.n	a6, a5, 0	# *state_218(D),
	l32i.n	a4, sp, 12	# %sfp,
	l32i.n	a8, sp, 12	# %sfp,
# /storage/projects/XKCP/lib/low/Xoodoo/plain/Xoodoo-plain.c:367: {
	.loc 1 367 1 view .LVU452
	s32i	a13, sp, 72	#,
# /storage/projects/XKCP/lib/low/Xoodoo/plain/Xoodoo-plain.c:370:     State2Vars;
	.loc 1 370 5 view .LVU453
	l32i.n	a7, a5, 4	# *state_218(D),
.LCFI14:
	l32i.n	a13, a5, 28	# *state_218(D), a13
	l32i.n	a3, a3, 12	# *state_218(D),
	l32i.n	a2, a2, 8	# *state_218(D),
.LVL150:
	.loc 1 370 5 view .LVU454
	l32i.n	a4, a4, 24	# *state_218(D),
.LVL151:
	.loc 1 370 5 view .LVU455
	s32i.n	a6, sp, 40	# %sfp,
.LVL152:
	.loc 1 370 5 view .LVU456
	l32i.n	a8, a8, 44	# *state_218(D),
# /storage/projects/XKCP/lib/low/Xoodoo/plain/Xoodoo-plain.c:367: {
	.loc 1 367 1 view .LVU457
	s32i	a14, sp, 68	#,
# /storage/projects/XKCP/lib/low/Xoodoo/plain/Xoodoo-plain.c:370:     State2Vars;
	.loc 1 370 5 view .LVU458
	l32i.n	a9, sp, 12	# %sfp,
	s32i.n	a7, sp, 44	# %sfp,
.LVL153:
	.loc 1 370 5 is_stmt 1 view .LVU459
	l32i.n	a11, a5, 16	# *state_218(D), a10
.LVL154:
	.loc 1 370 5 is_stmt 0 view .LVU460
	l32i.n	a10, a5, 20	# *state_218(D), a11
.LVL155:
	.loc 1 370 5 is_stmt 1 view .LVU461
.LCFI15:
# /storage/projects/XKCP/lib/low/Xoodoo/plain/Xoodoo-plain.c:371:     Round(_rc6);
	.loc 1 371 5 is_stmt 0 view .LVU462
	l32i.n	a14, sp, 40	# %sfp,
# /storage/projects/XKCP/lib/low/Xoodoo/plain/Xoodoo-plain.c:370:     State2Vars;
	.loc 1 370 5 view .LVU463
	s32i.n	a3, sp, 52	# %sfp,
.LVL156:
	.loc 1 370 5 view .LVU464
	l32i.n	a5, a5, 40	# *state_218(D), a22
.LVL157:
# /storage/projects/XKCP/lib/low/Xoodoo/plain/Xoodoo-plain.c:371:     Round(_rc6);
	.loc 1 371 5 view .LVU465
	xor	a3, a3, a13	# tmp541,, a13
# /storage/projects/XKCP/lib/low/Xoodoo/plain/Xoodoo-plain.c:370:     State2Vars;
	.loc 1 370 5 view .LVU466
	s32i.n	a2, sp, 48	# %sfp,
.LVL158:
# /storage/projects/XKCP/lib/low/Xoodoo/plain/Xoodoo-plain.c:371:     Round(_rc6);
	.loc 1 371 5 view .LVU467
	xor	a7, a2, a4	# tmp544,,
.LVL159:
	.loc 1 371 5 view .LVU468
	xor	a3, a3, a8	# v1, tmp541,
	l32i.n	a2, sp, 44	# %sfp,
# /storage/projects/XKCP/lib/low/Xoodoo/plain/Xoodoo-plain.c:367: {
	.loc 1 367 1 view .LVU469
	s32i	a12, sp, 76	#,
# /storage/projects/XKCP/lib/low/Xoodoo/plain/Xoodoo-plain.c:370:     State2Vars;
	.loc 1 370 5 view .LVU470
	l32i.n	a6, a9, 36	# *state_218(D), a21
.LVL160:
.LCFI16:
	.loc 1 370 5 view .LVU471
	l32i.n	a12, a9, 32	# *state_218(D), a20
.LVL161:
	.loc 1 371 5 is_stmt 1 view .LVU472
	.loc 1 371 5 view .LVU473
	xor	a7, a7, a5	# v2, tmp544, a22
	xor	a9, a14, a11	# tmp542,, a10
.LVL162:
	.loc 1 371 5 is_stmt 0 view .LVU474
	ssai	27	#
	src	a14, a3, a3	# _3, v1
.LVL163:
	.loc 1 371 5 view .LVU475
	ssai	18	#
	src	a3, a3, a3	# _4, v1
.LVL164:
	.loc 1 371 5 view .LVU476
	xor	a3, a14, a3	# v1, _3, _4
# /storage/projects/XKCP/lib/low/Xoodoo/plain/Xoodoo-plain.c:370:     State2Vars;
	.loc 1 370 5 view .LVU477
	s32i.n	a4, sp, 56	# %sfp,
.LVL165:
	.loc 1 370 5 view .LVU478
	s32i.n	a8, sp, 60	# %sfp,
.LVL166:
# /storage/projects/XKCP/lib/low/Xoodoo/plain/Xoodoo-plain.c:371:     Round(_rc6);
	.loc 1 371 5 view .LVU479
	ssai	27	#
	src	a4, a7, a7	# _11, v2
	xor	a8, a2, a10	# tmp543,, a11
.LVL167:
	.loc 1 371 5 view .LVU480
	ssai	18	#
	src	a2, a7, a7	# _12, v2
.LVL168:
	.loc 1 371 5 view .LVU481
	xor	a7, a4, a2	# v2, _11, _12
	xor	a8, a8, a6	# v1, tmp543, a21
	xor	a9, a9, a12	# v2, tmp542, a20
.LVL169:
	.loc 1 371 5 is_stmt 1 view .LVU482
	.loc 1 371 5 view .LVU483
	.loc 1 371 5 view .LVU484
	xor	a12, a12, a3	# a20, a20, v1
.LVL170:
	.loc 1 371 5 is_stmt 0 view .LVU485
	xor	a13, a13, a7	#, a13, v2
.LVL171:
	.loc 1 371 5 view .LVU486
	ssai	27	#
	src	a14, a8, a8	# _9, v1
	ssai	18	#
	src	a4, a8, a8	# _10, v1
	ssai	21	#
	src	a12, a12, a12	#, a20
# /storage/projects/XKCP/lib/low/Xoodoo/plain/Xoodoo-plain.c:367: {
	.loc 1 367 1 view .LVU487
	s32i	a15, sp, 64	#,
.LCFI17:
# /storage/projects/XKCP/lib/low/Xoodoo/plain/Xoodoo-plain.c:371:     Round(_rc6);
	.loc 1 371 5 view .LVU488
	xor	a8, a14, a4	# v1, _9, _10
	s32i.n	a13, sp, 32	# %sfp,
	s32i.n	a12, sp, 20	# %sfp,
	l32i.n	a4, sp, 56	# %sfp,
	l32i.n	a12, sp, 60	# %sfp,
	movi.n	a2, -1	# tmp546,
	ssai	27	#
	src	a15, a9, a9	# _6, v2
	ssai	18	#
	src	a9, a9, a9	# _7, v2
.LVL172:
	.loc 1 371 5 view .LVU489
	xor	a9, a15, a9	# v2, _6, _7
	xor	a14, a2, a13	# tmp545, tmp546,
	xor	a15, a4, a8	# a12,, v1
	l32i.n	a13, sp, 20	# %sfp,
	xor	a4, a12, a7	# a23,, v2
	l32i.n	a12, sp, 40	# %sfp,
	xor	a11, a11, a3	# a10, a10, v1
.LVL173:
	.loc 1 371 5 is_stmt 1 view .LVU490
	.loc 1 371 5 view .LVU491
	.loc 1 371 5 view .LVU492
	.loc 1 371 5 view .LVU493
	and	a14, a14, a13	# tmp547, tmp545,
	xor	a3, a12, a3	# tmp548,, v1
.LVL174:
	.loc 1 371 5 is_stmt 0 view .LVU494
	xor	a3, a14, a3	# _524, tmp547, tmp548
.LVL175:
	.loc 1 371 5 view .LVU495
	l32i.n	a14, sp, 44	# %sfp,
	xor	a10, a10, a9	# a11, a11, v2
.LVL176:
	.loc 1 371 5 view .LVU496
	xor	a6, a6, a9	# a21, a21, v2
.LVL177:
	.loc 1 371 5 view .LVU497
	xor	a5, a5, a8	# a22, a22, v1
.LVL178:
	.loc 1 371 5 view .LVU498
	xor	a9, a14, a9	# a01,, v2
.LVL179:
	.loc 1 371 5 view .LVU499
	l32i.n	a14, sp, 48	# %sfp,
	ssai	21	#
	src	a5, a5, a5	# a22, a22
	ssai	21	#
	src	a6, a6, a6	# a21, a21
	xor	a13, a2, a11	# tmp553, tmp546, a10
	xor	a12, a2, a10	# tmp559, tmp546, a11
.LVL180:
	.loc 1 371 5 is_stmt 1 view .LVU500
	.loc 1 371 5 view .LVU501
	.loc 1 371 5 view .LVU502
	.loc 1 371 5 view .LVU503
	.loc 1 371 5 view .LVU504
	xor	a8, a14, a8	# a02,, v1
.LVL181:
	.loc 1 371 5 view .LVU505
	.loc 1 371 5 view .LVU506
	.loc 1 371 5 view .LVU507
	.loc 1 371 5 view .LVU508
	and	a13, a13, a6	# tmp555, tmp553, a21
	and	a12, a12, a5	# tmp561, tmp559, a22
	xor	a13, a13, a9	#, tmp555, a01
	xor	a12, a12, a8	#, tmp561, a02
	l32i.n	a9, sp, 52	# %sfp,
.LVL182:
	.loc 1 371 5 is_stmt 0 view .LVU509
	movi	a8, 0x60	# tmp549,
.LVL183:
	.loc 1 371 5 view .LVU510
	ssai	21	#
	src	a4, a4, a4	# a23, a23
	xor	a14, a2, a15	# tmp565, tmp546, a12
.LVL184:
	.loc 1 371 5 view .LVU511
	xor	a8, a3, a8	#, _524, tmp549
	s32i.n	a8, sp, 24	# %sfp,
	and	a14, a14, a4	# tmp567, tmp565, a23
	xor	a8, a9, a7	# a03,, v2
.LVL185:
	.loc 1 371 5 is_stmt 1 view .LVU512
	.loc 1 371 5 view .LVU513
	.loc 1 371 5 view .LVU514
	.loc 1 371 5 view .LVU515
	.loc 1 371 5 view .LVU516
	.loc 1 371 5 view .LVU517
	.loc 1 371 5 view .LVU518
	.loc 1 371 5 view .LVU519
	.loc 1 371 5 view .LVU520
	.loc 1 371 5 view .LVU521
	.loc 1 371 5 view .LVU522
	.loc 1 371 5 view .LVU523
	.loc 1 371 5 view .LVU524
	.loc 1 371 5 view .LVU525
	.loc 1 371 5 view .LVU526
	.loc 1 371 5 view .LVU527
	.loc 1 371 5 view .LVU528
	s32i.n	a12, sp, 4	# %sfp,
	xor	a14, a14, a8	#, tmp567, a03
	l32i.n	a12, sp, 20	# %sfp,
	s32i.n	a14, sp, 8	# %sfp,
	l32i.n	a14, sp, 24	# %sfp,
	xor	a7, a2, a12	# tmp550, tmp546,
.LVL186:
	.loc 1 371 5 is_stmt 0 view .LVU529
	l32i.n	a12, sp, 4	# %sfp,
	s32i.n	a13, sp, 0	# %sfp,
	and	a7, a7, a14	# tmp552, tmp550,
	xor	a13, a2, a5	# tmp562, tmp546, a22
	l32i.n	a14, sp, 32	# %sfp,
	l32i.n	a8, sp, 0	# %sfp,
.LVL187:
	.loc 1 371 5 view .LVU530
	and	a13, a13, a12	# tmp564, tmp562,
	xor	a7, a7, a14	# a10, tmp552,
.LVL188:
	.loc 1 371 5 is_stmt 1 view .LVU531
	.loc 1 371 5 view .LVU532
	.loc 1 371 5 view .LVU533
	l32i.n	a12, sp, 0	# %sfp,
	l32i.n	a14, sp, 4	# %sfp,
	xor	a9, a2, a6	# tmp556, tmp546, a21
	xor	a13, a13, a10	# a12, tmp564, a11
	l32i.n	a10, sp, 8	# %sfp,
.LVL189:
	.loc 1 371 5 is_stmt 0 view .LVU534
	and	a9, a9, a8	# tmp558, tmp556,
	xor	a8, a2, a4	# tmp568, tmp546, a23
.LVL190:
	.loc 1 371 5 view .LVU535
	xor	a11, a9, a11	# a11, tmp558, a10
.LVL191:
	.loc 1 371 5 is_stmt 1 view .LVU536
	.loc 1 371 5 view .LVU537
	.loc 1 371 5 view .LVU538
	.loc 1 371 5 view .LVU539
	.loc 1 371 5 view .LVU540
	.loc 1 371 5 view .LVU541
	and	a9, a8, a10	# tmp570, tmp568,
	xor	a8, a2, a12	# tmp575, tmp546,
	xor	a10, a2, a14	# tmp579, tmp546,
.LVL192:
	.loc 1 371 5 is_stmt 0 view .LVU542
	l32i.n	a12, sp, 8	# %sfp,
.LVL193:
	.loc 1 371 5 view .LVU543
	movi	a14, -0x61	# tmp583,
.LVL194:
	.loc 1 371 5 view .LVU544
	and	a10, a10, a13	# tmp581, tmp579, a12
	ssai	31	#
	src	a13, a13, a13	#, a12
.LVL195:
	.loc 1 371 5 view .LVU545
	s32i.n	a13, sp, 16	# %sfp,
	xor	a15, a9, a15	# a13, tmp570, a12
.LVL196:
	.loc 1 371 5 is_stmt 1 view .LVU546
	.loc 1 371 5 view .LVU547
	.loc 1 371 5 view .LVU548
	l32i.n	a13, sp, 20	# %sfp,
	xor	a9, a2, a12	# tmp571, tmp546,
	and	a8, a8, a11	# tmp577, tmp575, a11
	xor	a3, a3, a14	# tmp584, _524, tmp583
.LVL197:
# /storage/projects/XKCP/lib/low/Xoodoo/plain/Xoodoo-plain.c:372:     Round(_rc5);
	.loc 1 372 5 is_stmt 0 view .LVU549
	l32i.n	a14, sp, 8	# %sfp,
# /storage/projects/XKCP/lib/low/Xoodoo/plain/Xoodoo-plain.c:371:     Round(_rc6);
	.loc 1 371 5 view .LVU550
	ssai	31	#
	src	a12, a15, a15	# a13, a13
	and	a3, a3, a7	# tmp585, tmp584, a10
.LVL198:
	.loc 1 371 5 view .LVU551
	and	a15, a9, a15	# tmp573, tmp571, a13
.LVL199:
	.loc 1 371 5 view .LVU552
	xor	a6, a8, a6	# a21, tmp577, a21
.LVL200:
# /storage/projects/XKCP/lib/low/Xoodoo/plain/Xoodoo-plain.c:372:     Round(_rc5);
	.loc 1 372 5 view .LVU553
	l32i.n	a9, sp, 16	# %sfp,
	l32i.n	a8, sp, 4	# %sfp,
# /storage/projects/XKCP/lib/low/Xoodoo/plain/Xoodoo-plain.c:371:     Round(_rc6);
	.loc 1 371 5 view .LVU554
	xor	a3, a3, a13	# a20, tmp585,
.LVL201:
	.loc 1 371 5 view .LVU555
	ssai	24	#
	src	a6, a6, a6	# a23, a21
# /storage/projects/XKCP/lib/low/Xoodoo/plain/Xoodoo-plain.c:372:     Round(_rc5);
	.loc 1 372 5 view .LVU556
	l32i.n	a13, sp, 0	# %sfp,
# /storage/projects/XKCP/lib/low/Xoodoo/plain/Xoodoo-plain.c:371:     Round(_rc6);
	.loc 1 371 5 view .LVU557
	xor	a4, a15, a4	# a23, tmp573, a23
.LVL202:
# /storage/projects/XKCP/lib/low/Xoodoo/plain/Xoodoo-plain.c:372:     Round(_rc5);
	.loc 1 372 5 view .LVU558
	xor	a15, a14, a12	# tmp587,, a13
	xor	a15, a15, a6	# v1, tmp587, a23
# /storage/projects/XKCP/lib/low/Xoodoo/plain/Xoodoo-plain.c:371:     Round(_rc6);
	.loc 1 371 5 view .LVU559
	ssai	31	#
	src	a11, a11, a11	# a11, a11
.LVL203:
	.loc 1 371 5 view .LVU560
	xor	a10, a10, a5	# a22, tmp581, a22
	ssai	31	#
	src	a5, a7, a7	# a10, a10
.LVL204:
	.loc 1 371 5 is_stmt 1 view .LVU561
	.loc 1 371 5 view .LVU562
	.loc 1 371 5 view .LVU563
	.loc 1 371 5 view .LVU564
# /storage/projects/XKCP/lib/low/Xoodoo/plain/Xoodoo-plain.c:372:     Round(_rc5);
	.loc 1 372 5 is_stmt 0 view .LVU565
	xor	a7, a8, a9	# tmp590,,
	xor	a8, a13, a11	# tmp589,, a11
	ssai	27	#
	src	a13, a15, a15	# _39, v1
	ssai	18	#
	src	a15, a15, a15	# _40, v1
	l32i.n	a14, sp, 24	# %sfp,
	xor	a15, a13, a15	# v1, _39, _40
# /storage/projects/XKCP/lib/low/Xoodoo/plain/Xoodoo-plain.c:371:     Round(_rc6);
	.loc 1 371 5 view .LVU566
	ssai	24	#
	src	a10, a10, a10	# v1, a22
	ssai	24	#
	src	a3, a3, a3	# a22, a20
.LVL205:
# /storage/projects/XKCP/lib/low/Xoodoo/plain/Xoodoo-plain.c:372:     Round(_rc5);
	.loc 1 372 5 view .LVU567
	xor	a7, a7, a3	# v2, tmp590, a22
	xor	a9, a5, a10	# tmp588, a10, v1
.LVL206:
# /storage/projects/XKCP/lib/low/Xoodoo/plain/Xoodoo-plain.c:371:     Round(_rc6);
	.loc 1 371 5 view .LVU568
	ssai	24	#
	src	a4, a4, a4	# v1, a23
.LVL207:
	.loc 1 371 5 is_stmt 1 view .LVU569
	.loc 1 371 5 view .LVU570
	.loc 1 371 5 view .LVU571
	.loc 1 371 5 view .LVU572
	.loc 1 371 5 view .LVU573
	.loc 1 371 16 view .LVU574
	.loc 1 372 5 view .LVU575
	.loc 1 372 5 view .LVU576
	xor	a10, a10, a15	# a20, v1, v1
.LVL208:
	.loc 1 372 5 is_stmt 0 view .LVU577
	xor	a9, a9, a14	# v2, tmp588,
.LVL209:
	.loc 1 372 5 is_stmt 1 view .LVU578
	xor	a8, a8, a4	# v1, tmp589, v1
	ssai	27	#
	src	a14, a7, a7	# _47, v2
.LVL210:
	.loc 1 372 5 view .LVU579
	.loc 1 372 5 view .LVU580
	ssai	21	#
	src	a10, a10, a10	#, a20
	ssai	18	#
	src	a7, a7, a7	# _48, v2
	xor	a7, a14, a7	# v2, _47, _48
	s32i.n	a10, sp, 20	# %sfp,
	ssai	27	#
	src	a14, a8, a8	# _45, v1
	l32i.n	a10, sp, 16	# %sfp,
	ssai	18	#
	src	a8, a8, a8	# _46, v1
	xor	a8, a14, a8	# v1, _45, _46
	ssai	27	#
	src	a13, a9, a9	# _42, v2
	ssai	18	#
	src	a9, a9, a9	# _43, v2
.LVL211:
	.loc 1 372 5 is_stmt 0 view .LVU581
	xor	a9, a13, a9	# v2, _42, _43
	l32i.n	a14, sp, 20	# %sfp,
	xor	a13, a10, a8	# a12,, v1
	xor	a12, a12, a7	#, a13, v2
.LVL212:
	.loc 1 372 5 view .LVU582
	l32i.n	a10, sp, 24	# %sfp,
	s32i.n	a12, sp, 28	# %sfp,
	xor	a12, a2, a12	# tmp591, tmp546,
	xor	a5, a5, a15	# a10, a10, v1
.LVL213:
	.loc 1 372 5 is_stmt 1 view .LVU583
	.loc 1 372 5 view .LVU584
	.loc 1 372 5 view .LVU585
	.loc 1 372 5 view .LVU586
	and	a12, a12, a14	# tmp593, tmp591,
	xor	a15, a10, a15	# tmp594,, v1
.LVL214:
	.loc 1 372 5 is_stmt 0 view .LVU587
	xor	a15, a12, a15	# _522, tmp593, tmp594
.LVL215:
	.loc 1 372 5 view .LVU588
	l32i.n	a12, sp, 0	# %sfp,
	xor	a11, a11, a9	# a11, a11, v2
.LVL216:
	.loc 1 372 5 view .LVU589
	xor	a4, a4, a9	# a21, v1, v2
.LVL217:
	.loc 1 372 5 view .LVU590
	xor	a3, a3, a8	# a22, a22, v1
.LVL218:
	.loc 1 372 5 view .LVU591
	xor	a9, a12, a9	# a01,, v2
.LVL219:
	.loc 1 372 5 view .LVU592
	l32i.n	a12, sp, 4	# %sfp,
	ssai	21	#
	src	a3, a3, a3	# a22, a22
	xor	a14, a2, a11	# tmp605, tmp546, a11
	xor	a8, a12, a8	# a02,, v1
	and	a14, a14, a3	# tmp607, tmp605, a22
	xor	a14, a14, a8	#, tmp607, a02
	s32i.n	a14, sp, 4	# %sfp,
.LVL220:
	.loc 1 372 5 view .LVU593
	ssai	21	#
	src	a4, a4, a4	# a21, a21
	l32i.n	a14, sp, 8	# %sfp,
	xor	a10, a2, a5	# tmp599, tmp546, a10
	xor	a6, a6, a7	# a23, a23, v2
.LVL221:
	.loc 1 372 5 is_stmt 1 view .LVU594
	.loc 1 372 5 view .LVU595
	.loc 1 372 5 view .LVU596
	.loc 1 372 5 view .LVU597
	.loc 1 372 5 view .LVU598
	.loc 1 372 5 view .LVU599
	.loc 1 372 5 view .LVU600
	.loc 1 372 5 view .LVU601
	.loc 1 372 5 view .LVU602
	ssai	21	#
	src	a6, a6, a6	# a23, a23
	xor	a12, a2, a13	# tmp611, tmp546, a12
	.loc 1 372 5 is_stmt 0 view .LVU603
	and	a10, a10, a4	# tmp601, tmp599, a21
	movi.n	a8, 0x2c	# tmp595,
.LVL222:
	.loc 1 372 5 view .LVU604
	xor	a10, a10, a9	#, tmp601, a01
	xor	a8, a15, a8	#, _522, tmp595
	xor	a7, a14, a7	# a03,, v2
.LVL223:
	.loc 1 372 5 is_stmt 1 view .LVU605
	.loc 1 372 5 view .LVU606
	.loc 1 372 5 view .LVU607
	.loc 1 372 5 view .LVU608
	.loc 1 372 5 view .LVU609
	.loc 1 372 5 view .LVU610
	.loc 1 372 5 view .LVU611
	.loc 1 372 5 view .LVU612
	.loc 1 372 5 view .LVU613
	.loc 1 372 5 view .LVU614
	.loc 1 372 5 view .LVU615
	.loc 1 372 5 view .LVU616
	.loc 1 372 5 view .LVU617
	.loc 1 372 5 view .LVU618
	.loc 1 372 5 view .LVU619
	.loc 1 372 5 view .LVU620
	.loc 1 372 5 view .LVU621
	and	a12, a12, a6	# tmp613, tmp611, a23
	s32i.n	a10, sp, 0	# %sfp,
	.loc 1 372 5 is_stmt 0 view .LVU622
	s32i.n	a8, sp, 24	# %sfp,
.LVL224:
	.loc 1 372 5 view .LVU623
	l32i.n	a9, sp, 20	# %sfp,
.LVL225:
	.loc 1 372 5 view .LVU624
	xor	a12, a12, a7	#, tmp613, a03
	s32i.n	a12, sp, 8	# %sfp,
	.loc 1 372 5 view .LVU625
	l32i.n	a10, sp, 24	# %sfp,
	l32i.n	a12, sp, 0	# %sfp,
	l32i.n	a7, sp, 4	# %sfp,
.LVL226:
	.loc 1 372 5 view .LVU626
	xor	a8, a2, a9	# tmp596, tmp546,
	xor	a9, a2, a4	# tmp602, tmp546, a21
	xor	a14, a2, a3	# tmp608, tmp546, a22
	.loc 1 372 5 view .LVU627
	and	a9, a9, a12	# tmp604, tmp602,
	and	a8, a8, a10	# tmp598, tmp596,
	l32i.n	a12, sp, 8	# %sfp,
	l32i.n	a10, sp, 28	# %sfp,
	and	a14, a14, a7	# tmp610, tmp608,
	xor	a7, a2, a6	# tmp614, tmp546, a23
	xor	a8, a8, a10	# a10, tmp598,
.LVL227:
	.loc 1 372 5 is_stmt 1 view .LVU628
	.loc 1 372 5 view .LVU629
	.loc 1 372 5 view .LVU630
	xor	a11, a14, a11	# a12, tmp610, a11
.LVL228:
	.loc 1 372 5 is_stmt 0 view .LVU631
	and	a10, a7, a12	# tmp616, tmp614,
	l32i.n	a14, sp, 0	# %sfp,
	l32i.n	a12, sp, 4	# %sfp,
	xor	a5, a9, a5	# a11, tmp604, a10
.LVL229:
	.loc 1 372 5 is_stmt 1 view .LVU632
	.loc 1 372 5 view .LVU633
	.loc 1 372 5 view .LVU634
	.loc 1 372 5 view .LVU635
	.loc 1 372 5 view .LVU636
	.loc 1 372 5 view .LVU637
	xor	a7, a2, a12	# tmp625, tmp546,
	xor	a9, a2, a14	# tmp621, tmp546,
	l32i.n	a14, sp, 8	# %sfp,
	and	a7, a7, a11	# tmp627, tmp625, a12
	movi	a12, -0x2d	# tmp629,
.LVL230:
	.loc 1 372 5 is_stmt 0 view .LVU638
	xor	a13, a10, a13	# a13, tmp616, a12
.LVL231:
	.loc 1 372 5 is_stmt 1 view .LVU639
	.loc 1 372 5 view .LVU640
	.loc 1 372 5 view .LVU641
	and	a9, a9, a5	# tmp623, tmp621, a11
	xor	a10, a2, a14	# tmp617, tmp546,
	xor	a15, a15, a12	# tmp630, _522, tmp629
.LVL232:
	.loc 1 372 5 is_stmt 0 view .LVU642
	xor	a3, a7, a3	# a22, tmp627, a22
.LVL233:
	.loc 1 372 5 view .LVU643
	l32i.n	a12, sp, 20	# %sfp,
# /storage/projects/XKCP/lib/low/Xoodoo/plain/Xoodoo-plain.c:373:     Round(_rc4);
	.loc 1 373 5 view .LVU644
	l32i.n	a7, sp, 8	# %sfp,
# /storage/projects/XKCP/lib/low/Xoodoo/plain/Xoodoo-plain.c:372:     Round(_rc5);
	.loc 1 372 5 view .LVU645
	ssai	31	#
	src	a14, a11, a11	# a12, a12
	and	a15, a15, a8	# tmp631, tmp630, a10
.LVL234:
	.loc 1 372 5 view .LVU646
	ssai	31	#
	src	a11, a13, a13	#, a13
.LVL235:
	.loc 1 372 5 view .LVU647
	xor	a4, a9, a4	# a21, tmp623, a21
.LVL236:
	.loc 1 372 5 view .LVU648
	and	a13, a10, a13	# tmp619, tmp617, a13
.LVL237:
# /storage/projects/XKCP/lib/low/Xoodoo/plain/Xoodoo-plain.c:373:     Round(_rc4);
	.loc 1 373 5 view .LVU649
	l32i.n	a9, sp, 4	# %sfp,
# /storage/projects/XKCP/lib/low/Xoodoo/plain/Xoodoo-plain.c:372:     Round(_rc5);
	.loc 1 372 5 view .LVU650
	s32i.n	a11, sp, 16	# %sfp,
# /storage/projects/XKCP/lib/low/Xoodoo/plain/Xoodoo-plain.c:373:     Round(_rc4);
	.loc 1 373 5 view .LVU651
	l32i.n	a10, sp, 24	# %sfp,
# /storage/projects/XKCP/lib/low/Xoodoo/plain/Xoodoo-plain.c:372:     Round(_rc5);
	.loc 1 372 5 view .LVU652
	xor	a15, a15, a12	# a20, tmp631,
.LVL238:
	.loc 1 372 5 view .LVU653
	ssai	24	#
	src	a4, a4, a4	# a23, a21
	xor	a6, a13, a6	# a23, tmp619, a23
# /storage/projects/XKCP/lib/low/Xoodoo/plain/Xoodoo-plain.c:373:     Round(_rc4);
	.loc 1 373 5 view .LVU654
	xor	a13, a7, a11	# tmp633,,
# /storage/projects/XKCP/lib/low/Xoodoo/plain/Xoodoo-plain.c:372:     Round(_rc5);
	.loc 1 372 5 view .LVU655
	ssai	31	#
	src	a11, a8, a8	# a10, a10
.LVL239:
	.loc 1 372 5 is_stmt 1 view .LVU656
# /storage/projects/XKCP/lib/low/Xoodoo/plain/Xoodoo-plain.c:373:     Round(_rc4);
	.loc 1 373 5 is_stmt 0 view .LVU657
	l32i.n	a8, sp, 0	# %sfp,
# /storage/projects/XKCP/lib/low/Xoodoo/plain/Xoodoo-plain.c:372:     Round(_rc5);
	.loc 1 372 5 view .LVU658
	ssai	24	#
	src	a15, a15, a15	# a22, a20
.LVL240:
# /storage/projects/XKCP/lib/low/Xoodoo/plain/Xoodoo-plain.c:373:     Round(_rc4);
	.loc 1 373 5 view .LVU659
	xor	a7, a9, a14	# tmp636,, a12
	xor	a13, a13, a4	# v1, tmp633, a23
# /storage/projects/XKCP/lib/low/Xoodoo/plain/Xoodoo-plain.c:372:     Round(_rc5);
	.loc 1 372 5 view .LVU660
	ssai	31	#
	src	a5, a5, a5	# a11, a11
.LVL241:
	.loc 1 372 5 is_stmt 1 view .LVU661
	.loc 1 372 5 view .LVU662
	.loc 1 372 5 view .LVU663
	ssai	24	#
	src	a3, a3, a3	# v1, a22
# /storage/projects/XKCP/lib/low/Xoodoo/plain/Xoodoo-plain.c:373:     Round(_rc4);
	.loc 1 373 5 is_stmt 0 view .LVU664
	xor	a7, a7, a15	# v2, tmp636, a22
	xor	a9, a10, a3	# tmp634,, v1
	xor	a12, a8, a5	# tmp635,, a11
	ssai	27	#
	src	a10, a13, a13	# _75, v1
# /storage/projects/XKCP/lib/low/Xoodoo/plain/Xoodoo-plain.c:372:     Round(_rc5);
	.loc 1 372 5 view .LVU665
	ssai	24	#
	src	a6, a6, a6	# v1, a23
.LVL242:
	.loc 1 372 5 is_stmt 1 view .LVU666
	.loc 1 372 5 view .LVU667
	.loc 1 372 5 view .LVU668
	.loc 1 372 5 view .LVU669
	.loc 1 372 5 view .LVU670
	.loc 1 372 16 view .LVU671
	.loc 1 373 5 view .LVU672
	.loc 1 373 5 view .LVU673
	ssai	18	#
	src	a13, a13, a13	# _76, v1
.LVL243:
	.loc 1 373 5 is_stmt 0 view .LVU674
	xor	a13, a10, a13	# v1, _75, _76
	xor	a9, a9, a11	# v2, tmp634, a10
.LVL244:
	.loc 1 373 5 is_stmt 1 view .LVU675
	xor	a12, a12, a6	# v1, tmp635, v1
	ssai	27	#
	src	a8, a7, a7	# _83, v2
.LVL245:
	.loc 1 373 5 view .LVU676
	.loc 1 373 5 view .LVU677
	ssai	18	#
	src	a7, a7, a7	# _84, v2
	xor	a7, a8, a7	# v2, _83, _84
	ssai	27	#
	src	a10, a12, a12	# _81, v1
	ssai	27	#
	src	a8, a9, a9	# _78, v2
	ssai	18	#
	src	a12, a12, a12	# _82, v1
	xor	a3, a3, a13	# a20, v1, v1
.LVL246:
	.loc 1 373 5 is_stmt 0 view .LVU678
	ssai	18	#
	src	a9, a9, a9	# _79, v2
.LVL247:
	.loc 1 373 5 view .LVU679
	xor	a9, a8, a9	# v2, _78, _79
	ssai	21	#
	src	a3, a3, a3	#, a20
	xor	a8, a10, a12	# v1, _81, _82
	l32i.n	a10, sp, 16	# %sfp,
	s32i.n	a3, sp, 20	# %sfp,
	l32i.n	a12, sp, 20	# %sfp,
	xor	a10, a10, a7	#,, v2
	s32i.n	a10, sp, 16	# %sfp,
.LVL248:
	.loc 1 373 5 view .LVU680
	xor	a10, a2, a10	# tmp637, tmp546,
	and	a10, a10, a12	# tmp639, tmp637,
	l32i.n	a12, sp, 24	# %sfp,
	xor	a11, a11, a13	# a10, a10, v1
.LVL249:
	.loc 1 373 5 is_stmt 1 view .LVU681
	.loc 1 373 5 view .LVU682
	.loc 1 373 5 view .LVU683
	.loc 1 373 5 view .LVU684
	xor	a13, a12, a13	# tmp640,, v1
.LVL250:
	.loc 1 373 5 is_stmt 0 view .LVU685
	xor	a13, a10, a13	# _520, tmp639, tmp640
.LVL251:
	.loc 1 373 5 view .LVU686
	l32i.n	a10, sp, 0	# %sfp,
	xor	a5, a5, a9	# a11, a11, v2
.LVL252:
	.loc 1 373 5 view .LVU687
	xor	a3, a15, a8	# a22, a22, v1
	xor	a6, a6, a9	# a21, v1, v2
.LVL253:
	.loc 1 373 5 view .LVU688
	xor	a9, a10, a9	# a01,, v2
.LVL254:
	.loc 1 373 5 view .LVU689
	l32i.n	a10, sp, 4	# %sfp,
	ssai	21	#
	src	a3, a3, a3	# a22, a22
	xor	a12, a2, a5	# tmp651, tmp546, a11
	ssai	21	#
	src	a6, a6, a6	# a21, a21
	xor	a14, a14, a8	# a12, a12, v1
.LVL255:
	.loc 1 373 5 view .LVU690
	xor	a15, a2, a11	# tmp645, tmp546, a10
.LVL256:
	.loc 1 373 5 view .LVU691
	xor	a8, a10, a8	# a02,, v1
	and	a12, a12, a3	# tmp653, tmp651, a22
	and	a15, a15, a6	# tmp647, tmp645, a21
	xor	a12, a12, a8	#, tmp653, a02
	movi	a8, 0x380	# tmp641,
	xor	a9, a15, a9	#, tmp647, a01
	xor	a8, a13, a8	#, _520, tmp641
	s32i.n	a9, sp, 0	# %sfp,
.LVL257:
	.loc 1 373 5 view .LVU692
	s32i.n	a8, sp, 24	# %sfp,
	.loc 1 373 5 view .LVU693
	xor	a4, a4, a7	# a23, a23, v2
.LVL258:
	.loc 1 373 5 is_stmt 1 view .LVU694
	.loc 1 373 5 view .LVU695
	.loc 1 373 5 view .LVU696
	.loc 1 373 5 view .LVU697
	.loc 1 373 5 view .LVU698
	.loc 1 373 5 view .LVU699
	.loc 1 373 5 view .LVU700
	.loc 1 373 5 view .LVU701
	.loc 1 373 5 view .LVU702
	s32i.n	a12, sp, 4	# %sfp,
	.loc 1 373 5 is_stmt 0 view .LVU703
	l32i.n	a12, sp, 8	# %sfp,
	ssai	21	#
	src	a4, a4, a4	# a23, a23
	xor	a10, a2, a14	# tmp657, tmp546, a12
	.loc 1 373 5 view .LVU704
	xor	a7, a12, a7	# a03,, v2
.LVL259:
	.loc 1 373 5 is_stmt 1 view .LVU705
	.loc 1 373 5 view .LVU706
	.loc 1 373 5 view .LVU707
	.loc 1 373 5 view .LVU708
	.loc 1 373 5 view .LVU709
	.loc 1 373 5 view .LVU710
	.loc 1 373 5 view .LVU711
	.loc 1 373 5 view .LVU712
	.loc 1 373 5 view .LVU713
	.loc 1 373 5 view .LVU714
	.loc 1 373 5 view .LVU715
	.loc 1 373 5 view .LVU716
	.loc 1 373 5 view .LVU717
	.loc 1 373 5 view .LVU718
	.loc 1 373 5 view .LVU719
	.loc 1 373 5 view .LVU720
	.loc 1 373 5 view .LVU721
	and	a10, a10, a4	# tmp659, tmp657, a23
	l32i.n	a9, sp, 20	# %sfp,
	xor	a10, a10, a7	#, tmp659, a03
	s32i.n	a10, sp, 8	# %sfp,
	l32i.n	a10, sp, 24	# %sfp,
	l32i.n	a12, sp, 0	# %sfp,
	xor	a8, a2, a9	# tmp642, tmp546,
.LVL260:
	.loc 1 373 5 is_stmt 0 view .LVU722
	and	a8, a8, a10	# tmp644, tmp642,
	xor	a9, a2, a6	# tmp648, tmp546, a21
	l32i.n	a10, sp, 16	# %sfp,
.LVL261:
	.loc 1 373 5 view .LVU723
	l32i.n	a7, sp, 4	# %sfp,
.LVL262:
	.loc 1 373 5 view .LVU724
	and	a9, a9, a12	# tmp650, tmp648,
	xor	a8, a8, a10	# a10, tmp644,
.LVL263:
	.loc 1 373 5 is_stmt 1 view .LVU725
	.loc 1 373 5 view .LVU726
	.loc 1 373 5 view .LVU727
	xor	a15, a2, a3	# tmp654, tmp546, a22
	l32i.n	a10, sp, 0	# %sfp,
	xor	a11, a9, a11	# a11, tmp650, a10
.LVL264:
	.loc 1 373 5 view .LVU728
	.loc 1 373 5 view .LVU729
	.loc 1 373 5 view .LVU730
	l32i.n	a9, sp, 8	# %sfp,
	and	a15, a15, a7	# tmp656, tmp654,
	xor	a7, a2, a4	# tmp660, tmp546, a23
.LVL265:
	.loc 1 373 5 is_stmt 0 view .LVU731
	and	a12, a7, a9	# tmp662, tmp660,
.LVL266:
	.loc 1 373 5 view .LVU732
	xor	a9, a2, a10	# tmp667, tmp546,
	l32i.n	a10, sp, 4	# %sfp,
.LVL267:
	.loc 1 373 5 view .LVU733
	xor	a14, a12, a14	# a13, tmp662, a12
.LVL268:
	.loc 1 373 5 view .LVU734
	l32i.n	a12, sp, 8	# %sfp,
	xor	a7, a2, a10	# tmp671, tmp546,
	movi	a10, -0x381	# tmp675,
	xor	a10, a13, a10	# tmp676, _520, tmp675
	xor	a13, a2, a12	# tmp663, tmp546,
.LVL269:
	.loc 1 373 5 view .LVU735
	and	a9, a9, a11	# tmp669, tmp667, a11
	ssai	31	#
	src	a12, a14, a14	# a13, a13
	and	a14, a13, a14	# tmp665, tmp663, a13
	xor	a5, a15, a5	# a12, tmp656, a11
.LVL270:
	.loc 1 373 5 is_stmt 1 view .LVU736
	.loc 1 373 5 view .LVU737
	.loc 1 373 5 view .LVU738
	.loc 1 373 5 view .LVU739
	.loc 1 373 5 view .LVU740
	.loc 1 373 5 view .LVU741
	l32i.n	a13, sp, 20	# %sfp,
	xor	a6, a9, a6	# a21, tmp669, a21
.LVL271:
	.loc 1 373 5 is_stmt 0 view .LVU742
	xor	a4, a14, a4	# a23, tmp665, a23
# /storage/projects/XKCP/lib/low/Xoodoo/plain/Xoodoo-plain.c:374:     Round(_rc3);
	.loc 1 374 5 view .LVU743
	l32i.n	a9, sp, 4	# %sfp,
	l32i.n	a14, sp, 8	# %sfp,
# /storage/projects/XKCP/lib/low/Xoodoo/plain/Xoodoo-plain.c:373:     Round(_rc4);
	.loc 1 373 5 view .LVU744
	and	a7, a7, a5	# tmp673, tmp671, a12
	and	a10, a10, a8	# tmp677, tmp676, a10
.LVL272:
	.loc 1 373 5 view .LVU745
	ssai	31	#
	src	a5, a5, a5	#, a12
.LVL273:
	.loc 1 373 5 view .LVU746
	s32i.n	a5, sp, 16	# %sfp,
.LVL274:
	.loc 1 373 5 view .LVU747
	xor	a3, a7, a3	# a22, tmp673, a22
	xor	a10, a10, a13	# a20, tmp677,
.LVL275:
# /storage/projects/XKCP/lib/low/Xoodoo/plain/Xoodoo-plain.c:374:     Round(_rc3);
	.loc 1 374 5 view .LVU748
	xor	a7, a9, a5	# tmp682,,
	xor	a13, a14, a12	# tmp679,, a13
# /storage/projects/XKCP/lib/low/Xoodoo/plain/Xoodoo-plain.c:373:     Round(_rc4);
	.loc 1 373 5 view .LVU749
	ssai	31	#
	src	a5, a8, a8	# a10, a10
.LVL276:
	.loc 1 373 5 is_stmt 1 view .LVU750
# /storage/projects/XKCP/lib/low/Xoodoo/plain/Xoodoo-plain.c:374:     Round(_rc3);
	.loc 1 374 5 is_stmt 0 view .LVU751
	l32i.n	a14, sp, 24	# %sfp,
	l32i.n	a8, sp, 0	# %sfp,
# /storage/projects/XKCP/lib/low/Xoodoo/plain/Xoodoo-plain.c:373:     Round(_rc4);
	.loc 1 373 5 view .LVU752
	ssai	24	#
	src	a6, a6, a6	# a23, a21
	ssai	24	#
	src	a10, a10, a10	# a22, a20
.LVL277:
# /storage/projects/XKCP/lib/low/Xoodoo/plain/Xoodoo-plain.c:374:     Round(_rc3);
	.loc 1 374 5 view .LVU753
	xor	a13, a13, a6	# v1, tmp679, a23
# /storage/projects/XKCP/lib/low/Xoodoo/plain/Xoodoo-plain.c:373:     Round(_rc4);
	.loc 1 373 5 view .LVU754
	ssai	31	#
	src	a11, a11, a11	# a11, a11
.LVL278:
	.loc 1 373 5 is_stmt 1 view .LVU755
	.loc 1 373 5 view .LVU756
	.loc 1 373 5 view .LVU757
	ssai	24	#
	src	a3, a3, a3	# v1, a22
# /storage/projects/XKCP/lib/low/Xoodoo/plain/Xoodoo-plain.c:374:     Round(_rc3);
	.loc 1 374 5 is_stmt 0 view .LVU758
	xor	a7, a7, a10	# v2, tmp682, a22
	xor	a9, a14, a3	# tmp680,, v1
	ssai	27	#
	src	a15, a13, a13	# _111, v1
	.loc 1 374 5 view .LVU759
	xor	a14, a8, a11	# tmp681,, a11
# /storage/projects/XKCP/lib/low/Xoodoo/plain/Xoodoo-plain.c:373:     Round(_rc4);
	.loc 1 373 5 view .LVU760
	ssai	24	#
	src	a4, a4, a4	# v1, a23
.LVL279:
	.loc 1 373 5 is_stmt 1 view .LVU761
	.loc 1 373 5 view .LVU762
	.loc 1 373 5 view .LVU763
	.loc 1 373 5 view .LVU764
	.loc 1 373 5 view .LVU765
	.loc 1 373 16 view .LVU766
	.loc 1 374 5 view .LVU767
	.loc 1 374 5 view .LVU768
	ssai	18	#
	src	a13, a13, a13	# _112, v1
.LVL280:
	.loc 1 374 5 is_stmt 0 view .LVU769
	xor	a13, a15, a13	# v1, _111, _112
	xor	a9, a9, a5	# v2, tmp680, a10
.LVL281:
	.loc 1 374 5 is_stmt 1 view .LVU770
	xor	a14, a14, a4	# v1, tmp681, v1
	ssai	27	#
	src	a8, a7, a7	# _119, v2
.LVL282:
	.loc 1 374 5 view .LVU771
	.loc 1 374 5 view .LVU772
	ssai	18	#
	src	a7, a7, a7	# _120, v2
	xor	a7, a8, a7	# v2, _119, _120
	ssai	27	#
	src	a15, a14, a14	# _117, v1
	ssai	27	#
	src	a8, a9, a9	# _114, v2
	ssai	18	#
	src	a14, a14, a14	# _118, v1
	xor	a3, a3, a13	# a20, v1, v1
.LVL283:
	.loc 1 374 5 is_stmt 0 view .LVU773
	ssai	18	#
	src	a9, a9, a9	# _115, v2
.LVL284:
	.loc 1 374 5 view .LVU774
	xor	a9, a8, a9	# v2, _114, _115
	ssai	21	#
	src	a3, a3, a3	#, a20
	xor	a8, a15, a14	# v1, _117, _118
	s32i.n	a3, sp, 20	# %sfp,
	xor	a3, a10, a8	# a22, a22, v1
	l32i.n	a10, sp, 16	# %sfp,
.LVL285:
	.loc 1 374 5 view .LVU775
	l32i.n	a14, sp, 20	# %sfp,
	xor	a15, a10, a8	# a12,, v1
	xor	a12, a12, a7	#, a13, v2
.LVL286:
	.loc 1 374 5 view .LVU776
	l32i.n	a10, sp, 24	# %sfp,
	s32i.n	a12, sp, 28	# %sfp,
	.loc 1 374 5 view .LVU777
	xor	a12, a2, a12	# tmp683, tmp546,
	xor	a5, a5, a13	# a10, a10, v1
.LVL287:
	.loc 1 374 5 is_stmt 1 view .LVU778
	.loc 1 374 5 view .LVU779
	.loc 1 374 5 view .LVU780
	.loc 1 374 5 view .LVU781
	and	a12, a12, a14	# tmp685, tmp683,
	xor	a13, a10, a13	# tmp686,, v1
.LVL288:
	.loc 1 374 5 is_stmt 0 view .LVU782
	xor	a13, a12, a13	# _518, tmp685, tmp686
.LVL289:
	.loc 1 374 5 view .LVU783
	xor	a4, a4, a9	# a21, v1, v2
.LVL290:
	.loc 1 374 5 view .LVU784
	l32i.n	a12, sp, 0	# %sfp,
	ssai	21	#
	src	a4, a4, a4	# a21, a21
	xor	a14, a2, a5	# tmp691, tmp546, a10
	xor	a11, a11, a9	# a11, a11, v2
.LVL291:
	.loc 1 374 5 view .LVU785
	and	a14, a14, a4	# tmp693, tmp691, a21
	xor	a9, a12, a9	# a01,, v2
.LVL292:
	.loc 1 374 5 view .LVU786
	l32i.n	a12, sp, 4	# %sfp,
	ssai	21	#
	src	a3, a3, a3	# a22, a22
	xor	a10, a2, a11	# tmp697, tmp546, a11
	xor	a14, a14, a9	#, tmp693, a01
	s32i.n	a14, sp, 0	# %sfp,
.LVL293:
	.loc 1 374 5 view .LVU787
	xor	a8, a12, a8	# a02,, v1
	l32i.n	a14, sp, 8	# %sfp,
	xor	a6, a6, a7	# a23, a23, v2
.LVL294:
	.loc 1 374 5 is_stmt 1 view .LVU788
	.loc 1 374 5 view .LVU789
	.loc 1 374 5 view .LVU790
	.loc 1 374 5 view .LVU791
	.loc 1 374 5 view .LVU792
	.loc 1 374 5 view .LVU793
	.loc 1 374 5 view .LVU794
	.loc 1 374 5 view .LVU795
	.loc 1 374 5 view .LVU796
	and	a10, a10, a3	# tmp699, tmp697, a22
	ssai	21	#
	src	a6, a6, a6	# a23, a23
	xor	a12, a2, a15	# tmp703, tmp546, a12
	xor	a10, a10, a8	#, tmp699, a02
	movi	a8, 0xf0	# tmp687,
.LVL295:
	.loc 1 374 5 is_stmt 0 view .LVU797
	xor	a8, a13, a8	#, _518, tmp687
	xor	a7, a14, a7	# a03,, v2
.LVL296:
	.loc 1 374 5 is_stmt 1 view .LVU798
	.loc 1 374 5 view .LVU799
	.loc 1 374 5 view .LVU800
	.loc 1 374 5 view .LVU801
	.loc 1 374 5 view .LVU802
	.loc 1 374 5 view .LVU803
	.loc 1 374 5 view .LVU804
	.loc 1 374 5 view .LVU805
	.loc 1 374 5 view .LVU806
	.loc 1 374 5 view .LVU807
	.loc 1 374 5 view .LVU808
	.loc 1 374 5 view .LVU809
	.loc 1 374 5 view .LVU810
	.loc 1 374 5 view .LVU811
	.loc 1 374 5 view .LVU812
	.loc 1 374 5 view .LVU813
	.loc 1 374 5 view .LVU814
	and	a12, a12, a6	# tmp705, tmp703, a23
	s32i.n	a8, sp, 24	# %sfp,
.LVL297:
	.loc 1 374 5 is_stmt 0 view .LVU815
	xor	a12, a12, a7	#, tmp705, a03
	l32i.n	a8, sp, 20	# %sfp,
	s32i.n	a12, sp, 8	# %sfp,
	l32i.n	a12, sp, 24	# %sfp,
	l32i.n	a14, sp, 0	# %sfp,
	s32i.n	a10, sp, 4	# %sfp,
	.loc 1 374 5 view .LVU816
	xor	a9, a2, a8	# tmp688, tmp546,
.LVL298:
	.loc 1 374 5 view .LVU817
	l32i.n	a7, sp, 4	# %sfp,
.LVL299:
	.loc 1 374 5 view .LVU818
	xor	a8, a2, a4	# tmp694, tmp546, a21
	and	a9, a9, a12	# tmp690, tmp688,
	l32i.n	a12, sp, 28	# %sfp,
	xor	a10, a2, a3	# tmp700, tmp546, a22
	and	a8, a8, a14	# tmp696, tmp694,
	l32i.n	a14, sp, 8	# %sfp,
	and	a10, a10, a7	# tmp702, tmp700,
	xor	a9, a9, a12	# a10, tmp690,
.LVL300:
	.loc 1 374 5 is_stmt 1 view .LVU819
	.loc 1 374 5 view .LVU820
	.loc 1 374 5 view .LVU821
	xor	a7, a2, a6	# tmp706, tmp546, a23
	movi	a12, -0xf1	# tmp721,
	xor	a8, a8, a5	# a11, tmp696, a10
.LVL301:
	.loc 1 374 5 view .LVU822
	.loc 1 374 5 view .LVU823
	.loc 1 374 5 view .LVU824
	xor	a11, a10, a11	# a12, tmp702, a11
.LVL302:
	.loc 1 374 5 view .LVU825
	.loc 1 374 5 view .LVU826
	.loc 1 374 5 view .LVU827
	and	a5, a7, a14	# tmp708, tmp706,
	l32i.n	a10, sp, 4	# %sfp,
	l32i.n	a7, sp, 0	# %sfp,
	xor	a13, a13, a12	# tmp722, _518, tmp721
.LVL303:
	.loc 1 374 5 is_stmt 0 view .LVU828
	l32i.n	a12, sp, 8	# %sfp,
	xor	a15, a5, a15	# a13, tmp708, a12
.LVL304:
	.loc 1 374 5 is_stmt 1 view .LVU829
	.loc 1 374 5 view .LVU830
	.loc 1 374 5 view .LVU831
	xor	a14, a2, a7	# tmp713, tmp546,
.LVL305:
	.loc 1 374 5 is_stmt 0 view .LVU832
	xor	a5, a2, a12	# tmp709, tmp546,
	xor	a7, a2, a10	# tmp717, tmp546,
	and	a7, a7, a11	# tmp719, tmp717, a12
	and	a5, a5, a15	# tmp711, tmp709, a13
	xor	a3, a7, a3	# a22, tmp719, a22
.LVL306:
	.loc 1 374 5 view .LVU833
	and	a14, a14, a8	# tmp715, tmp713, a11
# /storage/projects/XKCP/lib/low/Xoodoo/plain/Xoodoo-plain.c:375:     Round(_rc2);
	.loc 1 375 5 view .LVU834
	l32i.n	a7, sp, 4	# %sfp,
# /storage/projects/XKCP/lib/low/Xoodoo/plain/Xoodoo-plain.c:374:     Round(_rc3);
	.loc 1 374 5 view .LVU835
	xor	a6, a5, a6	# a23, tmp711, a23
.LVL307:
# /storage/projects/XKCP/lib/low/Xoodoo/plain/Xoodoo-plain.c:375:     Round(_rc2);
	.loc 1 375 5 view .LVU836
	l32i.n	a5, sp, 8	# %sfp,
# /storage/projects/XKCP/lib/low/Xoodoo/plain/Xoodoo-plain.c:374:     Round(_rc3);
	.loc 1 374 5 view .LVU837
	ssai	31	#
	src	a11, a11, a11	#, a12
.LVL308:
	.loc 1 374 5 view .LVU838
	ssai	31	#
	src	a12, a15, a15	# a13, a13
.LVL309:
	.loc 1 374 5 view .LVU839
	xor	a14, a14, a4	# a21, tmp715, a21
	l32i.n	a4, sp, 20	# %sfp,
.LVL310:
	.loc 1 374 5 view .LVU840
	s32i.n	a11, sp, 16	# %sfp,
	and	a13, a13, a9	# tmp723, tmp722, a10
.LVL311:
# /storage/projects/XKCP/lib/low/Xoodoo/plain/Xoodoo-plain.c:375:     Round(_rc2);
	.loc 1 375 5 view .LVU841
	xor	a10, a5, a12	# tmp725,, a13
	xor	a5, a7, a11	# tmp728,,
.LVL312:
	.loc 1 375 5 view .LVU842
	l32i.n	a11, sp, 24	# %sfp,
	l32i.n	a7, sp, 0	# %sfp,
# /storage/projects/XKCP/lib/low/Xoodoo/plain/Xoodoo-plain.c:374:     Round(_rc3);
	.loc 1 374 5 view .LVU843
	xor	a15, a13, a4	# a20, tmp723,
.LVL313:
	.loc 1 374 5 view .LVU844
	ssai	24	#
	src	a14, a14, a14	# a23, a21
	ssai	24	#
	src	a4, a3, a3	# v1, a22
# /storage/projects/XKCP/lib/low/Xoodoo/plain/Xoodoo-plain.c:375:     Round(_rc2);
	.loc 1 375 5 view .LVU845
	xor	a10, a10, a14	# v1, tmp725, a23
	xor	a13, a11, a4	# tmp726,, v1
# /storage/projects/XKCP/lib/low/Xoodoo/plain/Xoodoo-plain.c:374:     Round(_rc3);
	.loc 1 374 5 view .LVU846
	ssai	31	#
	src	a8, a8, a8	# a11, a11
.LVL314:
	.loc 1 374 5 view .LVU847
	ssai	31	#
	src	a9, a9, a9	# a10, a10
.LVL315:
	.loc 1 374 5 is_stmt 1 view .LVU848
	.loc 1 374 5 view .LVU849
	.loc 1 374 5 view .LVU850
	.loc 1 374 5 view .LVU851
# /storage/projects/XKCP/lib/low/Xoodoo/plain/Xoodoo-plain.c:375:     Round(_rc2);
	.loc 1 375 5 is_stmt 0 view .LVU852
	xor	a3, a7, a8	# tmp727,, a11
	xor	a13, a13, a9	# v2, tmp726, a10
	ssai	27	#
	src	a7, a10, a10	# _147, v1
	ssai	18	#
	src	a10, a10, a10	# _148, v1
	xor	a7, a7, a10	# v1, _147, _148
# /storage/projects/XKCP/lib/low/Xoodoo/plain/Xoodoo-plain.c:374:     Round(_rc3);
	.loc 1 374 5 view .LVU853
	ssai	24	#
	src	a15, a15, a15	# a22, a20
.LVL316:
# /storage/projects/XKCP/lib/low/Xoodoo/plain/Xoodoo-plain.c:375:     Round(_rc2);
	.loc 1 375 5 view .LVU854
	ssai	27	#
	src	a10, a13, a13	# _150, v2
	ssai	18	#
	src	a13, a13, a13	# _151, v2
	xor	a13, a10, a13	# v2, _150, _151
	xor	a5, a5, a15	# v2, tmp728, a22
# /storage/projects/XKCP/lib/low/Xoodoo/plain/Xoodoo-plain.c:374:     Round(_rc3);
	.loc 1 374 5 view .LVU855
	ssai	24	#
	src	a6, a6, a6	# v1, a23
.LVL317:
	.loc 1 374 5 is_stmt 1 view .LVU856
	.loc 1 374 5 view .LVU857
	.loc 1 374 5 view .LVU858
	.loc 1 374 5 view .LVU859
	.loc 1 374 5 view .LVU860
	.loc 1 374 16 view .LVU861
	.loc 1 375 5 view .LVU862
	.loc 1 375 5 view .LVU863
	.loc 1 375 5 view .LVU864
	xor	a3, a3, a6	# v1, tmp727, v1
	ssai	27	#
	src	a11, a5, a5	# _155, v2
.LVL318:
	.loc 1 375 5 view .LVU865
	.loc 1 375 5 view .LVU866
	xor	a6, a6, a13	# a21, v1, v2
.LVL319:
	.loc 1 375 5 is_stmt 0 view .LVU867
	ssai	18	#
	src	a5, a5, a5	# _156, v2
	xor	a11, a11, a5	# v2, _155, _156
	ssai	21	#
	src	a6, a6, a6	#, a21
	s32i.n	a6, sp, 20	# %sfp,
	xor	a12, a12, a11	#, a13, v2
.LVL320:
	.loc 1 375 5 view .LVU868
	l32i.n	a6, sp, 24	# %sfp,
	ssai	27	#
	src	a5, a3, a3	# _153, v1
	xor	a4, a4, a7	# a20, v1, v1
.LVL321:
	.loc 1 375 5 view .LVU869
	ssai	18	#
	src	a3, a3, a3	# _154, v1
	xor	a10, a5, a3	# v1, _153, _154
	ssai	21	#
	src	a3, a4, a4	# a20, a20
	xor	a5, a2, a12	# tmp729, tmp546,
	xor	a9, a9, a7	# a10, a10, v1
.LVL322:
	.loc 1 375 5 is_stmt 1 view .LVU870
	.loc 1 375 5 view .LVU871
	.loc 1 375 5 view .LVU872
	.loc 1 375 5 view .LVU873
	and	a5, a5, a3	# tmp731, tmp729, a20
	xor	a7, a6, a7	# tmp732,, v1
.LVL323:
	.loc 1 375 5 is_stmt 0 view .LVU874
	xor	a7, a5, a7	# _516, tmp731, tmp732
.LVL324:
	.loc 1 375 5 view .LVU875
	l32i.n	a5, sp, 0	# %sfp,
	s32i.n	a12, sp, 28	# %sfp,
	xor	a8, a8, a13	# a11, a11, v2
.LVL325:
	.loc 1 375 5 view .LVU876
	l32i.n	a12, sp, 16	# %sfp,
	xor	a13, a5, a13	# a01,, v2
.LVL326:
	.loc 1 375 5 view .LVU877
	l32i.n	a5, sp, 4	# %sfp,
	xor	a4, a12, a10	# a12,, v1
.LVL327:
	.loc 1 375 5 view .LVU878
	xor	a15, a15, a10	# a22, a22, v1
.LVL328:
	.loc 1 375 5 view .LVU879
	xor	a10, a5, a10	# a02,, v1
	l32i.n	a5, sp, 20	# %sfp,
	xor	a6, a2, a9	# tmp737, tmp546, a10
	and	a6, a6, a5	# tmp739, tmp737,
	xor	a6, a6, a13	#, tmp739, a01
	s32i.n	a6, sp, 0	# %sfp,
.LVL329:
	.loc 1 375 5 view .LVU880
	movi	a6, 0x1a0	# tmp733,
	ssai	21	#
	src	a15, a15, a15	# a22, a22
	xor	a12, a2, a8	# tmp743, tmp546, a11
	xor	a6, a7, a6	#, _516, tmp733
	s32i.n	a6, sp, 24	# %sfp,
	.loc 1 375 5 view .LVU881
	xor	a14, a14, a11	# a23, a23, v2
.LVL330:
	.loc 1 375 5 is_stmt 1 view .LVU882
	.loc 1 375 5 view .LVU883
	.loc 1 375 5 view .LVU884
	.loc 1 375 5 view .LVU885
	.loc 1 375 5 view .LVU886
	.loc 1 375 5 view .LVU887
	.loc 1 375 5 view .LVU888
	.loc 1 375 5 view .LVU889
	.loc 1 375 5 view .LVU890
	l32i.n	a6, sp, 8	# %sfp,
	and	a12, a12, a15	# tmp745, tmp743, a22
	ssai	21	#
	src	a14, a14, a14	# a23, a23
	xor	a5, a2, a4	# tmp749, tmp546, a12
	xor	a12, a12, a10	#, tmp745, a02
	s32i.n	a12, sp, 4	# %sfp,
	.loc 1 375 5 is_stmt 0 view .LVU891
	and	a5, a5, a14	# tmp751, tmp749, a23
	xor	a12, a6, a11	# a03,, v2
.LVL331:
	.loc 1 375 5 is_stmt 1 view .LVU892
	.loc 1 375 5 view .LVU893
	.loc 1 375 5 view .LVU894
	.loc 1 375 5 view .LVU895
	.loc 1 375 5 view .LVU896
	.loc 1 375 5 view .LVU897
	.loc 1 375 5 view .LVU898
	.loc 1 375 5 view .LVU899
	.loc 1 375 5 view .LVU900
	.loc 1 375 5 view .LVU901
	.loc 1 375 5 view .LVU902
	.loc 1 375 5 view .LVU903
	.loc 1 375 5 view .LVU904
	.loc 1 375 5 view .LVU905
	.loc 1 375 5 view .LVU906
	.loc 1 375 5 view .LVU907
	.loc 1 375 5 view .LVU908
	l32i.n	a13, sp, 20	# %sfp,
.LVL332:
	.loc 1 375 5 is_stmt 0 view .LVU909
	xor	a5, a5, a12	#, tmp751, a03
	s32i.n	a5, sp, 8	# %sfp,
	l32i.n	a12, sp, 4	# %sfp,
.LVL333:
	.loc 1 375 5 view .LVU910
	l32i.n	a5, sp, 24	# %sfp,
	xor	a10, a2, a3	# tmp734, tmp546, a20
.LVL334:
	.loc 1 375 5 view .LVU911
	xor	a11, a2, a13	# tmp740, tmp546,
.LVL335:
	.loc 1 375 5 view .LVU912
	xor	a13, a2, a15	# tmp746, tmp546, a22
	and	a10, a10, a5	# tmp736, tmp734,
	and	a5, a13, a12	# tmp748, tmp746,
	xor	a8, a5, a8	# a12, tmp748, a11
.LVL336:
	.loc 1 375 5 view .LVU913
	l32i.n	a13, sp, 28	# %sfp,
	l32i.n	a5, sp, 8	# %sfp,
	l32i.n	a6, sp, 0	# %sfp,
	.loc 1 375 5 view .LVU914
	xor	a12, a2, a14	# tmp752, tmp546, a23
	xor	a10, a10, a13	# a10, tmp736,
.LVL337:
	.loc 1 375 5 is_stmt 1 view .LVU915
	.loc 1 375 5 view .LVU916
	.loc 1 375 5 view .LVU917
	and	a12, a12, a5	# tmp754, tmp752,
	l32i.n	a13, sp, 4	# %sfp,
	movi	a5, -0x1a1	# tmp767,
	and	a11, a11, a6	# tmp742, tmp740,
	xor	a7, a7, a5	# tmp768, _516, tmp767
.LVL338:
	.loc 1 375 5 is_stmt 0 view .LVU918
	l32i.n	a5, sp, 8	# %sfp,
	xor	a9, a11, a9	# a11, tmp742, a10
.LVL339:
	.loc 1 375 5 is_stmt 1 view .LVU919
	.loc 1 375 5 view .LVU920
	.loc 1 375 5 view .LVU921
	.loc 1 375 5 view .LVU922
	.loc 1 375 5 view .LVU923
	.loc 1 375 5 view .LVU924
	xor	a11, a2, a6	# tmp759, tmp546,
	xor	a6, a2, a13	# tmp763, tmp546,
.LVL340:
	.loc 1 375 5 is_stmt 0 view .LVU925
	and	a6, a6, a8	# tmp765, tmp763, a12
	xor	a13, a2, a5	# tmp755, tmp546,
.LVL341:
	.loc 1 375 5 view .LVU926
	xor	a4, a12, a4	# a13, tmp754, a12
.LVL342:
	.loc 1 375 5 is_stmt 1 view .LVU927
	.loc 1 375 5 view .LVU928
	.loc 1 375 5 view .LVU929
	ssai	31	#
	src	a8, a8, a8	#, a12
.LVL343:
	.loc 1 375 5 is_stmt 0 view .LVU930
	s32i.n	a8, sp, 16	# %sfp,
	ssai	31	#
	src	a12, a4, a4	# a13, a13
	and	a4, a13, a4	# tmp757, tmp755, a13
.LVL344:
	.loc 1 375 5 view .LVU931
	l32i.n	a13, sp, 20	# %sfp,
	and	a11, a11, a9	# tmp761, tmp759, a11
	and	a7, a7, a10	# tmp769, tmp768, a10
.LVL345:
	.loc 1 375 5 view .LVU932
	xor	a8, a11, a13	# a21, tmp761,
	xor	a15, a6, a15	# a22, tmp765, a22
	.loc 1 375 5 view .LVU933
	xor	a14, a4, a14	# a23, tmp757, a23
# /storage/projects/XKCP/lib/low/Xoodoo/plain/Xoodoo-plain.c:376:     Round(_rc1);
	.loc 1 376 5 view .LVU934
	l32i.n	a6, sp, 16	# %sfp,
# /storage/projects/XKCP/lib/low/Xoodoo/plain/Xoodoo-plain.c:375:     Round(_rc2);
	.loc 1 375 5 view .LVU935
	ssai	31	#
	src	a11, a9, a9	# a11, a11
	xor	a3, a7, a3	# a20, tmp769, a20
.LVL346:
	.loc 1 375 5 view .LVU936
	ssai	24	#
	src	a9, a15, a15	# v1, a22
.LVL347:
# /storage/projects/XKCP/lib/low/Xoodoo/plain/Xoodoo-plain.c:376:     Round(_rc1);
	.loc 1 376 5 view .LVU937
	xor	a7, a5, a12	# tmp771,, a13
# /storage/projects/XKCP/lib/low/Xoodoo/plain/Xoodoo-plain.c:375:     Round(_rc2);
	.loc 1 375 5 view .LVU938
	ssai	24	#
	src	a15, a14, a14	# v1, a23
# /storage/projects/XKCP/lib/low/Xoodoo/plain/Xoodoo-plain.c:376:     Round(_rc1);
	.loc 1 376 5 view .LVU939
	l32i.n	a5, sp, 4	# %sfp,
.LVL348:
	.loc 1 376 5 view .LVU940
	l32i.n	a14, sp, 0	# %sfp,
# /storage/projects/XKCP/lib/low/Xoodoo/plain/Xoodoo-plain.c:375:     Round(_rc2);
	.loc 1 375 5 view .LVU941
	ssai	24	#
	src	a8, a8, a8	# a23, a21
# /storage/projects/XKCP/lib/low/Xoodoo/plain/Xoodoo-plain.c:376:     Round(_rc1);
	.loc 1 376 5 view .LVU942
	xor	a7, a7, a8	# v1, tmp771, a23
	l32i.n	a13, sp, 24	# %sfp,
	xor	a4, a5, a6	# tmp774,,
	xor	a5, a14, a11	# tmp773,, a11
	ssai	27	#
	src	a14, a7, a7	# _183, v1
	ssai	18	#
	src	a7, a7, a7	# _184, v1
	xor	a7, a14, a7	# v1, _183, _184
# /storage/projects/XKCP/lib/low/Xoodoo/plain/Xoodoo-plain.c:375:     Round(_rc2);
	.loc 1 375 5 view .LVU943
	ssai	24	#
	src	a3, a3, a3	# a22, a20
.LVL349:
# /storage/projects/XKCP/lib/low/Xoodoo/plain/Xoodoo-plain.c:376:     Round(_rc1);
	.loc 1 376 5 view .LVU944
	xor	a4, a4, a3	# v2, tmp774, a22
	xor	a6, a13, a9	# tmp772,, v1
# /storage/projects/XKCP/lib/low/Xoodoo/plain/Xoodoo-plain.c:375:     Round(_rc2);
	.loc 1 375 5 view .LVU945
	ssai	31	#
	src	a10, a10, a10	# a10, a10
.LVL350:
	.loc 1 375 5 is_stmt 1 view .LVU946
	.loc 1 375 5 view .LVU947
	.loc 1 375 5 view .LVU948
	.loc 1 375 5 view .LVU949
	.loc 1 375 5 view .LVU950
	.loc 1 375 5 view .LVU951
	.loc 1 375 5 view .LVU952
	.loc 1 375 5 view .LVU953
	.loc 1 375 5 view .LVU954
	.loc 1 375 16 view .LVU955
	.loc 1 376 5 view .LVU956
	.loc 1 376 5 view .LVU957
	xor	a9, a9, a7	# a20, v1, v1
.LVL351:
	.loc 1 376 5 is_stmt 0 view .LVU958
	xor	a6, a6, a10	# v2, tmp772, a10
.LVL352:
	.loc 1 376 5 is_stmt 1 view .LVU959
	ssai	27	#
	src	a13, a4, a4	# _191, v2
.LVL353:
	.loc 1 376 5 view .LVU960
	.loc 1 376 5 view .LVU961
	ssai	21	#
	src	a9, a9, a9	#, a20
	ssai	18	#
	src	a4, a4, a4	# _192, v2
	s32i.n	a9, sp, 20	# %sfp,
	xor	a4, a13, a4	# v2, _191, _192
	xor	a5, a5, a15	# v1, tmp773, v1
	ssai	27	#
	src	a13, a6, a6	# _186, v2
	ssai	18	#
	src	a6, a6, a6	# _187, v2
.LVL354:
	.loc 1 376 5 is_stmt 0 view .LVU962
	xor	a6, a13, a6	# v2, _186, _187
	xor	a12, a12, a4	#, a13, v2
.LVL355:
	.loc 1 376 5 view .LVU963
	l32i.n	a13, sp, 20	# %sfp,
	ssai	27	#
	src	a14, a5, a5	# _189, v1
	xor	a8, a8, a4	# a23, a23, v2
.LVL356:
	.loc 1 376 5 view .LVU964
	ssai	18	#
	src	a5, a5, a5	# _190, v1
	xor	a5, a14, a5	# v1, _189, _190
	ssai	21	#
	src	a8, a8, a8	#, a23
	xor	a14, a2, a12	# tmp775, tmp546,
	s32i.n	a8, sp, 28	# %sfp,
	and	a8, a14, a13	# tmp777, tmp775,
	l32i.n	a14, sp, 24	# %sfp,
	xor	a10, a10, a7	# a10, a10, v1
.LVL357:
	.loc 1 376 5 is_stmt 1 view .LVU965
	.loc 1 376 5 view .LVU966
	.loc 1 376 5 view .LVU967
	.loc 1 376 5 view .LVU968
	xor	a7, a14, a7	# tmp778,, v1
.LVL358:
	.loc 1 376 5 is_stmt 0 view .LVU969
	xor	a14, a8, a7	# _514, tmp777, tmp778
	l32i.n	a7, sp, 0	# %sfp,
.LVL359:
	.loc 1 376 5 view .LVU970
	xor	a9, a11, a6	# a11, a11, v2
	xor	a15, a15, a6	# a21, v1, v2
.LVL360:
	.loc 1 376 5 view .LVU971
	l32i.n	a11, sp, 16	# %sfp,
.LVL361:
	.loc 1 376 5 view .LVU972
	xor	a6, a7, a6	# a01,, v2
.LVL362:
	.loc 1 376 5 view .LVU973
	l32i.n	a7, sp, 8	# %sfp,
	xor	a11, a11, a5	#,, v1
	xor	a4, a7, a4	# a03,, v2
	l32i.n	a7, sp, 28	# %sfp,
	s32i.n	a12, sp, 36	# %sfp,
	s32i.n	a11, sp, 32	# %sfp,
	.loc 1 376 5 view .LVU974
	l32i.n	a8, sp, 4	# %sfp,
	ssai	21	#
	src	a12, a15, a15	#, a21
	xor	a11, a2, a11	# tmp795, tmp546,
	s32i.n	a12, sp, 16	# %sfp,
.LVL363:
	.loc 1 376 5 view .LVU975
	xor	a3, a3, a5	# a22, a22, v1
.LVL364:
	.loc 1 376 5 view .LVU976
	and	a11, a11, a7	# tmp797, tmp795,
	ssai	21	#
	src	a3, a3, a3	# a22, a22
.LVL365:
	.loc 1 376 5 is_stmt 1 view .LVU977
	.loc 1 376 5 view .LVU978
	.loc 1 376 5 view .LVU979
	.loc 1 376 5 view .LVU980
	.loc 1 376 5 view .LVU981
	xor	a11, a11, a4	# a03, tmp797, a03
	xor	a12, a2, a9	# tmp789, tmp546, a11
	l32i.n	a4, sp, 20	# %sfp,
	xor	a5, a8, a5	# a02,, v1
.LVL366:
	.loc 1 376 5 view .LVU982
	.loc 1 376 5 view .LVU983
	.loc 1 376 5 view .LVU984
	.loc 1 376 5 view .LVU985
	.loc 1 376 5 view .LVU986
	.loc 1 376 5 view .LVU987
	.loc 1 376 5 view .LVU988
	.loc 1 376 5 view .LVU989
	.loc 1 376 5 view .LVU990
	.loc 1 376 5 view .LVU991
	.loc 1 376 5 view .LVU992
	.loc 1 376 5 view .LVU993
	.loc 1 376 5 view .LVU994
	.loc 1 376 5 view .LVU995
	.loc 1 376 5 view .LVU996
	.loc 1 376 5 view .LVU997
	.loc 1 376 5 view .LVU998
	.loc 1 376 5 view .LVU999
	.loc 1 376 5 view .LVU1000
	.loc 1 376 5 view .LVU1001
	l32i.n	a8, sp, 16	# %sfp,
	xor	a13, a2, a10	# tmp783, tmp546, a10
	and	a12, a12, a3	# tmp791, tmp789, a22
	xor	a12, a12, a5	# a02, tmp791, a02
	and	a13, a13, a8	# tmp785, tmp783,
	l32i.n	a5, sp, 16	# %sfp,
.LVL367:
	.loc 1 376 5 is_stmt 0 view .LVU1002
	xor	a8, a2, a4	# tmp780, tmp546,
	l32i.n	a4, sp, 28	# %sfp,
.LVL368:
	.loc 1 376 5 view .LVU1003
	xor	a13, a13, a6	# a01, tmp785, a01
	movi.n	a15, 0x12	# tmp779,
	xor	a6, a2, a3	# tmp792, tmp546, a22
.LVL369:
	.loc 1 376 5 view .LVU1004
	xor	a15, a14, a15	# a00, _514, tmp779
.LVL370:
	.loc 1 376 5 is_stmt 1 view .LVU1005
	xor	a7, a2, a5	# tmp786, tmp546,
.LVL371:
	.loc 1 376 5 is_stmt 0 view .LVU1006
	and	a6, a6, a12	# tmp794, tmp792, a02
	xor	a5, a2, a4	# tmp798, tmp546,
	l32i.n	a4, sp, 36	# %sfp,
.LVL372:
	.loc 1 376 5 view .LVU1007
	xor	a6, a6, a9	# a12, tmp794, a11
	and	a8, a8, a15	# tmp782, tmp780, a00
	l32i.n	a9, sp, 32	# %sfp,
.LVL373:
	.loc 1 376 5 view .LVU1008
	and	a7, a7, a13	# tmp788, tmp786, a01
	xor	a8, a8, a4	# a10, tmp782,
.LVL374:
	.loc 1 376 5 is_stmt 1 view .LVU1009
	.loc 1 376 5 view .LVU1010
	.loc 1 376 5 view .LVU1011
	xor	a7, a7, a10	# a11, tmp788, a10
.LVL375:
	.loc 1 376 5 view .LVU1012
	.loc 1 376 5 view .LVU1013
	.loc 1 376 5 view .LVU1014
	.loc 1 376 5 view .LVU1015
	.loc 1 376 5 view .LVU1016
	.loc 1 376 5 view .LVU1017
	and	a5, a5, a11	# tmp800, tmp798, a03
	xor	a10, a2, a12	# tmp805, tmp546, a02
	movi.n	a4, -0x13	# tmp815,
	xor	a5, a5, a9	# a13, tmp800,
.LVL376:
	.loc 1 376 5 view .LVU1018
	.loc 1 376 5 view .LVU1019
	.loc 1 376 5 view .LVU1020
	.loc 1 376 5 view .LVU1021
	.loc 1 376 5 view .LVU1022
	.loc 1 376 5 view .LVU1023
	.loc 1 376 5 view .LVU1024
	.loc 1 376 5 view .LVU1025
	.loc 1 376 5 view .LVU1026
	.loc 1 376 5 view .LVU1027
	.loc 1 376 5 view .LVU1028
	.loc 1 376 5 view .LVU1029
	.loc 1 376 16 view .LVU1030
	.loc 1 377 25 view .LVU1031
	.loc 1 378 5 view .LVU1032
# /storage/projects/XKCP/lib/low/Xoodoo/plain/Xoodoo-plain.c:376:     Round(_rc1);
	.loc 1 376 5 is_stmt 0 view .LVU1033
	xor	a4, a14, a4	# tmp816, _514, tmp815
	xor	a9, a2, a11	# tmp810, tmp546, a03
	l32i.n	a14, sp, 28	# %sfp,
.LVL377:
	.loc 1 376 5 view .LVU1034
	and	a10, a10, a6	# tmp807, tmp805, a12
	and	a9, a9, a5	# tmp812, tmp810, a13
	xor	a10, a10, a3	# a22, tmp807, a22
	l32i.n	a3, sp, 20	# %sfp,
.LVL378:
	.loc 1 376 5 view .LVU1035
	xor	a2, a2, a13	# tmp820, tmp546, a01
	.loc 1 376 5 view .LVU1036
	and	a4, a4, a8	# tmp817, tmp816, a10
.LVL379:
	.loc 1 376 5 view .LVU1037
	xor	a9, a9, a14	# a23, tmp812,
	l32i.n	a14, sp, 16	# %sfp,
	and	a2, a2, a7	# tmp822, tmp820, a11
	xor	a4, a4, a3	# a20, tmp817,
# /storage/projects/XKCP/lib/low/Xoodoo/plain/Xoodoo-plain.c:378:     Vars2State;
	.loc 1 378 5 view .LVU1038
	l32i.n	a3, sp, 12	# %sfp,
# /storage/projects/XKCP/lib/low/Xoodoo/plain/Xoodoo-plain.c:376:     Round(_rc1);
	.loc 1 376 5 view .LVU1039
	xor	a2, a2, a14	# a21, tmp822,
	ssai	31	#
	src	a8, a8, a8	# a10, a10
.LVL380:
# /storage/projects/XKCP/lib/low/Xoodoo/plain/Xoodoo-plain.c:378:     Vars2State;
	.loc 1 378 5 view .LVU1040
	s32i.n	a15, a3, 0	# *state_218(D), a00
	.loc 1 378 5 view .LVU1041
	s32i.n	a13, a3, 4	# *state_218(D), a01
	.loc 1 378 5 view .LVU1042
	s32i.n	a12, a3, 8	# *state_218(D), a02
# /storage/projects/XKCP/lib/low/Xoodoo/plain/Xoodoo-plain.c:376:     Round(_rc1);
	.loc 1 376 5 view .LVU1043
	ssai	31	#
	src	a7, a7, a7	# a11, a11
.LVL381:
	.loc 1 376 5 view .LVU1044
	ssai	31	#
	src	a6, a6, a6	# a12, a12
.LVL382:
	.loc 1 376 5 view .LVU1045
	ssai	31	#
	src	a5, a5, a5	# a13, a13
.LVL383:
	.loc 1 376 5 view .LVU1046
	ssai	24	#
	src	a10, a10, a10	# v1, a22
	ssai	24	#
	src	a9, a9, a9	# v1, a23
	ssai	24	#
	src	a4, a4, a4	# a22, a20
.LVL384:
	.loc 1 376 5 view .LVU1047
	ssai	24	#
	src	a2, a2, a2	# a23, a21
# /storage/projects/XKCP/lib/low/Xoodoo/plain/Xoodoo-plain.c:378:     Vars2State;
	.loc 1 378 5 view .LVU1048
	s32i.n	a11, a3, 12	# *state_218(D), a03
	.loc 1 378 5 is_stmt 1 view .LVU1049
	s32i.n	a8, a3, 16	# *state_218(D), a10
	.loc 1 378 5 is_stmt 0 view .LVU1050
	s32i.n	a7, a3, 20	# *state_218(D), a11
# /storage/projects/XKCP/lib/low/Xoodoo/plain/Xoodoo-plain.c:379: }
	.loc 1 379 1 view .LVU1051
	l32i	a12, sp, 76	#,
.LVL385:
	.loc 1 379 1 view .LVU1052
	l32i	a13, sp, 72	#,
.LVL386:
	.loc 1 379 1 view .LVU1053
	l32i	a14, sp, 68	#,
	l32i	a15, sp, 64	#,
.LVL387:
# /storage/projects/XKCP/lib/low/Xoodoo/plain/Xoodoo-plain.c:378:     Vars2State;
	.loc 1 378 5 view .LVU1054
	s32i.n	a6, a3, 24	# *state_218(D), a12
	s32i.n	a5, a3, 28	# *state_218(D), a13
	.loc 1 378 5 is_stmt 1 view .LVU1055
	s32i.n	a10, a3, 32	# *state_218(D), v1
	s32i.n	a9, a3, 36	# *state_218(D), v1
	s32i.n	a4, a3, 40	# *state_218(D), a22
	.loc 1 378 5 is_stmt 0 view .LVU1056
	s32i.n	a2, a3, 44	# *state_218(D), a23
# /storage/projects/XKCP/lib/low/Xoodoo/plain/Xoodoo-plain.c:379: }
	.loc 1 379 1 view .LVU1057
	addi	sp, sp, 80	#,,
.LVL388:
	.loc 1 379 1 view .LVU1058
	ret.n	
.LFE10:
	.size	Xoodoo_plain_Permute_6rounds, .-Xoodoo_plain_Permute_6rounds
	.literal_position
	.align	4
	.global	Xoodoo_plain_Permute_12rounds
	.type	Xoodoo_plain_Permute_12rounds, @function
Xoodoo_plain_Permute_12rounds:
.LVL389:
.LFB11:
	.loc 1 382 1 is_stmt 1 view -0
	.loc 1 383 5 view .LVU1060
	.loc 1 383 5 view .LVU1061
	.loc 1 383 5 view .LVU1062
	.loc 1 383 5 view .LVU1063
	.loc 1 385 5 view .LVU1064
# /storage/projects/XKCP/lib/low/Xoodoo/plain/Xoodoo-plain.c:382: {
	.loc 1 382 1 is_stmt 0 view .LVU1065
	addi	sp, sp, -80	#,,
.LCFI18:
	s32i.n	a2, sp, 28	# %sfp, state
# /storage/projects/XKCP/lib/low/Xoodoo/plain/Xoodoo-plain.c:385:     State2Vars;
	.loc 1 385 5 view .LVU1066
	l32i.n	a5, sp, 28	# %sfp,
	l32i.n	a3, sp, 28	# %sfp,
	l32i.n	a6, a5, 0	# *state_434(D),
	l32i.n	a4, sp, 28	# %sfp,
	l32i.n	a8, sp, 28	# %sfp,
# /storage/projects/XKCP/lib/low/Xoodoo/plain/Xoodoo-plain.c:382: {
	.loc 1 382 1 view .LVU1067
	s32i	a13, sp, 72	#,
# /storage/projects/XKCP/lib/low/Xoodoo/plain/Xoodoo-plain.c:385:     State2Vars;
	.loc 1 385 5 view .LVU1068
	l32i.n	a7, a5, 4	# *state_434(D),
.LCFI19:
	l32i.n	a13, a5, 28	# *state_434(D), a13
	l32i.n	a3, a3, 12	# *state_434(D),
	l32i.n	a2, a2, 8	# *state_434(D),
.LVL390:
	.loc 1 385 5 view .LVU1069
	l32i.n	a4, a4, 24	# *state_434(D),
.LVL391:
	.loc 1 385 5 view .LVU1070
	s32i.n	a6, sp, 40	# %sfp,
.LVL392:
	.loc 1 385 5 view .LVU1071
	l32i.n	a8, a8, 44	# *state_434(D),
# /storage/projects/XKCP/lib/low/Xoodoo/plain/Xoodoo-plain.c:382: {
	.loc 1 382 1 view .LVU1072
	s32i	a14, sp, 68	#,
# /storage/projects/XKCP/lib/low/Xoodoo/plain/Xoodoo-plain.c:385:     State2Vars;
	.loc 1 385 5 view .LVU1073
	l32i.n	a9, sp, 28	# %sfp,
	s32i.n	a7, sp, 44	# %sfp,
.LVL393:
	.loc 1 385 5 is_stmt 1 view .LVU1074
	l32i.n	a11, a5, 16	# *state_434(D), a10
.LVL394:
	.loc 1 385 5 is_stmt 0 view .LVU1075
	l32i.n	a10, a5, 20	# *state_434(D), a11
.LVL395:
	.loc 1 385 5 is_stmt 1 view .LVU1076
.LCFI20:
# /storage/projects/XKCP/lib/low/Xoodoo/plain/Xoodoo-plain.c:386:     Round(_rc12);
	.loc 1 386 5 is_stmt 0 view .LVU1077
	l32i.n	a14, sp, 40	# %sfp,
# /storage/projects/XKCP/lib/low/Xoodoo/plain/Xoodoo-plain.c:385:     State2Vars;
	.loc 1 385 5 view .LVU1078
	s32i.n	a3, sp, 52	# %sfp,
.LVL396:
	.loc 1 385 5 view .LVU1079
	l32i.n	a5, a5, 40	# *state_434(D), a22
.LVL397:
# /storage/projects/XKCP/lib/low/Xoodoo/plain/Xoodoo-plain.c:386:     Round(_rc12);
	.loc 1 386 5 view .LVU1080
	xor	a3, a3, a13	# tmp1027,, a13
# /storage/projects/XKCP/lib/low/Xoodoo/plain/Xoodoo-plain.c:385:     State2Vars;
	.loc 1 385 5 view .LVU1081
	s32i.n	a2, sp, 48	# %sfp,
.LVL398:
# /storage/projects/XKCP/lib/low/Xoodoo/plain/Xoodoo-plain.c:386:     Round(_rc12);
	.loc 1 386 5 view .LVU1082
	xor	a7, a2, a4	# tmp1030,,
.LVL399:
	.loc 1 386 5 view .LVU1083
	xor	a3, a3, a8	# v1, tmp1027,
	l32i.n	a2, sp, 44	# %sfp,
# /storage/projects/XKCP/lib/low/Xoodoo/plain/Xoodoo-plain.c:382: {
	.loc 1 382 1 view .LVU1084
	s32i	a12, sp, 76	#,
# /storage/projects/XKCP/lib/low/Xoodoo/plain/Xoodoo-plain.c:385:     State2Vars;
	.loc 1 385 5 view .LVU1085
	l32i.n	a6, a9, 36	# *state_434(D), a21
.LVL400:
.LCFI21:
	.loc 1 385 5 view .LVU1086
	l32i.n	a12, a9, 32	# *state_434(D), a20
.LVL401:
	.loc 1 386 5 is_stmt 1 view .LVU1087
	.loc 1 386 5 view .LVU1088
	xor	a7, a7, a5	# v2, tmp1030, a22
	xor	a9, a14, a11	# tmp1028,, a10
.LVL402:
	.loc 1 386 5 is_stmt 0 view .LVU1089
	ssai	27	#
	src	a14, a3, a3	# _3, v1
.LVL403:
	.loc 1 386 5 view .LVU1090
	ssai	18	#
	src	a3, a3, a3	# _4, v1
.LVL404:
	.loc 1 386 5 view .LVU1091
	xor	a3, a14, a3	# v1, _3, _4
# /storage/projects/XKCP/lib/low/Xoodoo/plain/Xoodoo-plain.c:385:     State2Vars;
	.loc 1 385 5 view .LVU1092
	s32i.n	a4, sp, 56	# %sfp,
.LVL405:
	.loc 1 385 5 view .LVU1093
	s32i.n	a8, sp, 60	# %sfp,
.LVL406:
# /storage/projects/XKCP/lib/low/Xoodoo/plain/Xoodoo-plain.c:386:     Round(_rc12);
	.loc 1 386 5 view .LVU1094
	ssai	27	#
	src	a4, a7, a7	# _11, v2
	xor	a8, a2, a10	# tmp1029,, a11
.LVL407:
	.loc 1 386 5 view .LVU1095
	ssai	18	#
	src	a2, a7, a7	# _12, v2
.LVL408:
	.loc 1 386 5 view .LVU1096
	xor	a7, a4, a2	# v2, _11, _12
	xor	a8, a8, a6	# v1, tmp1029, a21
	xor	a9, a9, a12	# v2, tmp1028, a20
.LVL409:
	.loc 1 386 5 is_stmt 1 view .LVU1097
	.loc 1 386 5 view .LVU1098
	.loc 1 386 5 view .LVU1099
	xor	a12, a12, a3	# a20, a20, v1
.LVL410:
	.loc 1 386 5 is_stmt 0 view .LVU1100
	xor	a13, a13, a7	#, a13, v2
.LVL411:
	.loc 1 386 5 view .LVU1101
	ssai	27	#
	src	a14, a8, a8	# _9, v1
	ssai	18	#
	src	a4, a8, a8	# _10, v1
	ssai	21	#
	src	a12, a12, a12	#, a20
# /storage/projects/XKCP/lib/low/Xoodoo/plain/Xoodoo-plain.c:382: {
	.loc 1 382 1 view .LVU1102
	s32i	a15, sp, 64	#,
.LCFI22:
# /storage/projects/XKCP/lib/low/Xoodoo/plain/Xoodoo-plain.c:386:     Round(_rc12);
	.loc 1 386 5 view .LVU1103
	xor	a8, a14, a4	# v1, _9, _10
	s32i.n	a13, sp, 32	# %sfp,
	s32i.n	a12, sp, 12	# %sfp,
	l32i.n	a4, sp, 56	# %sfp,
	l32i.n	a12, sp, 60	# %sfp,
	movi.n	a2, -1	# tmp1032,
	ssai	27	#
	src	a15, a9, a9	# _6, v2
	ssai	18	#
	src	a9, a9, a9	# _7, v2
.LVL412:
	.loc 1 386 5 view .LVU1104
	xor	a9, a15, a9	# v2, _6, _7
	xor	a14, a2, a13	# tmp1031, tmp1032,
	xor	a15, a4, a8	# a12,, v1
	l32i.n	a13, sp, 12	# %sfp,
	xor	a4, a12, a7	# a23,, v2
	l32i.n	a12, sp, 40	# %sfp,
	xor	a11, a11, a3	# a10, a10, v1
.LVL413:
	.loc 1 386 5 is_stmt 1 view .LVU1105
	.loc 1 386 5 view .LVU1106
	.loc 1 386 5 view .LVU1107
	.loc 1 386 5 view .LVU1108
	and	a14, a14, a13	# tmp1033, tmp1031,
	xor	a3, a12, a3	# tmp1034,, v1
.LVL414:
	.loc 1 386 5 is_stmt 0 view .LVU1109
	xor	a3, a14, a3	# _1022, tmp1033, tmp1034
.LVL415:
	.loc 1 386 5 view .LVU1110
	l32i.n	a14, sp, 44	# %sfp,
	xor	a10, a10, a9	# a11, a11, v2
.LVL416:
	.loc 1 386 5 view .LVU1111
	xor	a6, a6, a9	# a21, a21, v2
.LVL417:
	.loc 1 386 5 view .LVU1112
	xor	a5, a5, a8	# a22, a22, v1
.LVL418:
	.loc 1 386 5 view .LVU1113
	xor	a9, a14, a9	# a01,, v2
.LVL419:
	.loc 1 386 5 view .LVU1114
	l32i.n	a14, sp, 48	# %sfp,
	ssai	21	#
	src	a5, a5, a5	# a22, a22
	ssai	21	#
	src	a6, a6, a6	# a21, a21
	xor	a13, a2, a11	# tmp1039, tmp1032, a10
	xor	a12, a2, a10	# tmp1045, tmp1032, a11
.LVL420:
	.loc 1 386 5 is_stmt 1 view .LVU1115
	.loc 1 386 5 view .LVU1116
	.loc 1 386 5 view .LVU1117
	.loc 1 386 5 view .LVU1118
	.loc 1 386 5 view .LVU1119
	xor	a8, a14, a8	# a02,, v1
.LVL421:
	.loc 1 386 5 view .LVU1120
	.loc 1 386 5 view .LVU1121
	.loc 1 386 5 view .LVU1122
	.loc 1 386 5 view .LVU1123
	and	a13, a13, a6	# tmp1041, tmp1039, a21
	and	a12, a12, a5	# tmp1047, tmp1045, a22
	xor	a13, a13, a9	#, tmp1041, a01
	xor	a12, a12, a8	#, tmp1047, a02
	l32i.n	a9, sp, 52	# %sfp,
.LVL422:
	.loc 1 386 5 is_stmt 0 view .LVU1124
	movi.n	a8, 0x58	# tmp1035,
.LVL423:
	.loc 1 386 5 view .LVU1125
	ssai	21	#
	src	a4, a4, a4	# a23, a23
	xor	a14, a2, a15	# tmp1051, tmp1032, a12
.LVL424:
	.loc 1 386 5 view .LVU1126
	xor	a8, a3, a8	#, _1022, tmp1035
	s32i.n	a8, sp, 16	# %sfp,
	and	a14, a14, a4	# tmp1053, tmp1051, a23
	xor	a8, a9, a7	# a03,, v2
.LVL425:
	.loc 1 386 5 is_stmt 1 view .LVU1127
	.loc 1 386 5 view .LVU1128
	.loc 1 386 5 view .LVU1129
	.loc 1 386 5 view .LVU1130
	.loc 1 386 5 view .LVU1131
	.loc 1 386 5 view .LVU1132
	.loc 1 386 5 view .LVU1133
	.loc 1 386 5 view .LVU1134
	.loc 1 386 5 view .LVU1135
	.loc 1 386 5 view .LVU1136
	.loc 1 386 5 view .LVU1137
	.loc 1 386 5 view .LVU1138
	.loc 1 386 5 view .LVU1139
	.loc 1 386 5 view .LVU1140
	.loc 1 386 5 view .LVU1141
	.loc 1 386 5 view .LVU1142
	.loc 1 386 5 view .LVU1143
	s32i.n	a12, sp, 4	# %sfp,
	xor	a14, a14, a8	#, tmp1053, a03
	l32i.n	a12, sp, 12	# %sfp,
	s32i.n	a14, sp, 8	# %sfp,
	l32i.n	a14, sp, 16	# %sfp,
	xor	a7, a2, a12	# tmp1036, tmp1032,
.LVL426:
	.loc 1 386 5 is_stmt 0 view .LVU1144
	l32i.n	a12, sp, 4	# %sfp,
	s32i.n	a13, sp, 0	# %sfp,
	and	a7, a7, a14	# tmp1038, tmp1036,
	xor	a13, a2, a5	# tmp1048, tmp1032, a22
	l32i.n	a14, sp, 32	# %sfp,
	l32i.n	a8, sp, 0	# %sfp,
.LVL427:
	.loc 1 386 5 view .LVU1145
	and	a13, a13, a12	# tmp1050, tmp1048,
	xor	a7, a7, a14	# a10, tmp1038,
.LVL428:
	.loc 1 386 5 is_stmt 1 view .LVU1146
	.loc 1 386 5 view .LVU1147
	.loc 1 386 5 view .LVU1148
	l32i.n	a12, sp, 0	# %sfp,
	l32i.n	a14, sp, 4	# %sfp,
	xor	a9, a2, a6	# tmp1042, tmp1032, a21
	xor	a13, a13, a10	# a12, tmp1050, a11
	l32i.n	a10, sp, 8	# %sfp,
.LVL429:
	.loc 1 386 5 is_stmt 0 view .LVU1149
	and	a9, a9, a8	# tmp1044, tmp1042,
	xor	a8, a2, a4	# tmp1054, tmp1032, a23
.LVL430:
	.loc 1 386 5 view .LVU1150
	xor	a11, a9, a11	# a11, tmp1044, a10
.LVL431:
	.loc 1 386 5 is_stmt 1 view .LVU1151
	.loc 1 386 5 view .LVU1152
	.loc 1 386 5 view .LVU1153
	.loc 1 386 5 view .LVU1154
	.loc 1 386 5 view .LVU1155
	.loc 1 386 5 view .LVU1156
	and	a9, a8, a10	# tmp1056, tmp1054,
	xor	a8, a2, a12	# tmp1061, tmp1032,
	xor	a10, a2, a14	# tmp1065, tmp1032,
.LVL432:
	.loc 1 386 5 is_stmt 0 view .LVU1157
	l32i.n	a12, sp, 8	# %sfp,
.LVL433:
	.loc 1 386 5 view .LVU1158
	movi	a14, -0x59	# tmp1069,
.LVL434:
	.loc 1 386 5 view .LVU1159
	and	a10, a10, a13	# tmp1067, tmp1065, a12
	ssai	31	#
	src	a13, a13, a13	#, a12
.LVL435:
	.loc 1 386 5 view .LVU1160
	s32i.n	a13, sp, 20	# %sfp,
	xor	a15, a9, a15	# a13, tmp1056, a12
.LVL436:
	.loc 1 386 5 is_stmt 1 view .LVU1161
	.loc 1 386 5 view .LVU1162
	.loc 1 386 5 view .LVU1163
	l32i.n	a13, sp, 12	# %sfp,
	xor	a9, a2, a12	# tmp1057, tmp1032,
	and	a8, a8, a11	# tmp1063, tmp1061, a11
	xor	a3, a3, a14	# tmp1070, _1022, tmp1069
.LVL437:
# /storage/projects/XKCP/lib/low/Xoodoo/plain/Xoodoo-plain.c:387:     Round(_rc11);
	.loc 1 387 5 is_stmt 0 view .LVU1164
	l32i.n	a14, sp, 8	# %sfp,
# /storage/projects/XKCP/lib/low/Xoodoo/plain/Xoodoo-plain.c:386:     Round(_rc12);
	.loc 1 386 5 view .LVU1165
	ssai	31	#
	src	a12, a15, a15	# a13, a13
	and	a3, a3, a7	# tmp1071, tmp1070, a10
.LVL438:
	.loc 1 386 5 view .LVU1166
	and	a15, a9, a15	# tmp1059, tmp1057, a13
.LVL439:
	.loc 1 386 5 view .LVU1167
	xor	a6, a8, a6	# a21, tmp1063, a21
.LVL440:
# /storage/projects/XKCP/lib/low/Xoodoo/plain/Xoodoo-plain.c:387:     Round(_rc11);
	.loc 1 387 5 view .LVU1168
	l32i.n	a9, sp, 20	# %sfp,
	l32i.n	a8, sp, 4	# %sfp,
# /storage/projects/XKCP/lib/low/Xoodoo/plain/Xoodoo-plain.c:386:     Round(_rc12);
	.loc 1 386 5 view .LVU1169
	xor	a3, a3, a13	# a20, tmp1071,
.LVL441:
	.loc 1 386 5 view .LVU1170
	ssai	24	#
	src	a6, a6, a6	# a23, a21
# /storage/projects/XKCP/lib/low/Xoodoo/plain/Xoodoo-plain.c:387:     Round(_rc11);
	.loc 1 387 5 view .LVU1171
	l32i.n	a13, sp, 0	# %sfp,
# /storage/projects/XKCP/lib/low/Xoodoo/plain/Xoodoo-plain.c:386:     Round(_rc12);
	.loc 1 386 5 view .LVU1172
	xor	a4, a15, a4	# a23, tmp1059, a23
.LVL442:
# /storage/projects/XKCP/lib/low/Xoodoo/plain/Xoodoo-plain.c:387:     Round(_rc11);
	.loc 1 387 5 view .LVU1173
	xor	a15, a14, a12	# tmp1073,, a13
	xor	a15, a15, a6	# v1, tmp1073, a23
# /storage/projects/XKCP/lib/low/Xoodoo/plain/Xoodoo-plain.c:386:     Round(_rc12);
	.loc 1 386 5 view .LVU1174
	ssai	31	#
	src	a11, a11, a11	# a11, a11
.LVL443:
	.loc 1 386 5 view .LVU1175
	xor	a10, a10, a5	# a22, tmp1067, a22
	ssai	31	#
	src	a5, a7, a7	# a10, a10
.LVL444:
	.loc 1 386 5 is_stmt 1 view .LVU1176
	.loc 1 386 5 view .LVU1177
	.loc 1 386 5 view .LVU1178
	.loc 1 386 5 view .LVU1179
# /storage/projects/XKCP/lib/low/Xoodoo/plain/Xoodoo-plain.c:387:     Round(_rc11);
	.loc 1 387 5 is_stmt 0 view .LVU1180
	xor	a7, a8, a9	# tmp1076,,
	xor	a8, a13, a11	# tmp1075,, a11
	ssai	27	#
	src	a13, a15, a15	# _39, v1
	ssai	18	#
	src	a15, a15, a15	# _40, v1
	l32i.n	a14, sp, 16	# %sfp,
	xor	a15, a13, a15	# v1, _39, _40
# /storage/projects/XKCP/lib/low/Xoodoo/plain/Xoodoo-plain.c:386:     Round(_rc12);
	.loc 1 386 5 view .LVU1181
	ssai	24	#
	src	a10, a10, a10	# v1, a22
	ssai	24	#
	src	a3, a3, a3	# a22, a20
.LVL445:
# /storage/projects/XKCP/lib/low/Xoodoo/plain/Xoodoo-plain.c:387:     Round(_rc11);
	.loc 1 387 5 view .LVU1182
	xor	a7, a7, a3	# v2, tmp1076, a22
	xor	a9, a5, a10	# tmp1074, a10, v1
.LVL446:
# /storage/projects/XKCP/lib/low/Xoodoo/plain/Xoodoo-plain.c:386:     Round(_rc12);
	.loc 1 386 5 view .LVU1183
	ssai	24	#
	src	a4, a4, a4	# v1, a23
.LVL447:
	.loc 1 386 5 is_stmt 1 view .LVU1184
	.loc 1 386 5 view .LVU1185
	.loc 1 386 5 view .LVU1186
	.loc 1 386 5 view .LVU1187
	.loc 1 386 5 view .LVU1188
	.loc 1 386 17 view .LVU1189
	.loc 1 387 5 view .LVU1190
	.loc 1 387 5 view .LVU1191
	xor	a10, a10, a15	# a20, v1, v1
.LVL448:
	.loc 1 387 5 is_stmt 0 view .LVU1192
	xor	a9, a9, a14	# v2, tmp1074,
.LVL449:
	.loc 1 387 5 is_stmt 1 view .LVU1193
	xor	a8, a8, a4	# v1, tmp1075, v1
	ssai	27	#
	src	a14, a7, a7	# _47, v2
.LVL450:
	.loc 1 387 5 view .LVU1194
	.loc 1 387 5 view .LVU1195
	ssai	21	#
	src	a10, a10, a10	#, a20
	ssai	18	#
	src	a7, a7, a7	# _48, v2
	xor	a7, a14, a7	# v2, _47, _48
	s32i.n	a10, sp, 12	# %sfp,
	ssai	27	#
	src	a14, a8, a8	# _45, v1
	l32i.n	a10, sp, 20	# %sfp,
	ssai	18	#
	src	a8, a8, a8	# _46, v1
	xor	a8, a14, a8	# v1, _45, _46
	ssai	27	#
	src	a13, a9, a9	# _42, v2
	ssai	18	#
	src	a9, a9, a9	# _43, v2
.LVL451:
	.loc 1 387 5 is_stmt 0 view .LVU1196
	xor	a9, a13, a9	# v2, _42, _43
	l32i.n	a14, sp, 12	# %sfp,
	xor	a13, a10, a8	# a12,, v1
	xor	a12, a12, a7	#, a13, v2
.LVL452:
	.loc 1 387 5 view .LVU1197
	l32i.n	a10, sp, 16	# %sfp,
	s32i.n	a12, sp, 24	# %sfp,
	xor	a12, a2, a12	# tmp1077, tmp1032,
	xor	a5, a5, a15	# a10, a10, v1
.LVL453:
	.loc 1 387 5 is_stmt 1 view .LVU1198
	.loc 1 387 5 view .LVU1199
	.loc 1 387 5 view .LVU1200
	.loc 1 387 5 view .LVU1201
	and	a12, a12, a14	# tmp1079, tmp1077,
	xor	a15, a10, a15	# tmp1080,, v1
.LVL454:
	.loc 1 387 5 is_stmt 0 view .LVU1202
	xor	a15, a12, a15	# _1020, tmp1079, tmp1080
.LVL455:
	.loc 1 387 5 view .LVU1203
	l32i.n	a12, sp, 0	# %sfp,
	xor	a11, a11, a9	# a11, a11, v2
.LVL456:
	.loc 1 387 5 view .LVU1204
	xor	a4, a4, a9	# a21, v1, v2
.LVL457:
	.loc 1 387 5 view .LVU1205
	xor	a3, a3, a8	# a22, a22, v1
.LVL458:
	.loc 1 387 5 view .LVU1206
	xor	a9, a12, a9	# a01,, v2
.LVL459:
	.loc 1 387 5 view .LVU1207
	l32i.n	a12, sp, 4	# %sfp,
	ssai	21	#
	src	a3, a3, a3	# a22, a22
	xor	a14, a2, a11	# tmp1091, tmp1032, a11
	xor	a8, a12, a8	# a02,, v1
	and	a14, a14, a3	# tmp1093, tmp1091, a22
	xor	a14, a14, a8	#, tmp1093, a02
	s32i.n	a14, sp, 4	# %sfp,
.LVL460:
	.loc 1 387 5 view .LVU1208
	xor	a6, a6, a7	# a23, a23, v2
.LVL461:
	.loc 1 387 5 view .LVU1209
	l32i.n	a14, sp, 8	# %sfp,
	ssai	21	#
	src	a6, a6, a6	# a23, a23
	ssai	21	#
	src	a4, a4, a4	# a21, a21
.LVL462:
	.loc 1 387 5 is_stmt 1 view .LVU1210
	.loc 1 387 5 view .LVU1211
	.loc 1 387 5 view .LVU1212
	.loc 1 387 5 view .LVU1213
	.loc 1 387 5 view .LVU1214
	.loc 1 387 5 view .LVU1215
	.loc 1 387 5 view .LVU1216
	.loc 1 387 5 view .LVU1217
	.loc 1 387 5 view .LVU1218
	xor	a10, a2, a5	# tmp1085, tmp1032, a10
	xor	a12, a2, a13	# tmp1097, tmp1032, a12
	.loc 1 387 5 is_stmt 0 view .LVU1219
	movi.n	a8, 0x38	# tmp1081,
.LVL463:
	.loc 1 387 5 view .LVU1220
	xor	a8, a15, a8	#, _1020, tmp1081
	xor	a7, a14, a7	# a03,, v2
.LVL464:
	.loc 1 387 5 is_stmt 1 view .LVU1221
	.loc 1 387 5 view .LVU1222
	.loc 1 387 5 view .LVU1223
	.loc 1 387 5 view .LVU1224
	.loc 1 387 5 view .LVU1225
	.loc 1 387 5 view .LVU1226
	.loc 1 387 5 view .LVU1227
	.loc 1 387 5 view .LVU1228
	.loc 1 387 5 view .LVU1229
	.loc 1 387 5 view .LVU1230
	.loc 1 387 5 view .LVU1231
	.loc 1 387 5 view .LVU1232
	.loc 1 387 5 view .LVU1233
	.loc 1 387 5 view .LVU1234
	.loc 1 387 5 view .LVU1235
	.loc 1 387 5 view .LVU1236
	.loc 1 387 5 view .LVU1237
	and	a10, a10, a4	# tmp1087, tmp1085, a21
	and	a12, a12, a6	# tmp1099, tmp1097, a23
	s32i.n	a8, sp, 16	# %sfp,
.LVL465:
	.loc 1 387 5 is_stmt 0 view .LVU1238
	xor	a10, a10, a9	#, tmp1087, a01
	l32i.n	a8, sp, 12	# %sfp,
	xor	a12, a12, a7	#, tmp1099, a03
	s32i.n	a10, sp, 0	# %sfp,
	.loc 1 387 5 view .LVU1239
	s32i.n	a12, sp, 8	# %sfp,
	.loc 1 387 5 view .LVU1240
	l32i.n	a12, sp, 16	# %sfp,
	l32i.n	a14, sp, 0	# %sfp,
	.loc 1 387 5 view .LVU1241
	xor	a10, a2, a8	# tmp1082, tmp1032,
	l32i.n	a7, sp, 4	# %sfp,
.LVL466:
	.loc 1 387 5 view .LVU1242
	xor	a9, a2, a4	# tmp1088, tmp1032, a21
.LVL467:
	.loc 1 387 5 view .LVU1243
	and	a10, a10, a12	# tmp1084, tmp1082,
	l32i.n	a12, sp, 24	# %sfp,
	xor	a8, a2, a3	# tmp1094, tmp1032, a22
	and	a9, a9, a14	# tmp1090, tmp1088,
	l32i.n	a14, sp, 8	# %sfp,
	xor	a9, a9, a5	# a11, tmp1090, a10
	xor	a10, a10, a12	# a10, tmp1084,
.LVL468:
	.loc 1 387 5 is_stmt 1 view .LVU1244
	.loc 1 387 5 view .LVU1245
	.loc 1 387 5 view .LVU1246
	.loc 1 387 5 view .LVU1247
	.loc 1 387 5 view .LVU1248
	.loc 1 387 5 view .LVU1249
	l32i.n	a5, sp, 0	# %sfp,
	l32i.n	a12, sp, 4	# %sfp,
	and	a8, a8, a7	# tmp1096, tmp1094,
	xor	a7, a2, a6	# tmp1100, tmp1032, a23
.LVL469:
	.loc 1 387 5 is_stmt 0 view .LVU1250
	and	a7, a7, a14	# tmp1102, tmp1100,
	xor	a8, a8, a11	# a12, tmp1096, a11
.LVL470:
	.loc 1 387 5 is_stmt 1 view .LVU1251
	.loc 1 387 5 view .LVU1252
	.loc 1 387 5 view .LVU1253
	xor	a13, a7, a13	# a13, tmp1102, a12
.LVL471:
	.loc 1 387 5 view .LVU1254
	.loc 1 387 5 view .LVU1255
	.loc 1 387 5 view .LVU1256
	xor	a11, a2, a5	# tmp1107, tmp1032,
	xor	a7, a2, a14	# tmp1103, tmp1032,
	xor	a5, a2, a12	# tmp1111, tmp1032,
	ssai	31	#
	src	a14, a8, a8	# a12, a12
.LVL472:
	.loc 1 387 5 is_stmt 0 view .LVU1257
	and	a5, a5, a8	# tmp1113, tmp1111, a12
	ssai	31	#
	src	a8, a13, a13	#, a13
.LVL473:
	.loc 1 387 5 view .LVU1258
	and	a13, a7, a13	# tmp1105, tmp1103, a13
.LVL474:
	.loc 1 387 5 view .LVU1259
	xor	a13, a13, a6	# a23, tmp1105, a23
# /storage/projects/XKCP/lib/low/Xoodoo/plain/Xoodoo-plain.c:388:     Round(_rc10);
	.loc 1 388 5 view .LVU1260
	l32i.n	a6, sp, 8	# %sfp,
# /storage/projects/XKCP/lib/low/Xoodoo/plain/Xoodoo-plain.c:387:     Round(_rc11);
	.loc 1 387 5 view .LVU1261
	and	a11, a11, a9	# tmp1109, tmp1107, a11
	movi	a12, -0x39	# tmp1115,
.LVL475:
	.loc 1 387 5 view .LVU1262
	s32i.n	a8, sp, 20	# %sfp,
	.loc 1 387 5 view .LVU1263
	xor	a15, a15, a12	# tmp1116, _1020, tmp1115
.LVL476:
	.loc 1 387 5 view .LVU1264
	xor	a4, a11, a4	# a21, tmp1109, a21
.LVL477:
	.loc 1 387 5 view .LVU1265
	xor	a5, a5, a3	# a22, tmp1113, a22
	l32i.n	a11, sp, 12	# %sfp,
# /storage/projects/XKCP/lib/low/Xoodoo/plain/Xoodoo-plain.c:388:     Round(_rc10);
	.loc 1 388 5 view .LVU1266
	xor	a3, a6, a8	# tmp1119,,
	.loc 1 388 5 view .LVU1267
	l32i.n	a8, sp, 4	# %sfp,
# /storage/projects/XKCP/lib/low/Xoodoo/plain/Xoodoo-plain.c:387:     Round(_rc11);
	.loc 1 387 5 view .LVU1268
	and	a15, a15, a10	# tmp1117, tmp1116, a10
.LVL478:
# /storage/projects/XKCP/lib/low/Xoodoo/plain/Xoodoo-plain.c:388:     Round(_rc10);
	.loc 1 388 5 view .LVU1269
	xor	a7, a8, a14	# tmp1122,, a12
# /storage/projects/XKCP/lib/low/Xoodoo/plain/Xoodoo-plain.c:387:     Round(_rc11);
	.loc 1 387 5 view .LVU1270
	xor	a15, a15, a11	# a20, tmp1117,
.LVL479:
# /storage/projects/XKCP/lib/low/Xoodoo/plain/Xoodoo-plain.c:388:     Round(_rc10);
	.loc 1 388 5 view .LVU1271
	l32i.n	a8, sp, 0	# %sfp,
	l32i.n	a11, sp, 16	# %sfp,
# /storage/projects/XKCP/lib/low/Xoodoo/plain/Xoodoo-plain.c:387:     Round(_rc11);
	.loc 1 387 5 view .LVU1272
	ssai	31	#
	src	a12, a9, a9	# a11, a11
	ssai	24	#
	src	a15, a15, a15	# a22, a20
.LVL480:
	.loc 1 387 5 view .LVU1273
	ssai	24	#
	src	a4, a4, a4	# a23, a21
	ssai	24	#
	src	a5, a5, a5	# v1, a22
	ssai	31	#
	src	a10, a10, a10	# a10, a10
.LVL481:
	.loc 1 387 5 is_stmt 1 view .LVU1274
	.loc 1 387 5 view .LVU1275
	.loc 1 387 5 view .LVU1276
	.loc 1 387 5 view .LVU1277
	ssai	24	#
	src	a6, a13, a13	# v1, a23
.LVL482:
	.loc 1 387 5 view .LVU1278
	.loc 1 387 5 view .LVU1279
	.loc 1 387 5 view .LVU1280
	.loc 1 387 5 view .LVU1281
	.loc 1 387 5 view .LVU1282
	.loc 1 387 17 view .LVU1283
	.loc 1 388 5 view .LVU1284
	xor	a7, a7, a15	# v2, tmp1122, a22
	xor	a13, a3, a4	# v1, tmp1119, a23
.LVL483:
	.loc 1 388 5 view .LVU1285
	xor	a9, a11, a5	# tmp1120,, v1
	xor	a3, a8, a12	# tmp1121,, a11
	xor	a9, a9, a10	# v2, tmp1120, a10
.LVL484:
	.loc 1 388 5 view .LVU1286
	xor	a3, a3, a6	# v1, tmp1121, v1
	ssai	27	#
	src	a11, a13, a13	# _75, v1
	ssai	27	#
	src	a8, a7, a7	# _83, v2
	ssai	18	#
	src	a13, a13, a13	# _76, v1
.LVL485:
	.loc 1 388 5 is_stmt 0 view .LVU1287
	ssai	18	#
	src	a7, a7, a7	# _84, v2
	xor	a13, a11, a13	# v1, _75, _76
.LVL486:
	.loc 1 388 5 is_stmt 1 view .LVU1288
	.loc 1 388 5 view .LVU1289
	xor	a7, a8, a7	# v2, _83, _84
	ssai	27	#
	src	a11, a3, a3	# _81, v1
	ssai	27	#
	src	a8, a9, a9	# _78, v2
	ssai	18	#
	src	a3, a3, a3	# _82, v1
	ssai	18	#
	src	a9, a9, a9	# _79, v2
.LVL487:
	.loc 1 388 5 is_stmt 0 view .LVU1290
	xor	a9, a8, a9	# v2, _78, _79
	xor	a8, a11, a3	# v1, _81, _82
	l32i.n	a11, sp, 20	# %sfp,
	xor	a5, a5, a13	# a20, v1, v1
.LVL488:
	.loc 1 388 5 view .LVU1291
	xor	a11, a11, a7	#,, v2
	s32i.n	a11, sp, 20	# %sfp,
.LVL489:
	.loc 1 388 5 view .LVU1292
	ssai	21	#
	src	a5, a5, a5	#, a20
	s32i.n	a5, sp, 12	# %sfp,
	xor	a5, a12, a9	# a11, a11, v2
	l32i.n	a12, sp, 20	# %sfp,
.LVL490:
	.loc 1 388 5 view .LVU1293
	xor	a11, a10, a13	# a10, a10, v1
.LVL491:
	.loc 1 388 5 is_stmt 1 view .LVU1294
	.loc 1 388 5 view .LVU1295
	.loc 1 388 5 view .LVU1296
	.loc 1 388 5 view .LVU1297
	xor	a10, a2, a12	# tmp1123, tmp1032,
	l32i.n	a12, sp, 12	# %sfp,
	xor	a3, a15, a8	# a22, a22, v1
	and	a10, a10, a12	# tmp1125, tmp1123,
	l32i.n	a12, sp, 16	# %sfp,
	xor	a6, a6, a9	# a21, v1, v2
.LVL492:
	.loc 1 388 5 is_stmt 0 view .LVU1298
	xor	a13, a12, a13	# tmp1126,, v1
.LVL493:
	.loc 1 388 5 view .LVU1299
	xor	a13, a10, a13	# _1018, tmp1125, tmp1126
.LVL494:
	.loc 1 388 5 view .LVU1300
	l32i.n	a10, sp, 0	# %sfp,
	ssai	21	#
	src	a3, a3, a3	# a22, a22
	xor	a9, a10, a9	# a01,, v2
.LVL495:
	.loc 1 388 5 view .LVU1301
	l32i.n	a10, sp, 4	# %sfp,
	xor	a12, a2, a5	# tmp1137, tmp1032, a11
	ssai	21	#
	src	a6, a6, a6	# a21, a21
	xor	a14, a14, a8	# a12, a12, v1
.LVL496:
	.loc 1 388 5 view .LVU1302
	xor	a15, a2, a11	# tmp1131, tmp1032, a10
.LVL497:
	.loc 1 388 5 view .LVU1303
	xor	a8, a10, a8	# a02,, v1
	and	a12, a12, a3	# tmp1139, tmp1137, a22
	and	a15, a15, a6	# tmp1133, tmp1131, a21
	xor	a12, a12, a8	#, tmp1139, a02
	movi	a8, 0x3c0	# tmp1127,
	xor	a9, a15, a9	#, tmp1133, a01
	xor	a8, a13, a8	#, _1018, tmp1127
	s32i.n	a9, sp, 0	# %sfp,
.LVL498:
	.loc 1 388 5 view .LVU1304
	s32i.n	a8, sp, 16	# %sfp,
	.loc 1 388 5 view .LVU1305
	xor	a4, a4, a7	# a23, a23, v2
.LVL499:
	.loc 1 388 5 is_stmt 1 view .LVU1306
	.loc 1 388 5 view .LVU1307
	.loc 1 388 5 view .LVU1308
	.loc 1 388 5 view .LVU1309
	.loc 1 388 5 view .LVU1310
	.loc 1 388 5 view .LVU1311
	.loc 1 388 5 view .LVU1312
	.loc 1 388 5 view .LVU1313
	.loc 1 388 5 view .LVU1314
	s32i.n	a12, sp, 4	# %sfp,
	.loc 1 388 5 is_stmt 0 view .LVU1315
	l32i.n	a12, sp, 8	# %sfp,
	ssai	21	#
	src	a4, a4, a4	# a23, a23
	xor	a10, a2, a14	# tmp1143, tmp1032, a12
	.loc 1 388 5 view .LVU1316
	xor	a7, a12, a7	# a03,, v2
.LVL500:
	.loc 1 388 5 is_stmt 1 view .LVU1317
	.loc 1 388 5 view .LVU1318
	.loc 1 388 5 view .LVU1319
	.loc 1 388 5 view .LVU1320
	.loc 1 388 5 view .LVU1321
	.loc 1 388 5 view .LVU1322
	.loc 1 388 5 view .LVU1323
	.loc 1 388 5 view .LVU1324
	.loc 1 388 5 view .LVU1325
	.loc 1 388 5 view .LVU1326
	.loc 1 388 5 view .LVU1327
	.loc 1 388 5 view .LVU1328
	.loc 1 388 5 view .LVU1329
	.loc 1 388 5 view .LVU1330
	.loc 1 388 5 view .LVU1331
	.loc 1 388 5 view .LVU1332
	.loc 1 388 5 view .LVU1333
	and	a10, a10, a4	# tmp1145, tmp1143, a23
	l32i.n	a8, sp, 12	# %sfp,
.LVL501:
	.loc 1 388 5 is_stmt 0 view .LVU1334
	xor	a10, a10, a7	#, tmp1145, a03
	s32i.n	a10, sp, 8	# %sfp,
	l32i.n	a10, sp, 16	# %sfp,
	l32i.n	a12, sp, 0	# %sfp,
	xor	a9, a2, a8	# tmp1128, tmp1032,
	and	a9, a9, a10	# tmp1130, tmp1128,
	xor	a8, a2, a6	# tmp1134, tmp1032, a21
	l32i.n	a10, sp, 20	# %sfp,
	l32i.n	a7, sp, 4	# %sfp,
.LVL502:
	.loc 1 388 5 view .LVU1335
	and	a8, a8, a12	# tmp1136, tmp1134,
	xor	a9, a9, a10	# a10, tmp1130,
.LVL503:
	.loc 1 388 5 is_stmt 1 view .LVU1336
	.loc 1 388 5 view .LVU1337
	.loc 1 388 5 view .LVU1338
	xor	a8, a8, a11	# a11, tmp1136, a10
.LVL504:
	.loc 1 388 5 view .LVU1339
	.loc 1 388 5 view .LVU1340
	.loc 1 388 5 view .LVU1341
	l32i.n	a10, sp, 4	# %sfp,
	l32i.n	a11, sp, 8	# %sfp,
	xor	a15, a2, a3	# tmp1140, tmp1032, a22
	and	a15, a15, a7	# tmp1142, tmp1140,
	xor	a7, a2, a4	# tmp1146, tmp1032, a23
.LVL505:
	.loc 1 388 5 is_stmt 0 view .LVU1342
	xor	a15, a15, a5	# a12, tmp1142, a11
.LVL506:
	.loc 1 388 5 is_stmt 1 view .LVU1343
	.loc 1 388 5 view .LVU1344
	.loc 1 388 5 view .LVU1345
	and	a7, a7, a11	# tmp1148, tmp1146,
	xor	a5, a2, a12	# tmp1153, tmp1032,
	xor	a12, a2, a10	# tmp1157, tmp1032,
.LVL507:
	.loc 1 388 5 is_stmt 0 view .LVU1346
	xor	a14, a7, a14	# a13, tmp1148, a12
.LVL508:
	.loc 1 388 5 is_stmt 1 view .LVU1347
	.loc 1 388 5 view .LVU1348
	.loc 1 388 5 view .LVU1349
	and	a5, a5, a8	# tmp1155, tmp1153, a11
	xor	a7, a2, a11	# tmp1149, tmp1032,
	movi	a10, -0x3c1	# tmp1161,
.LVL509:
	.loc 1 388 5 is_stmt 0 view .LVU1350
	and	a11, a12, a15	# tmp1159, tmp1157, a12
.LVL510:
	.loc 1 388 5 view .LVU1351
	ssai	31	#
	src	a12, a15, a15	#, a12
	s32i.n	a12, sp, 20	# %sfp,
.LVL511:
	.loc 1 388 5 view .LVU1352
	xor	a13, a13, a10	# tmp1162, _1018, tmp1161
.LVL512:
	.loc 1 388 5 view .LVU1353
	ssai	31	#
	src	a12, a14, a14	# a13, a13
	xor	a6, a5, a6	# a21, tmp1155, a21
.LVL513:
	.loc 1 388 5 view .LVU1354
	and	a14, a7, a14	# tmp1151, tmp1149, a13
.LVL514:
	.loc 1 388 5 view .LVU1355
	l32i.n	a5, sp, 12	# %sfp,
# /storage/projects/XKCP/lib/low/Xoodoo/plain/Xoodoo-plain.c:389:     Round(_rc9);
	.loc 1 389 5 view .LVU1356
	l32i.n	a7, sp, 8	# %sfp,
# /storage/projects/XKCP/lib/low/Xoodoo/plain/Xoodoo-plain.c:388:     Round(_rc10);
	.loc 1 388 5 view .LVU1357
	xor	a14, a14, a4	# a23, tmp1151, a23
	and	a13, a13, a9	# tmp1163, tmp1162, a10
.LVL515:
# /storage/projects/XKCP/lib/low/Xoodoo/plain/Xoodoo-plain.c:389:     Round(_rc9);
	.loc 1 389 5 view .LVU1358
	l32i.n	a4, sp, 20	# %sfp,
# /storage/projects/XKCP/lib/low/Xoodoo/plain/Xoodoo-plain.c:388:     Round(_rc10);
	.loc 1 388 5 view .LVU1359
	xor	a3, a11, a3	# a22, tmp1159, a22
.LVL516:
	.loc 1 388 5 view .LVU1360
	ssai	31	#
	src	a11, a8, a8	# a11, a11
# /storage/projects/XKCP/lib/low/Xoodoo/plain/Xoodoo-plain.c:389:     Round(_rc9);
	.loc 1 389 5 view .LVU1361
	l32i.n	a8, sp, 4	# %sfp,
.LVL517:
# /storage/projects/XKCP/lib/low/Xoodoo/plain/Xoodoo-plain.c:388:     Round(_rc10);
	.loc 1 388 5 view .LVU1362
	xor	a13, a13, a5	# a20, tmp1163,
.LVL518:
	.loc 1 388 5 view .LVU1363
	ssai	24	#
	src	a10, a13, a13	# a22, a20
	ssai	24	#
	src	a6, a6, a6	# a23, a21
# /storage/projects/XKCP/lib/low/Xoodoo/plain/Xoodoo-plain.c:389:     Round(_rc9);
	.loc 1 389 5 view .LVU1364
	xor	a13, a7, a12	# tmp1165,, a13
.LVL519:
	.loc 1 389 5 view .LVU1365
	xor	a7, a8, a4	# tmp1168,,
	l32i.n	a8, sp, 16	# %sfp,
# /storage/projects/XKCP/lib/low/Xoodoo/plain/Xoodoo-plain.c:388:     Round(_rc10);
	.loc 1 388 5 view .LVU1366
	ssai	24	#
	src	a4, a14, a14	# v1, a23
# /storage/projects/XKCP/lib/low/Xoodoo/plain/Xoodoo-plain.c:389:     Round(_rc9);
	.loc 1 389 5 view .LVU1367
	l32i.n	a14, sp, 0	# %sfp,
	xor	a13, a13, a6	# v1, tmp1165, a23
# /storage/projects/XKCP/lib/low/Xoodoo/plain/Xoodoo-plain.c:388:     Round(_rc10);
	.loc 1 388 5 view .LVU1368
	ssai	24	#
	src	a3, a3, a3	# v1, a22
	ssai	31	#
	src	a5, a9, a9	# a10, a10
.LVL520:
	.loc 1 388 5 is_stmt 1 view .LVU1369
	.loc 1 388 5 view .LVU1370
	.loc 1 388 5 view .LVU1371
	.loc 1 388 5 view .LVU1372
	.loc 1 388 5 view .LVU1373
	.loc 1 388 5 view .LVU1374
	.loc 1 388 5 view .LVU1375
	.loc 1 388 5 view .LVU1376
	.loc 1 388 5 view .LVU1377
	.loc 1 388 17 view .LVU1378
	.loc 1 389 5 view .LVU1379
	.loc 1 389 5 view .LVU1380
	xor	a7, a7, a10	# v2, tmp1168, a22
	xor	a9, a8, a3	# tmp1166,, v1
	ssai	27	#
	src	a15, a13, a13	# _111, v1
	xor	a8, a14, a11	# tmp1167,, a11
	ssai	18	#
	src	a13, a13, a13	# _112, v1
.LVL521:
	.loc 1 389 5 is_stmt 0 view .LVU1381
	xor	a13, a15, a13	# v1, _111, _112
	xor	a8, a8, a4	# v1, tmp1167, v1
	ssai	27	#
	src	a14, a7, a7	# _119, v2
	ssai	18	#
	src	a7, a7, a7	# _120, v2
	xor	a7, a14, a7	# v2, _119, _120
	xor	a3, a3, a13	# a20, v1, v1
.LVL522:
	.loc 1 389 5 view .LVU1382
	ssai	27	#
	src	a14, a8, a8	# _117, v1
	ssai	18	#
	src	a8, a8, a8	# _118, v1
	xor	a8, a14, a8	# v1, _117, _118
	ssai	21	#
	src	a3, a3, a3	#, a20
	s32i.n	a3, sp, 12	# %sfp,
	xor	a9, a9, a5	# v2, tmp1166, a10
.LVL523:
	.loc 1 389 5 is_stmt 1 view .LVU1383
	.loc 1 389 5 view .LVU1384
	.loc 1 389 5 view .LVU1385
	xor	a3, a10, a8	# a22, a22, v1
	l32i.n	a10, sp, 20	# %sfp,
.LVL524:
	.loc 1 389 5 is_stmt 0 view .LVU1386
	ssai	27	#
	src	a15, a9, a9	# _114, v2
	ssai	18	#
	src	a9, a9, a9	# _115, v2
.LVL525:
	.loc 1 389 5 view .LVU1387
	xor	a9, a15, a9	# v2, _114, _115
	l32i.n	a14, sp, 12	# %sfp,
	xor	a15, a10, a8	# a12,, v1
	xor	a12, a12, a7	#, a13, v2
.LVL526:
	.loc 1 389 5 view .LVU1388
	l32i.n	a10, sp, 16	# %sfp,
	s32i.n	a12, sp, 24	# %sfp,
	.loc 1 389 5 view .LVU1389
	xor	a12, a2, a12	# tmp1169, tmp1032,
	xor	a5, a5, a13	# a10, a10, v1
.LVL527:
	.loc 1 389 5 is_stmt 1 view .LVU1390
	.loc 1 389 5 view .LVU1391
	.loc 1 389 5 view .LVU1392
	.loc 1 389 5 view .LVU1393
	and	a12, a12, a14	# tmp1171, tmp1169,
	xor	a13, a10, a13	# tmp1172,, v1
.LVL528:
	.loc 1 389 5 is_stmt 0 view .LVU1394
	xor	a13, a12, a13	# _1016, tmp1171, tmp1172
.LVL529:
	.loc 1 389 5 view .LVU1395
	xor	a4, a4, a9	# a21, v1, v2
.LVL530:
	.loc 1 389 5 view .LVU1396
	l32i.n	a12, sp, 0	# %sfp,
	ssai	21	#
	src	a4, a4, a4	# a21, a21
	xor	a14, a2, a5	# tmp1177, tmp1032, a10
	xor	a11, a11, a9	# a11, a11, v2
.LVL531:
	.loc 1 389 5 view .LVU1397
	and	a14, a14, a4	# tmp1179, tmp1177, a21
	xor	a9, a12, a9	# a01,, v2
.LVL532:
	.loc 1 389 5 view .LVU1398
	l32i.n	a12, sp, 4	# %sfp,
	ssai	21	#
	src	a3, a3, a3	# a22, a22
	xor	a10, a2, a11	# tmp1183, tmp1032, a11
	xor	a14, a14, a9	#, tmp1179, a01
	s32i.n	a14, sp, 0	# %sfp,
.LVL533:
	.loc 1 389 5 view .LVU1399
	xor	a8, a12, a8	# a02,, v1
	l32i.n	a14, sp, 8	# %sfp,
	xor	a6, a6, a7	# a23, a23, v2
.LVL534:
	.loc 1 389 5 is_stmt 1 view .LVU1400
	.loc 1 389 5 view .LVU1401
	.loc 1 389 5 view .LVU1402
	.loc 1 389 5 view .LVU1403
	.loc 1 389 5 view .LVU1404
	.loc 1 389 5 view .LVU1405
	.loc 1 389 5 view .LVU1406
	.loc 1 389 5 view .LVU1407
	.loc 1 389 5 view .LVU1408
	and	a10, a10, a3	# tmp1185, tmp1183, a22
	ssai	21	#
	src	a6, a6, a6	# a23, a23
	xor	a12, a2, a15	# tmp1189, tmp1032, a12
	xor	a10, a10, a8	#, tmp1185, a02
	movi	a8, 0xd0	# tmp1173,
.LVL535:
	.loc 1 389 5 is_stmt 0 view .LVU1409
	s32i.n	a10, sp, 4	# %sfp,
	.loc 1 389 5 view .LVU1410
	xor	a8, a13, a8	#, _1016, tmp1173
	xor	a7, a14, a7	# a03,, v2
.LVL536:
	.loc 1 389 5 is_stmt 1 view .LVU1411
	.loc 1 389 5 view .LVU1412
	.loc 1 389 5 view .LVU1413
	.loc 1 389 5 view .LVU1414
	.loc 1 389 5 view .LVU1415
	.loc 1 389 5 view .LVU1416
	.loc 1 389 5 view .LVU1417
	.loc 1 389 5 view .LVU1418
	.loc 1 389 5 view .LVU1419
	.loc 1 389 5 view .LVU1420
	.loc 1 389 5 view .LVU1421
	.loc 1 389 5 view .LVU1422
	.loc 1 389 5 view .LVU1423
	.loc 1 389 5 view .LVU1424
	.loc 1 389 5 view .LVU1425
	.loc 1 389 5 view .LVU1426
	.loc 1 389 5 view .LVU1427
	and	a12, a12, a6	# tmp1191, tmp1189, a23
	s32i.n	a8, sp, 16	# %sfp,
.LVL537:
	.loc 1 389 5 is_stmt 0 view .LVU1428
	xor	a12, a12, a7	#, tmp1191, a03
	l32i.n	a8, sp, 12	# %sfp,
	l32i.n	a7, sp, 4	# %sfp,
.LVL538:
	.loc 1 389 5 view .LVU1429
	xor	a14, a2, a3	# tmp1186, tmp1032, a22
	l32i.n	a10, sp, 16	# %sfp,
	xor	a9, a2, a8	# tmp1174, tmp1032,
.LVL539:
	.loc 1 389 5 view .LVU1430
	and	a14, a14, a7	# tmp1188, tmp1186,
	s32i.n	a12, sp, 8	# %sfp,
	.loc 1 389 5 view .LVU1431
	xor	a14, a14, a11	# a12, tmp1188, a11
	l32i.n	a12, sp, 0	# %sfp,
	and	a9, a9, a10	# tmp1176, tmp1174,
	l32i.n	a10, sp, 24	# %sfp,
	l32i.n	a11, sp, 8	# %sfp,
.LVL540:
	.loc 1 389 5 view .LVU1432
	xor	a8, a2, a4	# tmp1180, tmp1032, a21
	xor	a7, a2, a6	# tmp1192, tmp1032, a23
	and	a7, a7, a11	# tmp1194, tmp1192,
	and	a8, a8, a12	# tmp1182, tmp1180,
	xor	a11, a2, a12	# tmp1199, tmp1032,
	l32i.n	a12, sp, 4	# %sfp,
	xor	a8, a8, a5	# a11, tmp1182, a10
	xor	a9, a9, a10	# a10, tmp1176,
.LVL541:
	.loc 1 389 5 is_stmt 1 view .LVU1433
	.loc 1 389 5 view .LVU1434
	.loc 1 389 5 view .LVU1435
	.loc 1 389 5 view .LVU1436
	.loc 1 389 5 view .LVU1437
	.loc 1 389 5 view .LVU1438
	.loc 1 389 5 view .LVU1439
	.loc 1 389 5 view .LVU1440
	.loc 1 389 5 view .LVU1441
	and	a11, a11, a8	# tmp1201, tmp1199, a11
	xor	a10, a2, a12	# tmp1203, tmp1032,
	movi	a12, -0xd1	# tmp1207,
.LVL542:
	.loc 1 389 5 is_stmt 0 view .LVU1442
	xor	a15, a7, a15	# a13, tmp1194, a12
.LVL543:
	.loc 1 389 5 is_stmt 1 view .LVU1443
	.loc 1 389 5 view .LVU1444
	.loc 1 389 5 view .LVU1445
	xor	a13, a13, a12	# tmp1208, _1016, tmp1207
.LVL544:
	.loc 1 389 5 is_stmt 0 view .LVU1446
	l32i.n	a7, sp, 8	# %sfp,
	xor	a4, a11, a4	# a21, tmp1201, a21
.LVL545:
	.loc 1 389 5 view .LVU1447
	l32i.n	a11, sp, 12	# %sfp,
# /storage/projects/XKCP/lib/low/Xoodoo/plain/Xoodoo-plain.c:390:     Round(_rc8);
	.loc 1 390 5 view .LVU1448
	l32i.n	a12, sp, 8	# %sfp,
# /storage/projects/XKCP/lib/low/Xoodoo/plain/Xoodoo-plain.c:389:     Round(_rc9);
	.loc 1 389 5 view .LVU1449
	and	a13, a13, a9	# tmp1209, tmp1208, a10
.LVL546:
	.loc 1 389 5 view .LVU1450
	xor	a5, a2, a7	# tmp1195, tmp1032,
	xor	a13, a13, a11	# a20, tmp1209,
.LVL547:
	.loc 1 389 5 view .LVU1451
	and	a7, a10, a14	# tmp1205, tmp1203, a12
	ssai	31	#
	src	a10, a15, a15	# a13, a13
	ssai	31	#
	src	a14, a14, a14	#, a12
.LVL548:
	.loc 1 389 5 view .LVU1452
	s32i.n	a14, sp, 20	# %sfp,
	xor	a7, a7, a3	# a22, tmp1205, a22
	and	a15, a5, a15	# tmp1197, tmp1195, a13
.LVL549:
	.loc 1 389 5 view .LVU1453
	ssai	24	#
	src	a3, a13, a13	# a22, a20
# /storage/projects/XKCP/lib/low/Xoodoo/plain/Xoodoo-plain.c:390:     Round(_rc8);
	.loc 1 390 5 view .LVU1454
	xor	a13, a12, a10	# tmp1211,, a13
.LVL550:
	.loc 1 390 5 view .LVU1455
	l32i.n	a12, sp, 16	# %sfp,
# /storage/projects/XKCP/lib/low/Xoodoo/plain/Xoodoo-plain.c:389:     Round(_rc9);
	.loc 1 389 5 view .LVU1456
	ssai	31	#
	src	a5, a8, a8	# a11, a11
	ssai	24	#
	src	a14, a7, a7	# v1, a22
# /storage/projects/XKCP/lib/low/Xoodoo/plain/Xoodoo-plain.c:390:     Round(_rc8);
	.loc 1 390 5 view .LVU1457
	l32i.n	a8, sp, 20	# %sfp,
.LVL551:
# /storage/projects/XKCP/lib/low/Xoodoo/plain/Xoodoo-plain.c:389:     Round(_rc9);
	.loc 1 389 5 view .LVU1458
	xor	a15, a15, a6	# a23, tmp1197, a23
# /storage/projects/XKCP/lib/low/Xoodoo/plain/Xoodoo-plain.c:390:     Round(_rc8);
	.loc 1 390 5 view .LVU1459
	l32i.n	a6, sp, 4	# %sfp,
# /storage/projects/XKCP/lib/low/Xoodoo/plain/Xoodoo-plain.c:389:     Round(_rc9);
	.loc 1 389 5 view .LVU1460
	ssai	31	#
	src	a11, a9, a9	# a10, a10
.LVL552:
	.loc 1 389 5 is_stmt 1 view .LVU1461
	.loc 1 389 5 view .LVU1462
	.loc 1 389 5 view .LVU1463
	.loc 1 389 5 view .LVU1464
	ssai	24	#
	src	a4, a4, a4	# a23, a21
# /storage/projects/XKCP/lib/low/Xoodoo/plain/Xoodoo-plain.c:390:     Round(_rc8);
	.loc 1 390 5 is_stmt 0 view .LVU1465
	xor	a9, a12, a14	# tmp1212,, v1
.LVL553:
	.loc 1 390 5 view .LVU1466
	l32i.n	a12, sp, 0	# %sfp,
	xor	a7, a6, a8	# tmp1214,,
	xor	a13, a13, a4	# v1, tmp1211, a23
# /storage/projects/XKCP/lib/low/Xoodoo/plain/Xoodoo-plain.c:389:     Round(_rc9);
	.loc 1 389 5 view .LVU1467
	ssai	24	#
	src	a6, a15, a15	# v1, a23
.LVL554:
	.loc 1 389 5 is_stmt 1 view .LVU1468
	.loc 1 389 5 view .LVU1469
	.loc 1 389 5 view .LVU1470
	.loc 1 389 5 view .LVU1471
	.loc 1 389 5 view .LVU1472
	.loc 1 389 16 view .LVU1473
	.loc 1 390 5 view .LVU1474
	.loc 1 390 5 view .LVU1475
	xor	a7, a7, a3	# v2, tmp1214, a22
	xor	a8, a12, a5	# tmp1213,, a11
.LVL555:
	.loc 1 390 5 is_stmt 0 view .LVU1476
	ssai	27	#
	src	a15, a13, a13	# _147, v1
	ssai	18	#
	src	a13, a13, a13	# _148, v1
.LVL556:
	.loc 1 390 5 view .LVU1477
	xor	a13, a15, a13	# v1, _147, _148
	xor	a8, a8, a6	# v1, tmp1213, v1
	ssai	27	#
	src	a12, a7, a7	# _155, v2
	ssai	18	#
	src	a7, a7, a7	# _156, v2
	xor	a7, a12, a7	# v2, _155, _156
	xor	a14, a14, a13	# a20, v1, v1
.LVL557:
	.loc 1 390 5 view .LVU1478
	ssai	27	#
	src	a12, a8, a8	# _153, v1
	ssai	18	#
	src	a8, a8, a8	# _154, v1
	xor	a8, a12, a8	# v1, _153, _154
	ssai	21	#
	src	a14, a14, a14	#, a20
	l32i.n	a12, sp, 20	# %sfp,
	s32i.n	a14, sp, 12	# %sfp,
	xor	a10, a10, a7	#, a13, v2
.LVL558:
	.loc 1 390 5 view .LVU1479
	xor	a14, a12, a8	# a12,, v1
	l32i.n	a12, sp, 12	# %sfp,
	s32i.n	a10, sp, 24	# %sfp,
	xor	a10, a2, a10	# tmp1215, tmp1032,
	and	a10, a10, a12	# tmp1217, tmp1215,
	l32i.n	a12, sp, 16	# %sfp,
	xor	a9, a9, a11	# v2, tmp1212, a10
.LVL559:
	.loc 1 390 5 is_stmt 1 view .LVU1480
	.loc 1 390 5 view .LVU1481
	.loc 1 390 5 view .LVU1482
	xor	a11, a11, a13	# a10, a10, v1
.LVL560:
	.loc 1 390 5 view .LVU1483
	.loc 1 390 5 view .LVU1484
	.loc 1 390 5 view .LVU1485
	xor	a13, a12, a13	# tmp1218,, v1
.LVL561:
	.loc 1 390 5 is_stmt 0 view .LVU1486
	ssai	27	#
	src	a15, a9, a9	# _150, v2
	xor	a13, a10, a13	# _1014, tmp1217, tmp1218
.LVL562:
	.loc 1 390 5 view .LVU1487
	ssai	18	#
	src	a9, a9, a9	# _151, v2
.LVL563:
	.loc 1 390 5 view .LVU1488
	l32i.n	a10, sp, 0	# %sfp,
	xor	a9, a15, a9	# v2, _150, _151
.LVL564:
	.loc 1 390 5 is_stmt 1 view .LVU1489
	xor	a5, a5, a9	# a11, a11, v2
.LVL565:
	.loc 1 390 5 is_stmt 0 view .LVU1490
	xor	a6, a6, a9	# a21, v1, v2
.LVL566:
	.loc 1 390 5 view .LVU1491
	xor	a3, a3, a8	# a22, a22, v1
.LVL567:
	.loc 1 390 5 view .LVU1492
	xor	a9, a10, a9	# a01,, v2
.LVL568:
	.loc 1 390 5 view .LVU1493
	l32i.n	a10, sp, 4	# %sfp,
	ssai	21	#
	src	a3, a3, a3	# a22, a22
	xor	a12, a2, a5	# tmp1229, tmp1032, a11
	xor	a8, a10, a8	# a02,, v1
	and	a12, a12, a3	# tmp1231, tmp1229, a22
	xor	a12, a12, a8	#, tmp1231, a02
	s32i.n	a12, sp, 4	# %sfp,
.LVL569:
	.loc 1 390 5 view .LVU1494
	xor	a4, a4, a7	# a23, a23, v2
.LVL570:
	.loc 1 390 5 view .LVU1495
	l32i.n	a12, sp, 8	# %sfp,
	ssai	21	#
	src	a4, a4, a4	# a23, a23
	ssai	21	#
	src	a6, a6, a6	# a21, a21
.LVL571:
	.loc 1 390 5 is_stmt 1 view .LVU1496
	.loc 1 390 5 view .LVU1497
	.loc 1 390 5 view .LVU1498
	.loc 1 390 5 view .LVU1499
	.loc 1 390 5 view .LVU1500
	.loc 1 390 5 view .LVU1501
	.loc 1 390 5 view .LVU1502
	.loc 1 390 5 view .LVU1503
	.loc 1 390 5 view .LVU1504
	xor	a15, a2, a11	# tmp1223, tmp1032, a10
	xor	a10, a2, a14	# tmp1235, tmp1032, a12
	movi	a8, 0x120	# tmp1219,
.LVL572:
	.loc 1 390 5 is_stmt 0 view .LVU1505
	and	a15, a15, a6	# tmp1225, tmp1223, a21
	xor	a8, a13, a8	#, _1014, tmp1219
	xor	a7, a12, a7	# a03,, v2
.LVL573:
	.loc 1 390 5 is_stmt 1 view .LVU1506
	.loc 1 390 5 view .LVU1507
	.loc 1 390 5 view .LVU1508
	.loc 1 390 5 view .LVU1509
	.loc 1 390 5 view .LVU1510
	.loc 1 390 5 view .LVU1511
	.loc 1 390 5 view .LVU1512
	.loc 1 390 5 view .LVU1513
	.loc 1 390 5 view .LVU1514
	.loc 1 390 5 view .LVU1515
	.loc 1 390 5 view .LVU1516
	.loc 1 390 5 view .LVU1517
	.loc 1 390 5 view .LVU1518
	.loc 1 390 5 view .LVU1519
	.loc 1 390 5 view .LVU1520
	.loc 1 390 5 view .LVU1521
	.loc 1 390 5 view .LVU1522
	and	a10, a10, a4	# tmp1237, tmp1235, a23
	s32i.n	a8, sp, 16	# %sfp,
.LVL574:
	.loc 1 390 5 is_stmt 0 view .LVU1523
	xor	a9, a15, a9	#, tmp1225, a01
.LVL575:
	.loc 1 390 5 view .LVU1524
	l32i.n	a8, sp, 12	# %sfp,
	xor	a10, a10, a7	#, tmp1237, a03
	s32i.n	a9, sp, 0	# %sfp,
	.loc 1 390 5 view .LVU1525
	s32i.n	a10, sp, 8	# %sfp,
	l32i.n	a10, sp, 16	# %sfp,
	l32i.n	a12, sp, 0	# %sfp,
	xor	a9, a2, a8	# tmp1220, tmp1032,
	and	a9, a9, a10	# tmp1222, tmp1220,
	xor	a8, a2, a6	# tmp1226, tmp1032, a21
	l32i.n	a10, sp, 24	# %sfp,
	l32i.n	a7, sp, 4	# %sfp,
.LVL576:
	.loc 1 390 5 view .LVU1526
	and	a8, a8, a12	# tmp1228, tmp1226,
	xor	a9, a9, a10	# a10, tmp1222,
.LVL577:
	.loc 1 390 5 is_stmt 1 view .LVU1527
	.loc 1 390 5 view .LVU1528
	.loc 1 390 5 view .LVU1529
	xor	a8, a8, a11	# a11, tmp1228, a10
.LVL578:
	.loc 1 390 5 view .LVU1530
	.loc 1 390 5 view .LVU1531
	.loc 1 390 5 view .LVU1532
	l32i.n	a10, sp, 4	# %sfp,
	l32i.n	a11, sp, 8	# %sfp,
	xor	a15, a2, a3	# tmp1232, tmp1032, a22
	and	a15, a15, a7	# tmp1234, tmp1232,
	xor	a7, a2, a4	# tmp1238, tmp1032, a23
.LVL579:
	.loc 1 390 5 is_stmt 0 view .LVU1533
	xor	a15, a15, a5	# a12, tmp1234, a11
.LVL580:
	.loc 1 390 5 is_stmt 1 view .LVU1534
	.loc 1 390 5 view .LVU1535
	.loc 1 390 5 view .LVU1536
	and	a7, a7, a11	# tmp1240, tmp1238,
	xor	a5, a2, a12	# tmp1245, tmp1032,
	xor	a12, a2, a10	# tmp1249, tmp1032,
.LVL581:
	.loc 1 390 5 is_stmt 0 view .LVU1537
	xor	a14, a7, a14	# a13, tmp1240, a12
.LVL582:
	.loc 1 390 5 is_stmt 1 view .LVU1538
	.loc 1 390 5 view .LVU1539
	.loc 1 390 5 view .LVU1540
	and	a5, a5, a8	# tmp1247, tmp1245, a11
	xor	a7, a2, a11	# tmp1241, tmp1032,
	movi	a10, -0x121	# tmp1253,
.LVL583:
	.loc 1 390 5 is_stmt 0 view .LVU1541
	and	a11, a12, a15	# tmp1251, tmp1249, a12
.LVL584:
	.loc 1 390 5 view .LVU1542
	ssai	31	#
	src	a12, a15, a15	#, a12
	s32i.n	a12, sp, 20	# %sfp,
	xor	a13, a13, a10	# tmp1254, _1014, tmp1253
.LVL585:
	.loc 1 390 5 view .LVU1543
	ssai	31	#
	src	a12, a14, a14	# a13, a13
	xor	a6, a5, a6	# a21, tmp1247, a21
.LVL586:
	.loc 1 390 5 view .LVU1544
	and	a14, a7, a14	# tmp1243, tmp1241, a13
.LVL587:
	.loc 1 390 5 view .LVU1545
	l32i.n	a5, sp, 12	# %sfp,
	xor	a14, a14, a4	# a23, tmp1243, a23
# /storage/projects/XKCP/lib/low/Xoodoo/plain/Xoodoo-plain.c:391:     Round(_rc7);
	.loc 1 391 5 view .LVU1546
	l32i.n	a7, sp, 8	# %sfp,
# /storage/projects/XKCP/lib/low/Xoodoo/plain/Xoodoo-plain.c:390:     Round(_rc8);
	.loc 1 390 5 view .LVU1547
	and	a13, a13, a9	# tmp1255, tmp1254, a10
.LVL588:
# /storage/projects/XKCP/lib/low/Xoodoo/plain/Xoodoo-plain.c:391:     Round(_rc7);
	.loc 1 391 5 view .LVU1548
	l32i.n	a4, sp, 20	# %sfp,
# /storage/projects/XKCP/lib/low/Xoodoo/plain/Xoodoo-plain.c:390:     Round(_rc8);
	.loc 1 390 5 view .LVU1549
	xor	a3, a11, a3	# a22, tmp1251, a22
.LVL589:
	.loc 1 390 5 view .LVU1550
	ssai	31	#
	src	a11, a8, a8	# a11, a11
# /storage/projects/XKCP/lib/low/Xoodoo/plain/Xoodoo-plain.c:391:     Round(_rc7);
	.loc 1 391 5 view .LVU1551
	l32i.n	a8, sp, 4	# %sfp,
.LVL590:
# /storage/projects/XKCP/lib/low/Xoodoo/plain/Xoodoo-plain.c:390:     Round(_rc8);
	.loc 1 390 5 view .LVU1552
	xor	a13, a13, a5	# a20, tmp1255,
.LVL591:
	.loc 1 390 5 view .LVU1553
	ssai	24	#
	src	a10, a13, a13	# a22, a20
	ssai	24	#
	src	a6, a6, a6	# a23, a21
# /storage/projects/XKCP/lib/low/Xoodoo/plain/Xoodoo-plain.c:391:     Round(_rc7);
	.loc 1 391 5 view .LVU1554
	xor	a13, a7, a12	# tmp1257,, a13
.LVL592:
	.loc 1 391 5 view .LVU1555
	xor	a7, a8, a4	# tmp1260,,
	l32i.n	a8, sp, 16	# %sfp,
# /storage/projects/XKCP/lib/low/Xoodoo/plain/Xoodoo-plain.c:390:     Round(_rc8);
	.loc 1 390 5 view .LVU1556
	ssai	24	#
	src	a4, a14, a14	# v1, a23
# /storage/projects/XKCP/lib/low/Xoodoo/plain/Xoodoo-plain.c:391:     Round(_rc7);
	.loc 1 391 5 view .LVU1557
	l32i.n	a14, sp, 0	# %sfp,
	xor	a13, a13, a6	# v1, tmp1257, a23
# /storage/projects/XKCP/lib/low/Xoodoo/plain/Xoodoo-plain.c:390:     Round(_rc8);
	.loc 1 390 5 view .LVU1558
	ssai	24	#
	src	a3, a3, a3	# v1, a22
	ssai	31	#
	src	a5, a9, a9	# a10, a10
.LVL593:
	.loc 1 390 5 is_stmt 1 view .LVU1559
	.loc 1 390 5 view .LVU1560
	.loc 1 390 5 view .LVU1561
	.loc 1 390 5 view .LVU1562
	.loc 1 390 5 view .LVU1563
	.loc 1 390 5 view .LVU1564
	.loc 1 390 5 view .LVU1565
	.loc 1 390 5 view .LVU1566
	.loc 1 390 5 view .LVU1567
	.loc 1 390 16 view .LVU1568
	.loc 1 391 5 view .LVU1569
	.loc 1 391 5 view .LVU1570
	xor	a7, a7, a10	# v2, tmp1260, a22
	xor	a9, a8, a3	# tmp1258,, v1
	ssai	27	#
	src	a15, a13, a13	# _183, v1
	xor	a8, a14, a11	# tmp1259,, a11
	ssai	18	#
	src	a13, a13, a13	# _184, v1
.LVL594:
	.loc 1 391 5 is_stmt 0 view .LVU1571
	xor	a13, a15, a13	# v1, _183, _184
	xor	a8, a8, a4	# v1, tmp1259, v1
	ssai	27	#
	src	a14, a7, a7	# _191, v2
	ssai	18	#
	src	a7, a7, a7	# _192, v2
	xor	a7, a14, a7	# v2, _191, _192
	xor	a3, a3, a13	# a20, v1, v1
.LVL595:
	.loc 1 391 5 view .LVU1572
	ssai	27	#
	src	a14, a8, a8	# _189, v1
	ssai	18	#
	src	a8, a8, a8	# _190, v1
	xor	a8, a14, a8	# v1, _189, _190
	ssai	21	#
	src	a3, a3, a3	#, a20
	s32i.n	a3, sp, 12	# %sfp,
	xor	a9, a9, a5	# v2, tmp1258, a10
.LVL596:
	.loc 1 391 5 is_stmt 1 view .LVU1573
	.loc 1 391 5 view .LVU1574
	.loc 1 391 5 view .LVU1575
	xor	a3, a10, a8	# a22, a22, v1
	l32i.n	a10, sp, 20	# %sfp,
.LVL597:
	.loc 1 391 5 is_stmt 0 view .LVU1576
	ssai	27	#
	src	a15, a9, a9	# _186, v2
	ssai	18	#
	src	a9, a9, a9	# _187, v2
.LVL598:
	.loc 1 391 5 view .LVU1577
	xor	a9, a15, a9	# v2, _186, _187
	l32i.n	a14, sp, 12	# %sfp,
	xor	a15, a10, a8	# a12,, v1
	xor	a12, a12, a7	#, a13, v2
.LVL599:
	.loc 1 391 5 view .LVU1578
	l32i.n	a10, sp, 16	# %sfp,
	s32i.n	a12, sp, 24	# %sfp,
	xor	a12, a2, a12	# tmp1261, tmp1032,
	xor	a5, a5, a13	# a10, a10, v1
.LVL600:
	.loc 1 391 5 is_stmt 1 view .LVU1579
	.loc 1 391 5 view .LVU1580
	.loc 1 391 5 view .LVU1581
	.loc 1 391 5 view .LVU1582
	and	a12, a12, a14	# tmp1263, tmp1261,
	xor	a13, a10, a13	# tmp1264,, v1
.LVL601:
	.loc 1 391 5 is_stmt 0 view .LVU1583
	xor	a13, a12, a13	# _1012, tmp1263, tmp1264
.LVL602:
	.loc 1 391 5 view .LVU1584
	xor	a4, a4, a9	# a21, v1, v2
.LVL603:
	.loc 1 391 5 view .LVU1585
	l32i.n	a12, sp, 0	# %sfp,
	ssai	21	#
	src	a4, a4, a4	# a21, a21
	xor	a14, a2, a5	# tmp1269, tmp1032, a10
	xor	a11, a11, a9	# a11, a11, v2
.LVL604:
	.loc 1 391 5 view .LVU1586
	and	a14, a14, a4	# tmp1271, tmp1269, a21
	xor	a9, a12, a9	# a01,, v2
.LVL605:
	.loc 1 391 5 view .LVU1587
	l32i.n	a12, sp, 4	# %sfp,
	ssai	21	#
	src	a3, a3, a3	# a22, a22
	xor	a10, a2, a11	# tmp1275, tmp1032, a11
	xor	a14, a14, a9	#, tmp1271, a01
	s32i.n	a14, sp, 0	# %sfp,
.LVL606:
	.loc 1 391 5 view .LVU1588
	xor	a8, a12, a8	# a02,, v1
	l32i.n	a14, sp, 8	# %sfp,
	xor	a6, a6, a7	# a23, a23, v2
.LVL607:
	.loc 1 391 5 is_stmt 1 view .LVU1589
	.loc 1 391 5 view .LVU1590
	.loc 1 391 5 view .LVU1591
	.loc 1 391 5 view .LVU1592
	.loc 1 391 5 view .LVU1593
	.loc 1 391 5 view .LVU1594
	.loc 1 391 5 view .LVU1595
	.loc 1 391 5 view .LVU1596
	.loc 1 391 5 view .LVU1597
	and	a10, a10, a3	# tmp1277, tmp1275, a22
	ssai	21	#
	src	a6, a6, a6	# a23, a23
	xor	a12, a2, a15	# tmp1281, tmp1032, a12
	xor	a10, a10, a8	#, tmp1277, a02
	s32i.n	a10, sp, 4	# %sfp,
	xor	a7, a14, a7	# a03,, v2
.LVL608:
	.loc 1 391 5 view .LVU1598
	.loc 1 391 5 view .LVU1599
	.loc 1 391 5 view .LVU1600
	.loc 1 391 5 view .LVU1601
	.loc 1 391 5 view .LVU1602
	.loc 1 391 5 view .LVU1603
	.loc 1 391 5 view .LVU1604
	.loc 1 391 5 view .LVU1605
	.loc 1 391 5 view .LVU1606
	.loc 1 391 5 view .LVU1607
	.loc 1 391 5 view .LVU1608
	.loc 1 391 5 view .LVU1609
	.loc 1 391 5 view .LVU1610
	.loc 1 391 5 view .LVU1611
	.loc 1 391 5 view .LVU1612
	.loc 1 391 5 view .LVU1613
	.loc 1 391 5 view .LVU1614
	and	a12, a12, a6	# tmp1283, tmp1281, a23
	xor	a12, a12, a7	#, tmp1283, a03
	movi.n	a8, 0x14	# tmp1265,
.LVL609:
	.loc 1 391 5 is_stmt 0 view .LVU1615
	l32i.n	a7, sp, 4	# %sfp,
.LVL610:
	.loc 1 391 5 view .LVU1616
	xor	a8, a13, a8	#, _1012, tmp1265
	xor	a14, a2, a3	# tmp1278, tmp1032, a22
	s32i.n	a12, sp, 8	# %sfp,
	.loc 1 391 5 view .LVU1617
	s32i.n	a8, sp, 16	# %sfp,
.LVL611:
	.loc 1 391 5 view .LVU1618
	and	a14, a14, a7	# tmp1280, tmp1278,
	l32i.n	a8, sp, 12	# %sfp,
	l32i.n	a12, sp, 0	# %sfp,
	l32i.n	a10, sp, 16	# %sfp,
	xor	a14, a14, a11	# a12, tmp1280, a11
	l32i.n	a11, sp, 8	# %sfp,
.LVL612:
	.loc 1 391 5 view .LVU1619
	xor	a9, a2, a8	# tmp1266, tmp1032,
.LVL613:
	.loc 1 391 5 view .LVU1620
	xor	a7, a2, a6	# tmp1284, tmp1032, a23
	xor	a8, a2, a4	# tmp1272, tmp1032, a21
	and	a7, a7, a11	# tmp1286, tmp1284,
	and	a9, a9, a10	# tmp1268, tmp1266,
	xor	a11, a2, a12	# tmp1291, tmp1032,
	l32i.n	a10, sp, 24	# %sfp,
	and	a8, a8, a12	# tmp1274, tmp1272,
	l32i.n	a12, sp, 4	# %sfp,
	xor	a8, a8, a5	# a11, tmp1274, a10
	xor	a9, a9, a10	# a10, tmp1268,
.LVL614:
	.loc 1 391 5 is_stmt 1 view .LVU1621
	.loc 1 391 5 view .LVU1622
	.loc 1 391 5 view .LVU1623
	.loc 1 391 5 view .LVU1624
	.loc 1 391 5 view .LVU1625
	.loc 1 391 5 view .LVU1626
	.loc 1 391 5 view .LVU1627
	.loc 1 391 5 view .LVU1628
	.loc 1 391 5 view .LVU1629
	xor	a15, a7, a15	# a13, tmp1286, a12
.LVL615:
	.loc 1 391 5 view .LVU1630
	.loc 1 391 5 view .LVU1631
	.loc 1 391 5 view .LVU1632
	xor	a10, a2, a12	# tmp1295, tmp1032,
	l32i.n	a7, sp, 8	# %sfp,
	and	a11, a11, a8	# tmp1293, tmp1291, a11
	movi.n	a12, -0x15	# tmp1299,
.LVL616:
	.loc 1 391 5 is_stmt 0 view .LVU1633
	xor	a13, a13, a12	# tmp1300, _1012, tmp1299
.LVL617:
	.loc 1 391 5 view .LVU1634
	xor	a4, a11, a4	# a21, tmp1293, a21
.LVL618:
	.loc 1 391 5 view .LVU1635
	l32i.n	a11, sp, 12	# %sfp,
	xor	a5, a2, a7	# tmp1287, tmp1032,
# /storage/projects/XKCP/lib/low/Xoodoo/plain/Xoodoo-plain.c:392:     Round(_rc6);
	.loc 1 392 5 view .LVU1636
	l32i.n	a12, sp, 8	# %sfp,
# /storage/projects/XKCP/lib/low/Xoodoo/plain/Xoodoo-plain.c:391:     Round(_rc7);
	.loc 1 391 5 view .LVU1637
	and	a7, a10, a14	# tmp1297, tmp1295, a12
	and	a13, a13, a9	# tmp1301, tmp1300, a10
.LVL619:
	.loc 1 391 5 view .LVU1638
	ssai	31	#
	src	a14, a14, a14	#, a12
.LVL620:
	.loc 1 391 5 view .LVU1639
	s32i.n	a14, sp, 20	# %sfp,
	ssai	31	#
	src	a10, a15, a15	# a13, a13
	xor	a13, a13, a11	# a20, tmp1301,
.LVL621:
	.loc 1 391 5 view .LVU1640
	and	a15, a5, a15	# tmp1289, tmp1287, a13
.LVL622:
	.loc 1 391 5 view .LVU1641
	xor	a7, a7, a3	# a22, tmp1297, a22
	ssai	31	#
	src	a5, a8, a8	# a11, a11
	ssai	24	#
	src	a3, a13, a13	# a22, a20
# /storage/projects/XKCP/lib/low/Xoodoo/plain/Xoodoo-plain.c:392:     Round(_rc6);
	.loc 1 392 5 view .LVU1642
	l32i.n	a8, sp, 20	# %sfp,
.LVL623:
# /storage/projects/XKCP/lib/low/Xoodoo/plain/Xoodoo-plain.c:391:     Round(_rc7);
	.loc 1 391 5 view .LVU1643
	xor	a15, a15, a6	# a23, tmp1289, a23
# /storage/projects/XKCP/lib/low/Xoodoo/plain/Xoodoo-plain.c:392:     Round(_rc6);
	.loc 1 392 5 view .LVU1644
	xor	a13, a12, a10	# tmp1303,, a13
.LVL624:
	.loc 1 392 5 view .LVU1645
	l32i.n	a6, sp, 4	# %sfp,
	.loc 1 392 5 view .LVU1646
	l32i.n	a12, sp, 16	# %sfp,
# /storage/projects/XKCP/lib/low/Xoodoo/plain/Xoodoo-plain.c:391:     Round(_rc7);
	.loc 1 391 5 view .LVU1647
	ssai	24	#
	src	a14, a7, a7	# v1, a22
	ssai	31	#
	src	a11, a9, a9	# a10, a10
.LVL625:
	.loc 1 391 5 is_stmt 1 view .LVU1648
	.loc 1 391 5 view .LVU1649
	.loc 1 391 5 view .LVU1650
	.loc 1 391 5 view .LVU1651
# /storage/projects/XKCP/lib/low/Xoodoo/plain/Xoodoo-plain.c:392:     Round(_rc6);
	.loc 1 392 5 is_stmt 0 view .LVU1652
	xor	a7, a6, a8	# tmp1306,,
	xor	a9, a12, a14	# tmp1304,, v1
.LVL626:
# /storage/projects/XKCP/lib/low/Xoodoo/plain/Xoodoo-plain.c:391:     Round(_rc7);
	.loc 1 391 5 view .LVU1653
	ssai	24	#
	src	a4, a4, a4	# a23, a21
# /storage/projects/XKCP/lib/low/Xoodoo/plain/Xoodoo-plain.c:392:     Round(_rc6);
	.loc 1 392 5 view .LVU1654
	l32i.n	a12, sp, 0	# %sfp,
	xor	a13, a13, a4	# v1, tmp1303, a23
	xor	a7, a7, a3	# v2, tmp1306, a22
# /storage/projects/XKCP/lib/low/Xoodoo/plain/Xoodoo-plain.c:391:     Round(_rc7);
	.loc 1 391 5 view .LVU1655
	ssai	24	#
	src	a6, a15, a15	# v1, a23
.LVL627:
	.loc 1 391 5 is_stmt 1 view .LVU1656
	.loc 1 391 5 view .LVU1657
	.loc 1 391 5 view .LVU1658
	.loc 1 391 5 view .LVU1659
	.loc 1 391 5 view .LVU1660
	.loc 1 391 16 view .LVU1661
	.loc 1 392 5 view .LVU1662
	.loc 1 392 5 view .LVU1663
	xor	a8, a12, a5	# tmp1305,, a11
.LVL628:
	.loc 1 392 5 is_stmt 0 view .LVU1664
	ssai	27	#
	src	a15, a13, a13	# _219, v1
	ssai	27	#
	src	a12, a7, a7	# _227, v2
	ssai	18	#
	src	a13, a13, a13	# _220, v1
.LVL629:
	.loc 1 392 5 view .LVU1665
	ssai	18	#
	src	a7, a7, a7	# _228, v2
	xor	a13, a15, a13	# v1, _219, _220
	xor	a7, a12, a7	# v2, _227, _228
	xor	a8, a8, a6	# v1, tmp1305, v1
	ssai	27	#
	src	a12, a8, a8	# _225, v1
	xor	a10, a10, a7	#, a13, v2
.LVL630:
	.loc 1 392 5 view .LVU1666
	xor	a14, a14, a13	# a20, v1, v1
.LVL631:
	.loc 1 392 5 view .LVU1667
	ssai	18	#
	src	a8, a8, a8	# _226, v1
	s32i.n	a10, sp, 24	# %sfp,
	xor	a8, a12, a8	# v1, _225, _226
	ssai	21	#
	src	a14, a14, a14	#, a20
	l32i.n	a12, sp, 20	# %sfp,
	s32i.n	a14, sp, 12	# %sfp,
	xor	a14, a12, a8	# a12,, v1
	l32i.n	a12, sp, 12	# %sfp,
	xor	a10, a2, a10	# tmp1307, tmp1032,
	and	a10, a10, a12	# tmp1309, tmp1307,
	l32i.n	a12, sp, 16	# %sfp,
	xor	a9, a9, a11	# v2, tmp1304, a10
.LVL632:
	.loc 1 392 5 is_stmt 1 view .LVU1668
	.loc 1 392 5 view .LVU1669
	.loc 1 392 5 view .LVU1670
	xor	a11, a11, a13	# a10, a10, v1
.LVL633:
	.loc 1 392 5 view .LVU1671
	.loc 1 392 5 view .LVU1672
	.loc 1 392 5 view .LVU1673
	xor	a13, a12, a13	# tmp1310,, v1
	ssai	27	#
	src	a15, a9, a9	# _222, v2
	xor	a13, a10, a13	# _1010, tmp1309, tmp1310
	ssai	18	#
	src	a9, a9, a9	# _223, v2
.LVL634:
	.loc 1 392 5 is_stmt 0 view .LVU1674
	l32i.n	a10, sp, 0	# %sfp,
	xor	a9, a15, a9	# v2, _222, _223
.LVL635:
	.loc 1 392 5 is_stmt 1 view .LVU1675
	xor	a5, a5, a9	# a11, a11, v2
.LVL636:
	.loc 1 392 5 is_stmt 0 view .LVU1676
	xor	a6, a6, a9	# a21, v1, v2
.LVL637:
	.loc 1 392 5 view .LVU1677
	xor	a3, a3, a8	# a22, a22, v1
.LVL638:
	.loc 1 392 5 view .LVU1678
	xor	a9, a10, a9	# a01,, v2
.LVL639:
	.loc 1 392 5 view .LVU1679
	l32i.n	a10, sp, 4	# %sfp,
	ssai	21	#
	src	a3, a3, a3	# a22, a22
	xor	a12, a2, a5	# tmp1321, tmp1032, a11
	xor	a8, a10, a8	# a02,, v1
	and	a12, a12, a3	# tmp1323, tmp1321, a22
	xor	a12, a12, a8	#, tmp1323, a02
	s32i.n	a12, sp, 4	# %sfp,
.LVL640:
	.loc 1 392 5 view .LVU1680
	xor	a4, a4, a7	# a23, a23, v2
.LVL641:
	.loc 1 392 5 view .LVU1681
	l32i.n	a12, sp, 8	# %sfp,
	ssai	21	#
	src	a4, a4, a4	# a23, a23
	ssai	21	#
	src	a6, a6, a6	# a21, a21
.LVL642:
	.loc 1 392 5 is_stmt 1 view .LVU1682
	.loc 1 392 5 view .LVU1683
	.loc 1 392 5 view .LVU1684
	.loc 1 392 5 view .LVU1685
	.loc 1 392 5 view .LVU1686
	.loc 1 392 5 view .LVU1687
	.loc 1 392 5 view .LVU1688
	.loc 1 392 5 view .LVU1689
	.loc 1 392 5 view .LVU1690
	xor	a15, a2, a11	# tmp1315, tmp1032, a10
	xor	a10, a2, a14	# tmp1327, tmp1032, a12
	movi	a8, 0x60	# tmp1311,
.LVL643:
	.loc 1 392 5 is_stmt 0 view .LVU1691
	and	a15, a15, a6	# tmp1317, tmp1315, a21
	xor	a8, a13, a8	#, _1010, tmp1311
	xor	a7, a12, a7	# a03,, v2
.LVL644:
	.loc 1 392 5 is_stmt 1 view .LVU1692
	.loc 1 392 5 view .LVU1693
	.loc 1 392 5 view .LVU1694
	.loc 1 392 5 view .LVU1695
	.loc 1 392 5 view .LVU1696
	.loc 1 392 5 view .LVU1697
	.loc 1 392 5 view .LVU1698
	.loc 1 392 5 view .LVU1699
	.loc 1 392 5 view .LVU1700
	.loc 1 392 5 view .LVU1701
	.loc 1 392 5 view .LVU1702
	.loc 1 392 5 view .LVU1703
	.loc 1 392 5 view .LVU1704
	.loc 1 392 5 view .LVU1705
	.loc 1 392 5 view .LVU1706
	.loc 1 392 5 view .LVU1707
	.loc 1 392 5 view .LVU1708
	and	a10, a10, a4	# tmp1329, tmp1327, a23
	s32i.n	a8, sp, 16	# %sfp,
.LVL645:
	.loc 1 392 5 is_stmt 0 view .LVU1709
	xor	a9, a15, a9	#, tmp1317, a01
.LVL646:
	.loc 1 392 5 view .LVU1710
	l32i.n	a8, sp, 12	# %sfp,
	xor	a10, a10, a7	#, tmp1329, a03
	s32i.n	a9, sp, 0	# %sfp,
	.loc 1 392 5 view .LVU1711
	s32i.n	a10, sp, 8	# %sfp,
	l32i.n	a10, sp, 16	# %sfp,
	l32i.n	a12, sp, 0	# %sfp,
	xor	a9, a2, a8	# tmp1312, tmp1032,
	and	a9, a9, a10	# tmp1314, tmp1312,
	xor	a8, a2, a6	# tmp1318, tmp1032, a21
	l32i.n	a10, sp, 24	# %sfp,
	l32i.n	a7, sp, 4	# %sfp,
.LVL647:
	.loc 1 392 5 view .LVU1712
	and	a8, a8, a12	# tmp1320, tmp1318,
	xor	a9, a9, a10	# a10, tmp1314,
.LVL648:
	.loc 1 392 5 is_stmt 1 view .LVU1713
	.loc 1 392 5 view .LVU1714
	.loc 1 392 5 view .LVU1715
	xor	a8, a8, a11	# a11, tmp1320, a10
.LVL649:
	.loc 1 392 5 view .LVU1716
	.loc 1 392 5 view .LVU1717
	.loc 1 392 5 view .LVU1718
	l32i.n	a10, sp, 4	# %sfp,
	l32i.n	a11, sp, 8	# %sfp,
	xor	a15, a2, a3	# tmp1324, tmp1032, a22
	and	a15, a15, a7	# tmp1326, tmp1324,
	xor	a7, a2, a4	# tmp1330, tmp1032, a23
.LVL650:
	.loc 1 392 5 is_stmt 0 view .LVU1719
	xor	a15, a15, a5	# a12, tmp1326, a11
.LVL651:
	.loc 1 392 5 is_stmt 1 view .LVU1720
	.loc 1 392 5 view .LVU1721
	.loc 1 392 5 view .LVU1722
	and	a7, a7, a11	# tmp1332, tmp1330,
	xor	a5, a2, a12	# tmp1337, tmp1032,
	xor	a12, a2, a10	# tmp1341, tmp1032,
.LVL652:
	.loc 1 392 5 is_stmt 0 view .LVU1723
	xor	a14, a7, a14	# a13, tmp1332, a12
.LVL653:
	.loc 1 392 5 is_stmt 1 view .LVU1724
	.loc 1 392 5 view .LVU1725
	.loc 1 392 5 view .LVU1726
	and	a5, a5, a8	# tmp1339, tmp1337, a11
	xor	a7, a2, a11	# tmp1333, tmp1032,
	movi	a10, -0x61	# tmp1345,
.LVL654:
	.loc 1 392 5 is_stmt 0 view .LVU1727
	and	a11, a12, a15	# tmp1343, tmp1341, a12
.LVL655:
	.loc 1 392 5 view .LVU1728
	ssai	31	#
	src	a12, a15, a15	#, a12
	s32i.n	a12, sp, 20	# %sfp,
	xor	a13, a13, a10	# tmp1346, _1010, tmp1345
.LVL656:
	.loc 1 392 5 view .LVU1729
	ssai	31	#
	src	a12, a14, a14	# a13, a13
	xor	a6, a5, a6	# a21, tmp1339, a21
.LVL657:
	.loc 1 392 5 view .LVU1730
	and	a14, a7, a14	# tmp1335, tmp1333, a13
.LVL658:
	.loc 1 392 5 view .LVU1731
	l32i.n	a5, sp, 12	# %sfp,
# /storage/projects/XKCP/lib/low/Xoodoo/plain/Xoodoo-plain.c:393:     Round(_rc5);
	.loc 1 393 5 view .LVU1732
	l32i.n	a7, sp, 8	# %sfp,
# /storage/projects/XKCP/lib/low/Xoodoo/plain/Xoodoo-plain.c:392:     Round(_rc6);
	.loc 1 392 5 view .LVU1733
	xor	a14, a14, a4	# a23, tmp1335, a23
	and	a13, a13, a9	# tmp1347, tmp1346, a10
.LVL659:
# /storage/projects/XKCP/lib/low/Xoodoo/plain/Xoodoo-plain.c:393:     Round(_rc5);
	.loc 1 393 5 view .LVU1734
	l32i.n	a4, sp, 20	# %sfp,
# /storage/projects/XKCP/lib/low/Xoodoo/plain/Xoodoo-plain.c:392:     Round(_rc6);
	.loc 1 392 5 view .LVU1735
	xor	a3, a11, a3	# a22, tmp1343, a22
.LVL660:
	.loc 1 392 5 view .LVU1736
	ssai	31	#
	src	a11, a8, a8	# a11, a11
# /storage/projects/XKCP/lib/low/Xoodoo/plain/Xoodoo-plain.c:393:     Round(_rc5);
	.loc 1 393 5 view .LVU1737
	l32i.n	a8, sp, 4	# %sfp,
.LVL661:
# /storage/projects/XKCP/lib/low/Xoodoo/plain/Xoodoo-plain.c:392:     Round(_rc6);
	.loc 1 392 5 view .LVU1738
	xor	a13, a13, a5	# a20, tmp1347,
.LVL662:
	.loc 1 392 5 view .LVU1739
	ssai	24	#
	src	a10, a13, a13	# a22, a20
	ssai	24	#
	src	a6, a6, a6	# a23, a21
# /storage/projects/XKCP/lib/low/Xoodoo/plain/Xoodoo-plain.c:393:     Round(_rc5);
	.loc 1 393 5 view .LVU1740
	xor	a13, a7, a12	# tmp1349,, a13
.LVL663:
	.loc 1 393 5 view .LVU1741
	xor	a7, a8, a4	# tmp1352,,
	l32i.n	a8, sp, 16	# %sfp,
# /storage/projects/XKCP/lib/low/Xoodoo/plain/Xoodoo-plain.c:392:     Round(_rc6);
	.loc 1 392 5 view .LVU1742
	ssai	24	#
	src	a4, a14, a14	# v1, a23
# /storage/projects/XKCP/lib/low/Xoodoo/plain/Xoodoo-plain.c:393:     Round(_rc5);
	.loc 1 393 5 view .LVU1743
	l32i.n	a14, sp, 0	# %sfp,
	xor	a13, a13, a6	# v1, tmp1349, a23
# /storage/projects/XKCP/lib/low/Xoodoo/plain/Xoodoo-plain.c:392:     Round(_rc6);
	.loc 1 392 5 view .LVU1744
	ssai	24	#
	src	a3, a3, a3	# v1, a22
	ssai	31	#
	src	a5, a9, a9	# a10, a10
.LVL664:
	.loc 1 392 5 is_stmt 1 view .LVU1745
	.loc 1 392 5 view .LVU1746
	.loc 1 392 5 view .LVU1747
	.loc 1 392 5 view .LVU1748
	.loc 1 392 5 view .LVU1749
	.loc 1 392 5 view .LVU1750
	.loc 1 392 5 view .LVU1751
	.loc 1 392 5 view .LVU1752
	.loc 1 392 5 view .LVU1753
	.loc 1 392 16 view .LVU1754
	.loc 1 393 5 view .LVU1755
	.loc 1 393 5 view .LVU1756
	xor	a7, a7, a10	# v2, tmp1352, a22
	xor	a9, a8, a3	# tmp1350,, v1
	ssai	27	#
	src	a15, a13, a13	# _255, v1
	xor	a8, a14, a11	# tmp1351,, a11
	ssai	18	#
	src	a13, a13, a13	# _256, v1
.LVL665:
	.loc 1 393 5 is_stmt 0 view .LVU1757
	xor	a13, a15, a13	# v1, _255, _256
	xor	a8, a8, a4	# v1, tmp1351, v1
	ssai	27	#
	src	a14, a7, a7	# _263, v2
	ssai	18	#
	src	a7, a7, a7	# _264, v2
	xor	a7, a14, a7	# v2, _263, _264
	xor	a3, a3, a13	# a20, v1, v1
.LVL666:
	.loc 1 393 5 view .LVU1758
	ssai	27	#
	src	a14, a8, a8	# _261, v1
	ssai	18	#
	src	a8, a8, a8	# _262, v1
	xor	a8, a14, a8	# v1, _261, _262
	ssai	21	#
	src	a3, a3, a3	#, a20
	s32i.n	a3, sp, 12	# %sfp,
	xor	a9, a9, a5	# v2, tmp1350, a10
.LVL667:
	.loc 1 393 5 is_stmt 1 view .LVU1759
	.loc 1 393 5 view .LVU1760
	.loc 1 393 5 view .LVU1761
	xor	a3, a10, a8	# a22, a22, v1
	l32i.n	a10, sp, 20	# %sfp,
.LVL668:
	.loc 1 393 5 is_stmt 0 view .LVU1762
	ssai	27	#
	src	a15, a9, a9	# _258, v2
	ssai	18	#
	src	a9, a9, a9	# _259, v2
.LVL669:
	.loc 1 393 5 view .LVU1763
	xor	a9, a15, a9	# v2, _258, _259
	l32i.n	a14, sp, 12	# %sfp,
	xor	a15, a10, a8	# a12,, v1
	xor	a12, a12, a7	#, a13, v2
.LVL670:
	.loc 1 393 5 view .LVU1764
	l32i.n	a10, sp, 16	# %sfp,
	s32i.n	a12, sp, 24	# %sfp,
	xor	a12, a2, a12	# tmp1353, tmp1032,
	xor	a5, a5, a13	# a10, a10, v1
.LVL671:
	.loc 1 393 5 is_stmt 1 view .LVU1765
	.loc 1 393 5 view .LVU1766
	.loc 1 393 5 view .LVU1767
	.loc 1 393 5 view .LVU1768
	and	a12, a12, a14	# tmp1355, tmp1353,
	xor	a13, a10, a13	# tmp1356,, v1
.LVL672:
	.loc 1 393 5 is_stmt 0 view .LVU1769
	xor	a13, a12, a13	# _1008, tmp1355, tmp1356
.LVL673:
	.loc 1 393 5 view .LVU1770
	xor	a4, a4, a9	# a21, v1, v2
.LVL674:
	.loc 1 393 5 view .LVU1771
	l32i.n	a12, sp, 0	# %sfp,
	ssai	21	#
	src	a4, a4, a4	# a21, a21
	xor	a14, a2, a5	# tmp1361, tmp1032, a10
	xor	a11, a11, a9	# a11, a11, v2
.LVL675:
	.loc 1 393 5 view .LVU1772
	and	a14, a14, a4	# tmp1363, tmp1361, a21
	xor	a9, a12, a9	# a01,, v2
.LVL676:
	.loc 1 393 5 view .LVU1773
	l32i.n	a12, sp, 4	# %sfp,
	ssai	21	#
	src	a3, a3, a3	# a22, a22
	xor	a10, a2, a11	# tmp1367, tmp1032, a11
	xor	a14, a14, a9	#, tmp1363, a01
	s32i.n	a14, sp, 0	# %sfp,
.LVL677:
	.loc 1 393 5 view .LVU1774
	xor	a8, a12, a8	# a02,, v1
	l32i.n	a14, sp, 8	# %sfp,
	xor	a6, a6, a7	# a23, a23, v2
.LVL678:
	.loc 1 393 5 is_stmt 1 view .LVU1775
	.loc 1 393 5 view .LVU1776
	.loc 1 393 5 view .LVU1777
	.loc 1 393 5 view .LVU1778
	.loc 1 393 5 view .LVU1779
	.loc 1 393 5 view .LVU1780
	.loc 1 393 5 view .LVU1781
	.loc 1 393 5 view .LVU1782
	.loc 1 393 5 view .LVU1783
	and	a10, a10, a3	# tmp1369, tmp1367, a22
	ssai	21	#
	src	a6, a6, a6	# a23, a23
	xor	a12, a2, a15	# tmp1373, tmp1032, a12
	xor	a10, a10, a8	#, tmp1369, a02
	s32i.n	a10, sp, 4	# %sfp,
	xor	a7, a14, a7	# a03,, v2
.LVL679:
	.loc 1 393 5 view .LVU1784
	.loc 1 393 5 view .LVU1785
	.loc 1 393 5 view .LVU1786
	.loc 1 393 5 view .LVU1787
	.loc 1 393 5 view .LVU1788
	.loc 1 393 5 view .LVU1789
	.loc 1 393 5 view .LVU1790
	.loc 1 393 5 view .LVU1791
	.loc 1 393 5 view .LVU1792
	.loc 1 393 5 view .LVU1793
	.loc 1 393 5 view .LVU1794
	.loc 1 393 5 view .LVU1795
	.loc 1 393 5 view .LVU1796
	.loc 1 393 5 view .LVU1797
	.loc 1 393 5 view .LVU1798
	.loc 1 393 5 view .LVU1799
	.loc 1 393 5 view .LVU1800
	and	a12, a12, a6	# tmp1375, tmp1373, a23
	xor	a12, a12, a7	#, tmp1375, a03
	movi.n	a8, 0x2c	# tmp1357,
.LVL680:
	.loc 1 393 5 is_stmt 0 view .LVU1801
	l32i.n	a7, sp, 4	# %sfp,
.LVL681:
	.loc 1 393 5 view .LVU1802
	xor	a8, a13, a8	#, _1008, tmp1357
	xor	a14, a2, a3	# tmp1370, tmp1032, a22
	s32i.n	a12, sp, 8	# %sfp,
	.loc 1 393 5 view .LVU1803
	s32i.n	a8, sp, 16	# %sfp,
.LVL682:
	.loc 1 393 5 view .LVU1804
	and	a14, a14, a7	# tmp1372, tmp1370,
	l32i.n	a8, sp, 12	# %sfp,
	l32i.n	a12, sp, 0	# %sfp,
	l32i.n	a10, sp, 16	# %sfp,
	xor	a14, a14, a11	# a12, tmp1372, a11
	l32i.n	a11, sp, 8	# %sfp,
.LVL683:
	.loc 1 393 5 view .LVU1805
	xor	a9, a2, a8	# tmp1358, tmp1032,
.LVL684:
	.loc 1 393 5 view .LVU1806
	xor	a7, a2, a6	# tmp1376, tmp1032, a23
	xor	a8, a2, a4	# tmp1364, tmp1032, a21
	and	a7, a7, a11	# tmp1378, tmp1376,
	and	a9, a9, a10	# tmp1360, tmp1358,
	xor	a11, a2, a12	# tmp1383, tmp1032,
	l32i.n	a10, sp, 24	# %sfp,
	and	a8, a8, a12	# tmp1366, tmp1364,
	l32i.n	a12, sp, 4	# %sfp,
	xor	a8, a8, a5	# a11, tmp1366, a10
	xor	a9, a9, a10	# a10, tmp1360,
.LVL685:
	.loc 1 393 5 is_stmt 1 view .LVU1807
	.loc 1 393 5 view .LVU1808
	.loc 1 393 5 view .LVU1809
	.loc 1 393 5 view .LVU1810
	.loc 1 393 5 view .LVU1811
	.loc 1 393 5 view .LVU1812
	.loc 1 393 5 view .LVU1813
	.loc 1 393 5 view .LVU1814
	.loc 1 393 5 view .LVU1815
	and	a11, a11, a8	# tmp1385, tmp1383, a11
	xor	a10, a2, a12	# tmp1387, tmp1032,
	movi	a12, -0x2d	# tmp1391,
.LVL686:
	.loc 1 393 5 is_stmt 0 view .LVU1816
	xor	a15, a7, a15	# a13, tmp1378, a12
.LVL687:
	.loc 1 393 5 is_stmt 1 view .LVU1817
	.loc 1 393 5 view .LVU1818
	.loc 1 393 5 view .LVU1819
	xor	a13, a13, a12	# tmp1392, _1008, tmp1391
.LVL688:
	.loc 1 393 5 is_stmt 0 view .LVU1820
	l32i.n	a7, sp, 8	# %sfp,
	xor	a4, a11, a4	# a21, tmp1385, a21
.LVL689:
	.loc 1 393 5 view .LVU1821
	l32i.n	a11, sp, 12	# %sfp,
# /storage/projects/XKCP/lib/low/Xoodoo/plain/Xoodoo-plain.c:394:     Round(_rc4);
	.loc 1 394 5 view .LVU1822
	l32i.n	a12, sp, 8	# %sfp,
# /storage/projects/XKCP/lib/low/Xoodoo/plain/Xoodoo-plain.c:393:     Round(_rc5);
	.loc 1 393 5 view .LVU1823
	and	a13, a13, a9	# tmp1393, tmp1392, a10
.LVL690:
	.loc 1 393 5 view .LVU1824
	xor	a5, a2, a7	# tmp1379, tmp1032,
	xor	a13, a13, a11	# a20, tmp1393,
.LVL691:
	.loc 1 393 5 view .LVU1825
	and	a7, a10, a14	# tmp1389, tmp1387, a12
	ssai	31	#
	src	a10, a15, a15	# a13, a13
	ssai	31	#
	src	a14, a14, a14	#, a12
.LVL692:
	.loc 1 393 5 view .LVU1826
	s32i.n	a14, sp, 20	# %sfp,
	xor	a7, a7, a3	# a22, tmp1389, a22
	and	a15, a5, a15	# tmp1381, tmp1379, a13
.LVL693:
	.loc 1 393 5 view .LVU1827
	ssai	24	#
	src	a3, a13, a13	# a22, a20
# /storage/projects/XKCP/lib/low/Xoodoo/plain/Xoodoo-plain.c:394:     Round(_rc4);
	.loc 1 394 5 view .LVU1828
	xor	a13, a12, a10	# tmp1395,, a13
.LVL694:
	.loc 1 394 5 view .LVU1829
	l32i.n	a12, sp, 16	# %sfp,
# /storage/projects/XKCP/lib/low/Xoodoo/plain/Xoodoo-plain.c:393:     Round(_rc5);
	.loc 1 393 5 view .LVU1830
	ssai	31	#
	src	a5, a8, a8	# a11, a11
	ssai	24	#
	src	a14, a7, a7	# v1, a22
# /storage/projects/XKCP/lib/low/Xoodoo/plain/Xoodoo-plain.c:394:     Round(_rc4);
	.loc 1 394 5 view .LVU1831
	l32i.n	a8, sp, 20	# %sfp,
.LVL695:
# /storage/projects/XKCP/lib/low/Xoodoo/plain/Xoodoo-plain.c:393:     Round(_rc5);
	.loc 1 393 5 view .LVU1832
	xor	a15, a15, a6	# a23, tmp1381, a23
# /storage/projects/XKCP/lib/low/Xoodoo/plain/Xoodoo-plain.c:394:     Round(_rc4);
	.loc 1 394 5 view .LVU1833
	l32i.n	a6, sp, 4	# %sfp,
# /storage/projects/XKCP/lib/low/Xoodoo/plain/Xoodoo-plain.c:393:     Round(_rc5);
	.loc 1 393 5 view .LVU1834
	ssai	31	#
	src	a11, a9, a9	# a10, a10
.LVL696:
	.loc 1 393 5 is_stmt 1 view .LVU1835
	.loc 1 393 5 view .LVU1836
	.loc 1 393 5 view .LVU1837
	.loc 1 393 5 view .LVU1838
	ssai	24	#
	src	a4, a4, a4	# a23, a21
# /storage/projects/XKCP/lib/low/Xoodoo/plain/Xoodoo-plain.c:394:     Round(_rc4);
	.loc 1 394 5 is_stmt 0 view .LVU1839
	xor	a9, a12, a14	# tmp1396,, v1
.LVL697:
	.loc 1 394 5 view .LVU1840
	l32i.n	a12, sp, 0	# %sfp,
	xor	a7, a6, a8	# tmp1398,,
	xor	a13, a13, a4	# v1, tmp1395, a23
# /storage/projects/XKCP/lib/low/Xoodoo/plain/Xoodoo-plain.c:393:     Round(_rc5);
	.loc 1 393 5 view .LVU1841
	ssai	24	#
	src	a6, a15, a15	# v1, a23
.LVL698:
	.loc 1 393 5 is_stmt 1 view .LVU1842
	.loc 1 393 5 view .LVU1843
	.loc 1 393 5 view .LVU1844
	.loc 1 393 5 view .LVU1845
	.loc 1 393 5 view .LVU1846
	.loc 1 393 16 view .LVU1847
	.loc 1 394 5 view .LVU1848
	.loc 1 394 5 view .LVU1849
	xor	a7, a7, a3	# v2, tmp1398, a22
	xor	a8, a12, a5	# tmp1397,, a11
.LVL699:
	.loc 1 394 5 is_stmt 0 view .LVU1850
	ssai	27	#
	src	a15, a13, a13	# _291, v1
	ssai	18	#
	src	a13, a13, a13	# _292, v1
.LVL700:
	.loc 1 394 5 view .LVU1851
	xor	a13, a15, a13	# v1, _291, _292
	xor	a8, a8, a6	# v1, tmp1397, v1
	ssai	27	#
	src	a12, a7, a7	# _299, v2
	ssai	18	#
	src	a7, a7, a7	# _300, v2
	xor	a7, a12, a7	# v2, _299, _300
	xor	a14, a14, a13	# a20, v1, v1
.LVL701:
	.loc 1 394 5 view .LVU1852
	ssai	27	#
	src	a12, a8, a8	# _297, v1
	ssai	18	#
	src	a8, a8, a8	# _298, v1
	xor	a8, a12, a8	# v1, _297, _298
	ssai	21	#
	src	a14, a14, a14	#, a20
	l32i.n	a12, sp, 20	# %sfp,
	s32i.n	a14, sp, 12	# %sfp,
	xor	a10, a10, a7	#, a13, v2
.LVL702:
	.loc 1 394 5 view .LVU1853
	xor	a14, a12, a8	# a12,, v1
	l32i.n	a12, sp, 12	# %sfp,
	s32i.n	a10, sp, 24	# %sfp,
	xor	a10, a2, a10	# tmp1399, tmp1032,
	and	a10, a10, a12	# tmp1401, tmp1399,
	l32i.n	a12, sp, 16	# %sfp,
	xor	a9, a9, a11	# v2, tmp1396, a10
.LVL703:
	.loc 1 394 5 is_stmt 1 view .LVU1854
	.loc 1 394 5 view .LVU1855
	.loc 1 394 5 view .LVU1856
	xor	a11, a11, a13	# a10, a10, v1
.LVL704:
	.loc 1 394 5 view .LVU1857
	.loc 1 394 5 view .LVU1858
	.loc 1 394 5 view .LVU1859
	xor	a13, a12, a13	# tmp1402,, v1
.LVL705:
	.loc 1 394 5 is_stmt 0 view .LVU1860
	ssai	27	#
	src	a15, a9, a9	# _294, v2
	xor	a13, a10, a13	# _1006, tmp1401, tmp1402
.LVL706:
	.loc 1 394 5 view .LVU1861
	ssai	18	#
	src	a9, a9, a9	# _295, v2
.LVL707:
	.loc 1 394 5 view .LVU1862
	l32i.n	a10, sp, 0	# %sfp,
	xor	a9, a15, a9	# v2, _294, _295
.LVL708:
	.loc 1 394 5 is_stmt 1 view .LVU1863
	xor	a5, a5, a9	# a11, a11, v2
.LVL709:
	.loc 1 394 5 is_stmt 0 view .LVU1864
	xor	a6, a6, a9	# a21, v1, v2
.LVL710:
	.loc 1 394 5 view .LVU1865
	xor	a3, a3, a8	# a22, a22, v1
.LVL711:
	.loc 1 394 5 view .LVU1866
	xor	a9, a10, a9	# a01,, v2
.LVL712:
	.loc 1 394 5 view .LVU1867
	l32i.n	a10, sp, 4	# %sfp,
	ssai	21	#
	src	a3, a3, a3	# a22, a22
	xor	a12, a2, a5	# tmp1413, tmp1032, a11
	xor	a8, a10, a8	# a02,, v1
	and	a12, a12, a3	# tmp1415, tmp1413, a22
	xor	a12, a12, a8	#, tmp1415, a02
	s32i.n	a12, sp, 4	# %sfp,
.LVL713:
	.loc 1 394 5 view .LVU1868
	xor	a4, a4, a7	# a23, a23, v2
.LVL714:
	.loc 1 394 5 view .LVU1869
	l32i.n	a12, sp, 8	# %sfp,
	ssai	21	#
	src	a4, a4, a4	# a23, a23
	ssai	21	#
	src	a6, a6, a6	# a21, a21
.LVL715:
	.loc 1 394 5 is_stmt 1 view .LVU1870
	.loc 1 394 5 view .LVU1871
	.loc 1 394 5 view .LVU1872
	.loc 1 394 5 view .LVU1873
	.loc 1 394 5 view .LVU1874
	.loc 1 394 5 view .LVU1875
	.loc 1 394 5 view .LVU1876
	.loc 1 394 5 view .LVU1877
	.loc 1 394 5 view .LVU1878
	xor	a15, a2, a11	# tmp1407, tmp1032, a10
	xor	a10, a2, a14	# tmp1419, tmp1032, a12
	movi	a8, 0x380	# tmp1403,
.LVL716:
	.loc 1 394 5 is_stmt 0 view .LVU1879
	and	a15, a15, a6	# tmp1409, tmp1407, a21
	xor	a8, a13, a8	#, _1006, tmp1403
	xor	a7, a12, a7	# a03,, v2
.LVL717:
	.loc 1 394 5 is_stmt 1 view .LVU1880
	.loc 1 394 5 view .LVU1881
	.loc 1 394 5 view .LVU1882
	.loc 1 394 5 view .LVU1883
	.loc 1 394 5 view .LVU1884
	.loc 1 394 5 view .LVU1885
	.loc 1 394 5 view .LVU1886
	.loc 1 394 5 view .LVU1887
	.loc 1 394 5 view .LVU1888
	.loc 1 394 5 view .LVU1889
	.loc 1 394 5 view .LVU1890
	.loc 1 394 5 view .LVU1891
	.loc 1 394 5 view .LVU1892
	.loc 1 394 5 view .LVU1893
	.loc 1 394 5 view .LVU1894
	.loc 1 394 5 view .LVU1895
	.loc 1 394 5 view .LVU1896
	and	a10, a10, a4	# tmp1421, tmp1419, a23
	xor	a9, a15, a9	#, tmp1409, a01
.LVL718:
	.loc 1 394 5 is_stmt 0 view .LVU1897
	s32i.n	a8, sp, 16	# %sfp,
.LVL719:
	.loc 1 394 5 view .LVU1898
	xor	a10, a10, a7	#, tmp1421, a03
	l32i.n	a8, sp, 12	# %sfp,
	s32i.n	a9, sp, 0	# %sfp,
	.loc 1 394 5 view .LVU1899
	s32i.n	a10, sp, 8	# %sfp,
	l32i.n	a10, sp, 16	# %sfp,
	xor	a9, a2, a8	# tmp1404, tmp1032,
	l32i.n	a12, sp, 0	# %sfp,
	xor	a8, a2, a6	# tmp1410, tmp1032, a21
	and	a9, a9, a10	# tmp1406, tmp1404,
	l32i.n	a10, sp, 24	# %sfp,
	l32i.n	a7, sp, 4	# %sfp,
.LVL720:
	.loc 1 394 5 view .LVU1900
	and	a8, a8, a12	# tmp1412, tmp1410,
	xor	a9, a9, a10	# a10, tmp1406,
.LVL721:
	.loc 1 394 5 is_stmt 1 view .LVU1901
	.loc 1 394 5 view .LVU1902
	.loc 1 394 5 view .LVU1903
	xor	a8, a8, a11	# a11, tmp1412, a10
.LVL722:
	.loc 1 394 5 view .LVU1904
	.loc 1 394 5 view .LVU1905
	.loc 1 394 5 view .LVU1906
	l32i.n	a10, sp, 4	# %sfp,
	l32i.n	a11, sp, 8	# %sfp,
	xor	a15, a2, a3	# tmp1416, tmp1032, a22
	and	a15, a15, a7	# tmp1418, tmp1416,
	xor	a7, a2, a4	# tmp1422, tmp1032, a23
.LVL723:
	.loc 1 394 5 is_stmt 0 view .LVU1907
	xor	a15, a15, a5	# a12, tmp1418, a11
.LVL724:
	.loc 1 394 5 is_stmt 1 view .LVU1908
	.loc 1 394 5 view .LVU1909
	.loc 1 394 5 view .LVU1910
	and	a7, a7, a11	# tmp1424, tmp1422,
	xor	a5, a2, a12	# tmp1429, tmp1032,
	xor	a12, a2, a10	# tmp1433, tmp1032,
.LVL725:
	.loc 1 394 5 is_stmt 0 view .LVU1911
	xor	a14, a7, a14	# a13, tmp1424, a12
.LVL726:
	.loc 1 394 5 is_stmt 1 view .LVU1912
	.loc 1 394 5 view .LVU1913
	.loc 1 394 5 view .LVU1914
	and	a5, a5, a8	# tmp1431, tmp1429, a11
	xor	a7, a2, a11	# tmp1425, tmp1032,
	movi	a10, -0x381	# tmp1437,
.LVL727:
	.loc 1 394 5 is_stmt 0 view .LVU1915
	and	a11, a12, a15	# tmp1435, tmp1433, a12
.LVL728:
	.loc 1 394 5 view .LVU1916
	ssai	31	#
	src	a12, a15, a15	#, a12
	s32i.n	a12, sp, 20	# %sfp,
	xor	a13, a13, a10	# tmp1438, _1006, tmp1437
.LVL729:
	.loc 1 394 5 view .LVU1917
	ssai	31	#
	src	a12, a14, a14	# a13, a13
	xor	a6, a5, a6	# a21, tmp1431, a21
.LVL730:
	.loc 1 394 5 view .LVU1918
	and	a14, a7, a14	# tmp1427, tmp1425, a13
.LVL731:
	.loc 1 394 5 view .LVU1919
	l32i.n	a5, sp, 12	# %sfp,
# /storage/projects/XKCP/lib/low/Xoodoo/plain/Xoodoo-plain.c:395:     Round(_rc3);
	.loc 1 395 5 view .LVU1920
	l32i.n	a7, sp, 8	# %sfp,
# /storage/projects/XKCP/lib/low/Xoodoo/plain/Xoodoo-plain.c:394:     Round(_rc4);
	.loc 1 394 5 view .LVU1921
	xor	a14, a14, a4	# a23, tmp1427, a23
	and	a13, a13, a9	# tmp1439, tmp1438, a10
.LVL732:
# /storage/projects/XKCP/lib/low/Xoodoo/plain/Xoodoo-plain.c:395:     Round(_rc3);
	.loc 1 395 5 view .LVU1922
	l32i.n	a4, sp, 20	# %sfp,
# /storage/projects/XKCP/lib/low/Xoodoo/plain/Xoodoo-plain.c:394:     Round(_rc4);
	.loc 1 394 5 view .LVU1923
	xor	a3, a11, a3	# a22, tmp1435, a22
.LVL733:
	.loc 1 394 5 view .LVU1924
	ssai	31	#
	src	a11, a8, a8	# a11, a11
# /storage/projects/XKCP/lib/low/Xoodoo/plain/Xoodoo-plain.c:395:     Round(_rc3);
	.loc 1 395 5 view .LVU1925
	l32i.n	a8, sp, 4	# %sfp,
.LVL734:
# /storage/projects/XKCP/lib/low/Xoodoo/plain/Xoodoo-plain.c:394:     Round(_rc4);
	.loc 1 394 5 view .LVU1926
	xor	a13, a13, a5	# a20, tmp1439,
.LVL735:
	.loc 1 394 5 view .LVU1927
	ssai	24	#
	src	a10, a13, a13	# a22, a20
	ssai	24	#
	src	a6, a6, a6	# a23, a21
# /storage/projects/XKCP/lib/low/Xoodoo/plain/Xoodoo-plain.c:395:     Round(_rc3);
	.loc 1 395 5 view .LVU1928
	xor	a13, a7, a12	# tmp1441,, a13
.LVL736:
	.loc 1 395 5 view .LVU1929
	xor	a7, a8, a4	# tmp1444,,
	l32i.n	a8, sp, 16	# %sfp,
# /storage/projects/XKCP/lib/low/Xoodoo/plain/Xoodoo-plain.c:394:     Round(_rc4);
	.loc 1 394 5 view .LVU1930
	ssai	24	#
	src	a4, a14, a14	# v1, a23
# /storage/projects/XKCP/lib/low/Xoodoo/plain/Xoodoo-plain.c:395:     Round(_rc3);
	.loc 1 395 5 view .LVU1931
	l32i.n	a14, sp, 0	# %sfp,
	xor	a13, a13, a6	# v1, tmp1441, a23
# /storage/projects/XKCP/lib/low/Xoodoo/plain/Xoodoo-plain.c:394:     Round(_rc4);
	.loc 1 394 5 view .LVU1932
	ssai	24	#
	src	a3, a3, a3	# v1, a22
	ssai	31	#
	src	a5, a9, a9	# a10, a10
.LVL737:
	.loc 1 394 5 is_stmt 1 view .LVU1933
	.loc 1 394 5 view .LVU1934
	.loc 1 394 5 view .LVU1935
	.loc 1 394 5 view .LVU1936
	.loc 1 394 5 view .LVU1937
	.loc 1 394 5 view .LVU1938
	.loc 1 394 5 view .LVU1939
	.loc 1 394 5 view .LVU1940
	.loc 1 394 5 view .LVU1941
	.loc 1 394 16 view .LVU1942
	.loc 1 395 5 view .LVU1943
	.loc 1 395 5 view .LVU1944
	xor	a7, a7, a10	# v2, tmp1444, a22
	xor	a9, a8, a3	# tmp1442,, v1
	ssai	27	#
	src	a15, a13, a13	# _327, v1
	xor	a8, a14, a11	# tmp1443,, a11
	ssai	18	#
	src	a13, a13, a13	# _328, v1
.LVL738:
	.loc 1 395 5 is_stmt 0 view .LVU1945
	xor	a13, a15, a13	# v1, _327, _328
	xor	a8, a8, a4	# v1, tmp1443, v1
	ssai	27	#
	src	a14, a7, a7	# _335, v2
	ssai	18	#
	src	a7, a7, a7	# _336, v2
	xor	a7, a14, a7	# v2, _335, _336
	xor	a3, a3, a13	# a20, v1, v1
.LVL739:
	.loc 1 395 5 view .LVU1946
	ssai	27	#
	src	a14, a8, a8	# _333, v1
	ssai	18	#
	src	a8, a8, a8	# _334, v1
	xor	a8, a14, a8	# v1, _333, _334
	ssai	21	#
	src	a3, a3, a3	#, a20
	s32i.n	a3, sp, 12	# %sfp,
	xor	a9, a9, a5	# v2, tmp1442, a10
.LVL740:
	.loc 1 395 5 is_stmt 1 view .LVU1947
	.loc 1 395 5 view .LVU1948
	.loc 1 395 5 view .LVU1949
	xor	a3, a10, a8	# a22, a22, v1
	l32i.n	a10, sp, 20	# %sfp,
.LVL741:
	.loc 1 395 5 is_stmt 0 view .LVU1950
	ssai	27	#
	src	a15, a9, a9	# _330, v2
	ssai	18	#
	src	a9, a9, a9	# _331, v2
.LVL742:
	.loc 1 395 5 view .LVU1951
	xor	a9, a15, a9	# v2, _330, _331
	l32i.n	a14, sp, 12	# %sfp,
	xor	a15, a10, a8	# a12,, v1
	xor	a12, a12, a7	#, a13, v2
.LVL743:
	.loc 1 395 5 view .LVU1952
	l32i.n	a10, sp, 16	# %sfp,
	s32i.n	a12, sp, 24	# %sfp,
	xor	a12, a2, a12	# tmp1445, tmp1032,
	xor	a5, a5, a13	# a10, a10, v1
.LVL744:
	.loc 1 395 5 is_stmt 1 view .LVU1953
	.loc 1 395 5 view .LVU1954
	.loc 1 395 5 view .LVU1955
	.loc 1 395 5 view .LVU1956
	and	a12, a12, a14	# tmp1447, tmp1445,
	xor	a13, a10, a13	# tmp1448,, v1
.LVL745:
	.loc 1 395 5 is_stmt 0 view .LVU1957
	xor	a13, a12, a13	# _1004, tmp1447, tmp1448
.LVL746:
	.loc 1 395 5 view .LVU1958
	xor	a4, a4, a9	# a21, v1, v2
.LVL747:
	.loc 1 395 5 view .LVU1959
	l32i.n	a12, sp, 0	# %sfp,
	ssai	21	#
	src	a4, a4, a4	# a21, a21
	xor	a14, a2, a5	# tmp1453, tmp1032, a10
	xor	a11, a11, a9	# a11, a11, v2
.LVL748:
	.loc 1 395 5 view .LVU1960
	and	a14, a14, a4	# tmp1455, tmp1453, a21
	xor	a9, a12, a9	# a01,, v2
.LVL749:
	.loc 1 395 5 view .LVU1961
	l32i.n	a12, sp, 4	# %sfp,
	ssai	21	#
	src	a3, a3, a3	# a22, a22
	xor	a10, a2, a11	# tmp1459, tmp1032, a11
	xor	a14, a14, a9	#, tmp1455, a01
	s32i.n	a14, sp, 0	# %sfp,
.LVL750:
	.loc 1 395 5 view .LVU1962
	xor	a8, a12, a8	# a02,, v1
	l32i.n	a14, sp, 8	# %sfp,
	xor	a6, a6, a7	# a23, a23, v2
.LVL751:
	.loc 1 395 5 is_stmt 1 view .LVU1963
	.loc 1 395 5 view .LVU1964
	.loc 1 395 5 view .LVU1965
	.loc 1 395 5 view .LVU1966
	.loc 1 395 5 view .LVU1967
	.loc 1 395 5 view .LVU1968
	.loc 1 395 5 view .LVU1969
	.loc 1 395 5 view .LVU1970
	.loc 1 395 5 view .LVU1971
	and	a10, a10, a3	# tmp1461, tmp1459, a22
	ssai	21	#
	src	a6, a6, a6	# a23, a23
	xor	a12, a2, a15	# tmp1465, tmp1032, a12
	xor	a10, a10, a8	#, tmp1461, a02
	s32i.n	a10, sp, 4	# %sfp,
	xor	a7, a14, a7	# a03,, v2
.LVL752:
	.loc 1 395 5 view .LVU1972
	.loc 1 395 5 view .LVU1973
	.loc 1 395 5 view .LVU1974
	.loc 1 395 5 view .LVU1975
	.loc 1 395 5 view .LVU1976
	.loc 1 395 5 view .LVU1977
	.loc 1 395 5 view .LVU1978
	.loc 1 395 5 view .LVU1979
	.loc 1 395 5 view .LVU1980
	.loc 1 395 5 view .LVU1981
	.loc 1 395 5 view .LVU1982
	.loc 1 395 5 view .LVU1983
	.loc 1 395 5 view .LVU1984
	.loc 1 395 5 view .LVU1985
	.loc 1 395 5 view .LVU1986
	.loc 1 395 5 view .LVU1987
	.loc 1 395 5 view .LVU1988
	and	a12, a12, a6	# tmp1467, tmp1465, a23
	xor	a12, a12, a7	#, tmp1467, a03
	movi	a8, 0xf0	# tmp1449,
.LVL753:
	.loc 1 395 5 is_stmt 0 view .LVU1989
	l32i.n	a7, sp, 4	# %sfp,
.LVL754:
	.loc 1 395 5 view .LVU1990
	xor	a8, a13, a8	#, _1004, tmp1449
	xor	a14, a2, a3	# tmp1462, tmp1032, a22
	s32i.n	a8, sp, 16	# %sfp,
.LVL755:
	.loc 1 395 5 view .LVU1991
	s32i.n	a12, sp, 8	# %sfp,
	.loc 1 395 5 view .LVU1992
	l32i.n	a8, sp, 12	# %sfp,
	and	a14, a14, a7	# tmp1464, tmp1462,
	l32i.n	a12, sp, 0	# %sfp,
	l32i.n	a10, sp, 16	# %sfp,
	xor	a14, a14, a11	# a12, tmp1464, a11
	l32i.n	a11, sp, 8	# %sfp,
.LVL756:
	.loc 1 395 5 view .LVU1993
	xor	a9, a2, a8	# tmp1450, tmp1032,
.LVL757:
	.loc 1 395 5 view .LVU1994
	xor	a7, a2, a6	# tmp1468, tmp1032, a23
	xor	a8, a2, a4	# tmp1456, tmp1032, a21
	and	a7, a7, a11	# tmp1470, tmp1468,
	and	a9, a9, a10	# tmp1452, tmp1450,
	xor	a11, a2, a12	# tmp1475, tmp1032,
	l32i.n	a10, sp, 24	# %sfp,
	and	a8, a8, a12	# tmp1458, tmp1456,
	l32i.n	a12, sp, 4	# %sfp,
	xor	a15, a7, a15	# a13, tmp1470, a12
.LVL758:
	.loc 1 395 5 view .LVU1995
	l32i.n	a7, sp, 8	# %sfp,
	xor	a9, a9, a10	# a10, tmp1452,
.LVL759:
	.loc 1 395 5 is_stmt 1 view .LVU1996
	.loc 1 395 5 view .LVU1997
	.loc 1 395 5 view .LVU1998
	xor	a8, a8, a5	# a11, tmp1458, a10
.LVL760:
	.loc 1 395 5 view .LVU1999
	.loc 1 395 5 view .LVU2000
	.loc 1 395 5 view .LVU2001
	.loc 1 395 5 view .LVU2002
	.loc 1 395 5 view .LVU2003
	.loc 1 395 5 view .LVU2004
	.loc 1 395 5 view .LVU2005
	.loc 1 395 5 view .LVU2006
	.loc 1 395 5 view .LVU2007
	xor	a10, a2, a12	# tmp1479, tmp1032,
	xor	a5, a2, a7	# tmp1471, tmp1032,
	and	a11, a11, a8	# tmp1477, tmp1475, a11
	movi	a12, -0xf1	# tmp1483,
	and	a10, a10, a14	# tmp1481, tmp1479, a12
	ssai	31	#
	src	a14, a14, a14	#, a12
.LVL761:
	.loc 1 395 5 is_stmt 0 view .LVU2008
	s32i.n	a14, sp, 20	# %sfp,
	xor	a13, a13, a12	# tmp1484, _1004, tmp1483
	xor	a14, a11, a4	# a21, tmp1477, a21
	ssai	31	#
	src	a12, a15, a15	# a13, a13
	l32i.n	a11, sp, 12	# %sfp,
	and	a15, a5, a15	# tmp1473, tmp1471, a13
.LVL762:
	.loc 1 395 5 view .LVU2009
	and	a13, a13, a9	# tmp1485, tmp1484, a10
# /storage/projects/XKCP/lib/low/Xoodoo/plain/Xoodoo-plain.c:396:     Round(_rc2);
	.loc 1 396 5 view .LVU2010
	l32i.n	a5, sp, 4	# %sfp,
# /storage/projects/XKCP/lib/low/Xoodoo/plain/Xoodoo-plain.c:395:     Round(_rc3);
	.loc 1 395 5 view .LVU2011
	xor	a15, a15, a6	# a23, tmp1473, a23
# /storage/projects/XKCP/lib/low/Xoodoo/plain/Xoodoo-plain.c:396:     Round(_rc2);
	.loc 1 396 5 view .LVU2012
	l32i.n	a6, sp, 20	# %sfp,
# /storage/projects/XKCP/lib/low/Xoodoo/plain/Xoodoo-plain.c:395:     Round(_rc3);
	.loc 1 395 5 view .LVU2013
	xor	a10, a10, a3	# a22, tmp1481, a22
	xor	a13, a13, a11	# a20, tmp1485,
	ssai	24	#
	src	a4, a10, a10	# v1, a22
# /storage/projects/XKCP/lib/low/Xoodoo/plain/Xoodoo-plain.c:396:     Round(_rc2);
	.loc 1 396 5 view .LVU2014
	l32i.n	a11, sp, 0	# %sfp,
# /storage/projects/XKCP/lib/low/Xoodoo/plain/Xoodoo-plain.c:395:     Round(_rc3);
	.loc 1 395 5 view .LVU2015
	ssai	24	#
	src	a3, a13, a13	# a22, a20
# /storage/projects/XKCP/lib/low/Xoodoo/plain/Xoodoo-plain.c:396:     Round(_rc2);
	.loc 1 396 5 view .LVU2016
	xor	a10, a5, a6	# tmp1490,,
	xor	a13, a7, a12	# tmp1487,, a13
# /storage/projects/XKCP/lib/low/Xoodoo/plain/Xoodoo-plain.c:395:     Round(_rc3);
	.loc 1 395 5 view .LVU2017
	ssai	24	#
	src	a14, a14, a14	# a23, a21
# /storage/projects/XKCP/lib/low/Xoodoo/plain/Xoodoo-plain.c:396:     Round(_rc2);
	.loc 1 396 5 view .LVU2018
	l32i.n	a7, sp, 16	# %sfp,
	xor	a13, a13, a14	# v1, tmp1487, a23
	xor	a10, a10, a3	# v2, tmp1490, a22
# /storage/projects/XKCP/lib/low/Xoodoo/plain/Xoodoo-plain.c:395:     Round(_rc3);
	.loc 1 395 5 view .LVU2019
	ssai	31	#
	src	a8, a8, a8	# a11, a11
.LVL763:
# /storage/projects/XKCP/lib/low/Xoodoo/plain/Xoodoo-plain.c:396:     Round(_rc2);
	.loc 1 396 5 view .LVU2020
	xor	a6, a7, a4	# tmp1488,, v1
	xor	a5, a11, a8	# tmp1489,, a11
# /storage/projects/XKCP/lib/low/Xoodoo/plain/Xoodoo-plain.c:395:     Round(_rc3);
	.loc 1 395 5 view .LVU2021
	ssai	24	#
	src	a15, a15, a15	# v1, a23
# /storage/projects/XKCP/lib/low/Xoodoo/plain/Xoodoo-plain.c:396:     Round(_rc2);
	.loc 1 396 5 view .LVU2022
	ssai	27	#
	src	a7, a13, a13	# _363, v1
	ssai	27	#
	src	a11, a10, a10	# _371, v2
	ssai	18	#
	src	a13, a13, a13	# _364, v1
	ssai	18	#
	src	a10, a10, a10	# _372, v2
	xor	a11, a11, a10	# v2, _371, _372
	xor	a7, a7, a13	# v1, _363, _364
	xor	a5, a5, a15	# v1, tmp1489, v1
	xor	a12, a12, a11	#, a13, v2
# /storage/projects/XKCP/lib/low/Xoodoo/plain/Xoodoo-plain.c:395:     Round(_rc3);
	.loc 1 395 5 view .LVU2023
	ssai	31	#
	src	a9, a9, a9	# a10, a10
.LVL764:
	.loc 1 395 5 is_stmt 1 view .LVU2024
	.loc 1 395 5 view .LVU2025
	.loc 1 395 5 view .LVU2026
	.loc 1 395 5 view .LVU2027
	.loc 1 395 5 view .LVU2028
	.loc 1 395 5 view .LVU2029
	.loc 1 395 5 view .LVU2030
	.loc 1 395 5 view .LVU2031
	.loc 1 395 5 view .LVU2032
	.loc 1 395 16 view .LVU2033
	.loc 1 396 5 view .LVU2034
	.loc 1 396 5 view .LVU2035
	ssai	27	#
	src	a10, a5, a5	# _369, v1
	xor	a4, a4, a7	# a20, v1, v1
.LVL765:
	.loc 1 396 5 is_stmt 0 view .LVU2036
	ssai	18	#
	src	a5, a5, a5	# _370, v1
	xor	a10, a10, a5	# v1, _369, _370
	s32i.n	a12, sp, 24	# %sfp,
	xor	a6, a6, a9	# v2, tmp1488, a10
.LVL766:
	.loc 1 396 5 is_stmt 1 view .LVU2037
	.loc 1 396 5 view .LVU2038
	.loc 1 396 5 view .LVU2039
	xor	a5, a2, a12	# tmp1491, tmp1032,
	ssai	21	#
	src	a4, a4, a4	#, a20
	l32i.n	a12, sp, 20	# %sfp,
	s32i.n	a4, sp, 12	# %sfp,
	ssai	27	#
	src	a13, a6, a6	# _366, v2
	ssai	18	#
	src	a6, a6, a6	# _367, v2
.LVL767:
	.loc 1 396 5 is_stmt 0 view .LVU2040
	xor	a13, a13, a6	# v2, _366, _367
	xor	a4, a12, a10	# a12,, v1
	l32i.n	a6, sp, 12	# %sfp,
	l32i.n	a12, sp, 16	# %sfp,
	xor	a9, a9, a7	# a10, a10, v1
.LVL768:
	.loc 1 396 5 is_stmt 1 view .LVU2041
	.loc 1 396 5 view .LVU2042
	.loc 1 396 5 view .LVU2043
	.loc 1 396 5 view .LVU2044
	and	a5, a5, a6	# tmp1493, tmp1491,
	xor	a7, a12, a7	# tmp1494,, v1
.LVL769:
	.loc 1 396 5 is_stmt 0 view .LVU2045
	xor	a7, a5, a7	# _1002, tmp1493, tmp1494
.LVL770:
	.loc 1 396 5 view .LVU2046
	xor	a15, a15, a13	# a21, v1, v2
.LVL771:
	.loc 1 396 5 view .LVU2047
	l32i.n	a5, sp, 0	# %sfp,
	ssai	21	#
	src	a15, a15, a15	# a21, a21
	xor	a6, a2, a9	# tmp1499, tmp1032, a10
	xor	a8, a8, a13	# a11, a11, v2
.LVL772:
	.loc 1 396 5 view .LVU2048
	and	a6, a6, a15	# tmp1501, tmp1499, a21
	xor	a13, a5, a13	# a01,, v2
.LVL773:
	.loc 1 396 5 view .LVU2049
	xor	a6, a6, a13	#, tmp1501, a01
	l32i.n	a5, sp, 4	# %sfp,
	s32i.n	a6, sp, 0	# %sfp,
	xor	a3, a3, a10	# a22, a22, v1
.LVL774:
	.loc 1 396 5 view .LVU2050
	movi	a6, 0x1a0	# tmp1495,
	ssai	21	#
	src	a3, a3, a3	# a22, a22
	xor	a12, a2, a8	# tmp1505, tmp1032, a11
	xor	a6, a7, a6	#, _1002, tmp1495
	s32i.n	a6, sp, 16	# %sfp,
	.loc 1 396 5 view .LVU2051
	xor	a10, a5, a10	# a02,, v1
	l32i.n	a6, sp, 8	# %sfp,
	xor	a14, a14, a11	# a23, a23, v2
.LVL775:
	.loc 1 396 5 is_stmt 1 view .LVU2052
	.loc 1 396 5 view .LVU2053
	.loc 1 396 5 view .LVU2054
	.loc 1 396 5 view .LVU2055
	.loc 1 396 5 view .LVU2056
	.loc 1 396 5 view .LVU2057
	.loc 1 396 5 view .LVU2058
	.loc 1 396 5 view .LVU2059
	.loc 1 396 5 view .LVU2060
	and	a12, a12, a3	# tmp1507, tmp1505, a22
	ssai	21	#
	src	a14, a14, a14	# a23, a23
	xor	a5, a2, a4	# tmp1511, tmp1032, a12
	xor	a12, a12, a10	#, tmp1507, a02
	s32i.n	a12, sp, 4	# %sfp,
	.loc 1 396 5 is_stmt 0 view .LVU2061
	and	a5, a5, a14	# tmp1513, tmp1511, a23
	xor	a12, a6, a11	# a03,, v2
.LVL776:
	.loc 1 396 5 is_stmt 1 view .LVU2062
	.loc 1 396 5 view .LVU2063
	.loc 1 396 5 view .LVU2064
	.loc 1 396 5 view .LVU2065
	.loc 1 396 5 view .LVU2066
	.loc 1 396 5 view .LVU2067
	.loc 1 396 5 view .LVU2068
	.loc 1 396 5 view .LVU2069
	.loc 1 396 5 view .LVU2070
	.loc 1 396 5 view .LVU2071
	.loc 1 396 5 view .LVU2072
	.loc 1 396 5 view .LVU2073
	.loc 1 396 5 view .LVU2074
	.loc 1 396 5 view .LVU2075
	.loc 1 396 5 view .LVU2076
	.loc 1 396 5 view .LVU2077
	.loc 1 396 5 view .LVU2078
	xor	a5, a5, a12	#, tmp1513, a03
	l32i.n	a11, sp, 12	# %sfp,
.LVL777:
	.loc 1 396 5 is_stmt 0 view .LVU2079
	s32i.n	a5, sp, 8	# %sfp,
	l32i.n	a6, sp, 4	# %sfp,
	l32i.n	a5, sp, 0	# %sfp,
	xor	a13, a2, a3	# tmp1508, tmp1032, a22
.LVL778:
	.loc 1 396 5 view .LVU2080
	l32i.n	a12, sp, 16	# %sfp,
.LVL779:
	.loc 1 396 5 view .LVU2081
	xor	a10, a2, a11	# tmp1496, tmp1032,
.LVL780:
	.loc 1 396 5 view .LVU2082
	xor	a11, a2, a15	# tmp1502, tmp1032, a21
	and	a11, a11, a5	# tmp1504, tmp1502,
	and	a5, a13, a6	# tmp1510, tmp1508,
	l32i.n	a13, sp, 24	# %sfp,
	and	a10, a10, a12	# tmp1498, tmp1496,
	l32i.n	a6, sp, 0	# %sfp,
	xor	a10, a10, a13	# a10, tmp1498,
.LVL781:
	.loc 1 396 5 is_stmt 1 view .LVU2083
	.loc 1 396 5 view .LVU2084
	.loc 1 396 5 view .LVU2085
	xor	a8, a5, a8	# a12, tmp1510, a11
.LVL782:
	.loc 1 396 5 is_stmt 0 view .LVU2086
	l32i.n	a13, sp, 4	# %sfp,
	l32i.n	a5, sp, 8	# %sfp,
	xor	a12, a2, a14	# tmp1514, tmp1032, a23
	xor	a9, a11, a9	# a11, tmp1504, a10
.LVL783:
	.loc 1 396 5 is_stmt 1 view .LVU2087
	.loc 1 396 5 view .LVU2088
	.loc 1 396 5 view .LVU2089
	.loc 1 396 5 view .LVU2090
	.loc 1 396 5 view .LVU2091
	.loc 1 396 5 view .LVU2092
	and	a12, a12, a5	# tmp1516, tmp1514,
	xor	a11, a2, a6	# tmp1521, tmp1032,
	movi	a5, -0x1a1	# tmp1529,
.LVL784:
	.loc 1 396 5 is_stmt 0 view .LVU2093
	xor	a6, a2, a13	# tmp1525, tmp1032,
.LVL785:
	.loc 1 396 5 view .LVU2094
	xor	a7, a7, a5	# tmp1530, _1002, tmp1529
.LVL786:
	.loc 1 396 5 view .LVU2095
	and	a6, a6, a8	# tmp1527, tmp1525, a12
	l32i.n	a5, sp, 8	# %sfp,
	ssai	31	#
	src	a8, a8, a8	#, a12
.LVL787:
	.loc 1 396 5 view .LVU2096
	s32i.n	a8, sp, 20	# %sfp,
	xor	a4, a12, a4	# a13, tmp1516, a12
.LVL788:
	.loc 1 396 5 is_stmt 1 view .LVU2097
	.loc 1 396 5 view .LVU2098
	.loc 1 396 5 view .LVU2099
	l32i.n	a8, sp, 12	# %sfp,
	xor	a13, a2, a5	# tmp1517, tmp1032,
.LVL789:
	.loc 1 396 5 is_stmt 0 view .LVU2100
	and	a7, a7, a10	# tmp1531, tmp1530, a10
.LVL790:
	.loc 1 396 5 view .LVU2101
	ssai	31	#
	src	a12, a4, a4	# a13, a13
	and	a11, a11, a9	# tmp1523, tmp1521, a11
	and	a4, a13, a4	# tmp1519, tmp1517, a13
.LVL791:
	.loc 1 396 5 view .LVU2102
	xor	a6, a6, a3	# a22, tmp1527, a22
# /storage/projects/XKCP/lib/low/Xoodoo/plain/Xoodoo-plain.c:397:     Round(_rc1);
	.loc 1 397 5 view .LVU2103
	l32i.n	a13, sp, 4	# %sfp,
# /storage/projects/XKCP/lib/low/Xoodoo/plain/Xoodoo-plain.c:396:     Round(_rc2);
	.loc 1 396 5 view .LVU2104
	xor	a3, a7, a8	# a20, tmp1531,
.LVL792:
# /storage/projects/XKCP/lib/low/Xoodoo/plain/Xoodoo-plain.c:397:     Round(_rc1);
	.loc 1 397 5 view .LVU2105
	xor	a7, a5, a12	# tmp1533,, a13
	l32i.n	a5, sp, 20	# %sfp,
# /storage/projects/XKCP/lib/low/Xoodoo/plain/Xoodoo-plain.c:396:     Round(_rc2);
	.loc 1 396 5 view .LVU2106
	xor	a14, a4, a14	# a23, tmp1519, a23
	.loc 1 396 5 view .LVU2107
	xor	a15, a11, a15	# a21, tmp1523, a21
.LVL793:
# /storage/projects/XKCP/lib/low/Xoodoo/plain/Xoodoo-plain.c:397:     Round(_rc1);
	.loc 1 397 5 view .LVU2108
	xor	a4, a13, a5	# tmp1536,,
# /storage/projects/XKCP/lib/low/Xoodoo/plain/Xoodoo-plain.c:396:     Round(_rc2);
	.loc 1 396 5 view .LVU2109
	ssai	24	#
	src	a8, a14, a14	# v1, a23
# /storage/projects/XKCP/lib/low/Xoodoo/plain/Xoodoo-plain.c:397:     Round(_rc1);
	.loc 1 397 5 view .LVU2110
	l32i.n	a13, sp, 16	# %sfp,
# /storage/projects/XKCP/lib/low/Xoodoo/plain/Xoodoo-plain.c:396:     Round(_rc2);
	.loc 1 396 5 view .LVU2111
	ssai	24	#
	src	a15, a15, a15	# a23, a21
# /storage/projects/XKCP/lib/low/Xoodoo/plain/Xoodoo-plain.c:397:     Round(_rc1);
	.loc 1 397 5 view .LVU2112
	l32i.n	a14, sp, 0	# %sfp,
# /storage/projects/XKCP/lib/low/Xoodoo/plain/Xoodoo-plain.c:396:     Round(_rc2);
	.loc 1 396 5 view .LVU2113
	ssai	31	#
	src	a11, a9, a9	# a11, a11
# /storage/projects/XKCP/lib/low/Xoodoo/plain/Xoodoo-plain.c:397:     Round(_rc1);
	.loc 1 397 5 view .LVU2114
	xor	a7, a7, a15	# v1, tmp1533, a23
	xor	a5, a14, a11	# tmp1535,, a11
# /storage/projects/XKCP/lib/low/Xoodoo/plain/Xoodoo-plain.c:396:     Round(_rc2);
	.loc 1 396 5 view .LVU2115
	ssai	24	#
	src	a9, a6, a6	# v1, a22
.LVL794:
# /storage/projects/XKCP/lib/low/Xoodoo/plain/Xoodoo-plain.c:397:     Round(_rc1);
	.loc 1 397 5 view .LVU2116
	ssai	27	#
	src	a14, a7, a7	# _399, v1
# /storage/projects/XKCP/lib/low/Xoodoo/plain/Xoodoo-plain.c:396:     Round(_rc2);
	.loc 1 396 5 view .LVU2117
	ssai	24	#
	src	a3, a3, a3	# a22, a20
.LVL795:
# /storage/projects/XKCP/lib/low/Xoodoo/plain/Xoodoo-plain.c:397:     Round(_rc1);
	.loc 1 397 5 view .LVU2118
	ssai	18	#
	src	a7, a7, a7	# _400, v1
	xor	a7, a14, a7	# v1, _399, _400
	xor	a4, a4, a3	# v2, tmp1536, a22
	xor	a6, a13, a9	# tmp1534,, v1
# /storage/projects/XKCP/lib/low/Xoodoo/plain/Xoodoo-plain.c:396:     Round(_rc2);
	.loc 1 396 5 view .LVU2119
	ssai	31	#
	src	a10, a10, a10	# a10, a10
.LVL796:
	.loc 1 396 5 is_stmt 1 view .LVU2120
	.loc 1 396 5 view .LVU2121
	.loc 1 396 5 view .LVU2122
	.loc 1 396 5 view .LVU2123
	.loc 1 396 5 view .LVU2124
	.loc 1 396 5 view .LVU2125
	.loc 1 396 5 view .LVU2126
	.loc 1 396 5 view .LVU2127
	.loc 1 396 5 view .LVU2128
	.loc 1 396 16 view .LVU2129
	.loc 1 397 5 view .LVU2130
	.loc 1 397 5 view .LVU2131
	xor	a6, a6, a10	# v2, tmp1534, a10
.LVL797:
	.loc 1 397 5 view .LVU2132
	ssai	27	#
	src	a13, a4, a4	# _407, v2
.LVL798:
	.loc 1 397 5 view .LVU2133
	.loc 1 397 5 view .LVU2134
	xor	a9, a9, a7	# a20, v1, v1
.LVL799:
	.loc 1 397 5 is_stmt 0 view .LVU2135
	ssai	18	#
	src	a4, a4, a4	# _408, v2
	xor	a4, a13, a4	# v2, _407, _408
	ssai	21	#
	src	a9, a9, a9	#, a20
	ssai	27	#
	src	a13, a6, a6	# _402, v2
	ssai	18	#
	src	a6, a6, a6	# _403, v2
.LVL800:
	.loc 1 397 5 view .LVU2136
	s32i.n	a9, sp, 12	# %sfp,
	xor	a6, a13, a6	# v2, _402, _403
	xor	a5, a5, a8	# v1, tmp1535, v1
	xor	a12, a12, a4	#, a13, v2
.LVL801:
	.loc 1 397 5 view .LVU2137
	l32i.n	a13, sp, 12	# %sfp,
	ssai	27	#
	src	a14, a5, a5	# _405, v1
	xor	a8, a8, a6	# a21, v1, v2
.LVL802:
	.loc 1 397 5 view .LVU2138
	ssai	18	#
	src	a5, a5, a5	# _406, v1
	xor	a5, a14, a5	# v1, _405, _406
	ssai	21	#
	src	a8, a8, a8	#, a21
	xor	a14, a2, a12	# tmp1537, tmp1032,
	xor	a9, a11, a6	# a11, a11, v2
	l32i.n	a11, sp, 20	# %sfp,
.LVL803:
	.loc 1 397 5 view .LVU2139
	s32i.n	a8, sp, 20	# %sfp,
	and	a8, a14, a13	# tmp1539, tmp1537,
	l32i.n	a14, sp, 16	# %sfp,
	xor	a10, a10, a7	# a10, a10, v1
.LVL804:
	.loc 1 397 5 is_stmt 1 view .LVU2140
	.loc 1 397 5 view .LVU2141
	.loc 1 397 5 view .LVU2142
	.loc 1 397 5 view .LVU2143
	xor	a7, a14, a7	# tmp1540,, v1
.LVL805:
	.loc 1 397 5 is_stmt 0 view .LVU2144
	xor	a14, a8, a7	# _1000, tmp1539, tmp1540
	l32i.n	a7, sp, 0	# %sfp,
.LVL806:
	.loc 1 397 5 view .LVU2145
	xor	a15, a15, a4	# a23, a23, v2
.LVL807:
	.loc 1 397 5 view .LVU2146
	s32i.n	a12, sp, 36	# %sfp,
	xor	a6, a7, a6	# a01,, v2
.LVL808:
	.loc 1 397 5 view .LVU2147
	ssai	21	#
	src	a12, a15, a15	#, a23
	l32i.n	a7, sp, 8	# %sfp,
	s32i.n	a12, sp, 24	# %sfp,
	xor	a11, a11, a5	#,, v1
	xor	a4, a7, a4	# a03,, v2
	l32i.n	a7, sp, 24	# %sfp,
	s32i.n	a11, sp, 32	# %sfp,
	.loc 1 397 5 view .LVU2148
	l32i.n	a8, sp, 4	# %sfp,
	xor	a11, a2, a11	# tmp1557, tmp1032,
	xor	a3, a3, a5	# a22, a22, v1
.LVL809:
	.loc 1 397 5 view .LVU2149
	and	a11, a11, a7	# tmp1559, tmp1557,
	ssai	21	#
	src	a3, a3, a3	# a22, a22
.LVL810:
	.loc 1 397 5 is_stmt 1 view .LVU2150
	.loc 1 397 5 view .LVU2151
	.loc 1 397 5 view .LVU2152
	.loc 1 397 5 view .LVU2153
	.loc 1 397 5 view .LVU2154
	xor	a11, a11, a4	# a03, tmp1559, a03
	xor	a12, a2, a9	# tmp1551, tmp1032, a11
	l32i.n	a4, sp, 12	# %sfp,
	xor	a5, a8, a5	# a02,, v1
.LVL811:
	.loc 1 397 5 view .LVU2155
	.loc 1 397 5 view .LVU2156
	.loc 1 397 5 view .LVU2157
	.loc 1 397 5 view .LVU2158
	.loc 1 397 5 view .LVU2159
	.loc 1 397 5 view .LVU2160
	.loc 1 397 5 view .LVU2161
	.loc 1 397 5 view .LVU2162
	.loc 1 397 5 view .LVU2163
	.loc 1 397 5 view .LVU2164
	.loc 1 397 5 view .LVU2165
	.loc 1 397 5 view .LVU2166
	.loc 1 397 5 view .LVU2167
	.loc 1 397 5 view .LVU2168
	.loc 1 397 5 view .LVU2169
	.loc 1 397 5 view .LVU2170
	.loc 1 397 5 view .LVU2171
	.loc 1 397 5 view .LVU2172
	.loc 1 397 5 view .LVU2173
	.loc 1 397 5 view .LVU2174
	l32i.n	a8, sp, 20	# %sfp,
	xor	a13, a2, a10	# tmp1545, tmp1032, a10
	and	a12, a12, a3	# tmp1553, tmp1551, a22
	xor	a12, a12, a5	# a02, tmp1553, a02
	and	a13, a13, a8	# tmp1547, tmp1545,
	l32i.n	a5, sp, 20	# %sfp,
.LVL812:
	.loc 1 397 5 is_stmt 0 view .LVU2175
	xor	a8, a2, a4	# tmp1542, tmp1032,
	l32i.n	a4, sp, 24	# %sfp,
.LVL813:
	.loc 1 397 5 view .LVU2176
	xor	a13, a13, a6	# a01, tmp1547, a01
	movi.n	a15, 0x12	# tmp1541,
	xor	a6, a2, a3	# tmp1554, tmp1032, a22
.LVL814:
	.loc 1 397 5 view .LVU2177
	xor	a15, a14, a15	# a00, _1000, tmp1541
.LVL815:
	.loc 1 397 5 is_stmt 1 view .LVU2178
	xor	a7, a2, a5	# tmp1548, tmp1032,
.LVL816:
	.loc 1 397 5 is_stmt 0 view .LVU2179
	and	a6, a6, a12	# tmp1556, tmp1554, a02
	xor	a5, a2, a4	# tmp1560, tmp1032,
	l32i.n	a4, sp, 36	# %sfp,
.LVL817:
	.loc 1 397 5 view .LVU2180
	xor	a6, a6, a9	# a12, tmp1556, a11
	and	a8, a8, a15	# tmp1544, tmp1542, a00
	l32i.n	a9, sp, 32	# %sfp,
.LVL818:
	.loc 1 397 5 view .LVU2181
	and	a7, a7, a13	# tmp1550, tmp1548, a01
	xor	a8, a8, a4	# a10, tmp1544,
.LVL819:
	.loc 1 397 5 is_stmt 1 view .LVU2182
	.loc 1 397 5 view .LVU2183
	.loc 1 397 5 view .LVU2184
	xor	a7, a7, a10	# a11, tmp1550, a10
.LVL820:
	.loc 1 397 5 view .LVU2185
	.loc 1 397 5 view .LVU2186
	.loc 1 397 5 view .LVU2187
	.loc 1 397 5 view .LVU2188
	.loc 1 397 5 view .LVU2189
	.loc 1 397 5 view .LVU2190
	and	a5, a5, a11	# tmp1562, tmp1560, a03
	xor	a10, a2, a12	# tmp1567, tmp1503, a02
	movi.n	a4, -0x13	# tmp1577,
	xor	a5, a5, a9	# a13, tmp1562,
.LVL821:
	.loc 1 397 5 view .LVU2191
	.loc 1 397 5 view .LVU2192
	.loc 1 397 5 view .LVU2193
	.loc 1 397 5 view .LVU2194
	.loc 1 397 5 view .LVU2195
	.loc 1 397 5 view .LVU2196
	.loc 1 397 5 view .LVU2197
	.loc 1 397 5 view .LVU2198
	.loc 1 397 5 view .LVU2199
	.loc 1 397 5 view .LVU2200
	.loc 1 397 5 view .LVU2201
	.loc 1 397 5 view .LVU2202
	.loc 1 397 16 view .LVU2203
	.loc 1 398 25 view .LVU2204
	.loc 1 399 5 view .LVU2205
# /storage/projects/XKCP/lib/low/Xoodoo/plain/Xoodoo-plain.c:397:     Round(_rc1);
	.loc 1 397 5 is_stmt 0 view .LVU2206
	xor	a4, a14, a4	# tmp1578, _1000, tmp1577
	xor	a9, a2, a11	# tmp1572, tmp1503, a03
	l32i.n	a14, sp, 24	# %sfp,
.LVL822:
	.loc 1 397 5 view .LVU2207
	and	a10, a10, a6	# tmp1569, tmp1567, a12
	and	a9, a9, a5	# tmp1574, tmp1572, a13
	xor	a10, a10, a3	# a22, tmp1569, a22
	l32i.n	a3, sp, 12	# %sfp,
.LVL823:
	.loc 1 397 5 view .LVU2208
	xor	a2, a2, a13	# tmp1582, tmp1503, a01
	.loc 1 397 5 view .LVU2209
	and	a4, a4, a8	# tmp1579, tmp1578, a10
.LVL824:
	.loc 1 397 5 view .LVU2210
	xor	a9, a9, a14	# a23, tmp1574,
	l32i.n	a14, sp, 20	# %sfp,
	and	a2, a2, a7	# tmp1584, tmp1582, a11
	xor	a4, a4, a3	# a20, tmp1579,
# /storage/projects/XKCP/lib/low/Xoodoo/plain/Xoodoo-plain.c:399:     Vars2State;
	.loc 1 399 5 view .LVU2211
	l32i.n	a3, sp, 28	# %sfp,
# /storage/projects/XKCP/lib/low/Xoodoo/plain/Xoodoo-plain.c:397:     Round(_rc1);
	.loc 1 397 5 view .LVU2212
	xor	a2, a2, a14	# a21, tmp1584,
	ssai	31	#
	src	a8, a8, a8	# a10, a10
.LVL825:
	.loc 1 397 5 view .LVU2213
	ssai	31	#
	src	a7, a7, a7	# a11, a11
.LVL826:
	.loc 1 397 5 view .LVU2214
	ssai	31	#
	src	a6, a6, a6	# a12, a12
.LVL827:
	.loc 1 397 5 view .LVU2215
	ssai	31	#
	src	a5, a5, a5	# a13, a13
.LVL828:
# /storage/projects/XKCP/lib/low/Xoodoo/plain/Xoodoo-plain.c:399:     Vars2State;
	.loc 1 399 5 view .LVU2216
	s32i.n	a15, a3, 0	# *state_434(D), a00
	.loc 1 399 5 view .LVU2217
	s32i.n	a13, a3, 4	# *state_434(D), a01
	.loc 1 399 5 view .LVU2218
	s32i.n	a12, a3, 8	# *state_434(D), a02
# /storage/projects/XKCP/lib/low/Xoodoo/plain/Xoodoo-plain.c:397:     Round(_rc1);
	.loc 1 397 5 view .LVU2219
	ssai	24	#
	src	a10, a10, a10	# v1, a22
	ssai	24	#
	src	a9, a9, a9	# v1, a23
	ssai	24	#
	src	a4, a4, a4	# a22, a20
.LVL829:
	.loc 1 397 5 view .LVU2220
	ssai	24	#
	src	a2, a2, a2	# a23, a21
# /storage/projects/XKCP/lib/low/Xoodoo/plain/Xoodoo-plain.c:399:     Vars2State;
	.loc 1 399 5 view .LVU2221
	s32i.n	a11, a3, 12	# *state_434(D), a03
	.loc 1 399 5 is_stmt 1 view .LVU2222
	s32i.n	a8, a3, 16	# *state_434(D), a10
	.loc 1 399 5 is_stmt 0 view .LVU2223
	s32i.n	a7, a3, 20	# *state_434(D), a11
	s32i.n	a6, a3, 24	# *state_434(D), a12
	s32i.n	a5, a3, 28	# *state_434(D), a13
	.loc 1 399 5 is_stmt 1 view .LVU2224
	s32i.n	a10, a3, 32	# *state_434(D), v1
# /storage/projects/XKCP/lib/low/Xoodoo/plain/Xoodoo-plain.c:400: }
	.loc 1 400 1 is_stmt 0 view .LVU2225
	l32i	a12, sp, 76	#,
.LVL830:
	.loc 1 400 1 view .LVU2226
	l32i	a13, sp, 72	#,
.LVL831:
	.loc 1 400 1 view .LVU2227
	l32i	a14, sp, 68	#,
	l32i	a15, sp, 64	#,
.LVL832:
# /storage/projects/XKCP/lib/low/Xoodoo/plain/Xoodoo-plain.c:399:     Vars2State;
	.loc 1 399 5 view .LVU2228
	s32i.n	a9, a3, 36	# *state_434(D), v1
	.loc 1 399 5 view .LVU2229
	s32i.n	a4, a3, 40	# *state_434(D), a22
	s32i.n	a2, a3, 44	# *state_434(D), a23
# /storage/projects/XKCP/lib/low/Xoodoo/plain/Xoodoo-plain.c:400: }
	.loc 1 400 1 view .LVU2230
	addi	sp, sp, 80	#,,
.LVL833:
	.loc 1 400 1 view .LVU2231
	ret.n	
.LFE11:
	.size	Xoodoo_plain_Permute_12rounds, .-Xoodoo_plain_Permute_12rounds
	.section	.rodata
	.align	4
	.type	RC, @object
	.size	RC, 48
RC:
	.word	88
	.word	56
	.word	960
	.word	208
	.word	288
	.word	20
	.word	96
	.word	44
	.word	896
	.word	240
	.word	416
	.word	18
	.section	.debug_frame,"",@progbits
.Lframe0:
	.4byte	.LECIE0-.LSCIE0
.LSCIE0:
	.4byte	0xffffffff
	.byte	0x3
	.string	""
	.uleb128 0x1
	.sleb128 -4
	.uleb128 0
	.byte	0xc
	.uleb128 0x1
	.uleb128 0
	.align	4
.LECIE0:
.LSFDE0:
	.4byte	.LEFDE0-.LASFDE0
.LASFDE0:
	.4byte	.Lframe0
	.4byte	.LFB3
	.4byte	.LFE3-.LFB3
	.byte	0x4
	.4byte	.LCFI0-.LFB3
	.byte	0xe
	.uleb128 0x10
	.byte	0x4
	.4byte	.LCFI1-.LCFI0
	.byte	0x80
	.uleb128 0x1
	.align	4
.LEFDE0:
.LSFDE2:
	.4byte	.LEFDE2-.LASFDE2
.LASFDE2:
	.4byte	.Lframe0
	.4byte	.LFB4
	.4byte	.LFE4-.LFB4
	.byte	0x4
	.4byte	.LCFI2-.LFB4
	.byte	0xe
	.uleb128 0x30
	.byte	0x4
	.4byte	.LCFI3-.LCFI2
	.byte	0x8c
	.uleb128 0x2
	.byte	0x80
	.uleb128 0x1
	.byte	0x8d
	.uleb128 0x3
	.byte	0x8e
	.uleb128 0x4
	.align	4
.LEFDE2:
.LSFDE4:
	.4byte	.LEFDE4-.LASFDE4
.LASFDE4:
	.4byte	.Lframe0
	.4byte	.LFB5
	.4byte	.LFE5-.LFB5
	.byte	0x4
	.4byte	.LCFI4-.LFB5
	.byte	0xe
	.uleb128 0x10
	.byte	0x4
	.4byte	.LCFI5-.LCFI4
	.byte	0x80
	.uleb128 0x1
	.align	4
.LEFDE4:
.LSFDE6:
	.4byte	.LEFDE6-.LASFDE6
.LASFDE6:
	.4byte	.Lframe0
	.4byte	.LFB6
	.4byte	.LFE6-.LFB6
	.byte	0x4
	.4byte	.LCFI6-.LFB6
	.byte	0xe
	.uleb128 0x10
	.byte	0x4
	.4byte	.LCFI7-.LCFI6
	.byte	0x80
	.uleb128 0x1
	.align	4
.LEFDE6:
.LSFDE8:
	.4byte	.LEFDE8-.LASFDE8
.LASFDE8:
	.4byte	.Lframe0
	.4byte	.LFB7
	.4byte	.LFE7-.LFB7
	.byte	0x4
	.4byte	.LCFI8-.LFB7
	.byte	0xe
	.uleb128 0x10
	.byte	0x4
	.4byte	.LCFI9-.LCFI8
	.byte	0x80
	.uleb128 0x1
	.align	4
.LEFDE8:
.LSFDE10:
	.4byte	.LEFDE10-.LASFDE10
.LASFDE10:
	.4byte	.Lframe0
	.4byte	.LFB8
	.4byte	.LFE8-.LFB8
	.align	4
.LEFDE10:
.LSFDE12:
	.4byte	.LEFDE12-.LASFDE12
.LASFDE12:
	.4byte	.Lframe0
	.4byte	.LFB9
	.4byte	.LFE9-.LFB9
	.byte	0x4
	.4byte	.LCFI10-.LFB9
	.byte	0xe
	.uleb128 0x40
	.byte	0x4
	.4byte	.LCFI11-.LCFI10
	.byte	0x8e
	.uleb128 0x3
	.byte	0x4
	.4byte	.LCFI12-.LCFI11
	.byte	0x8c
	.uleb128 0x1
	.byte	0x8d
	.uleb128 0x2
	.byte	0x8f
	.uleb128 0x4
	.align	4
.LEFDE12:
.LSFDE14:
	.4byte	.LEFDE14-.LASFDE14
.LASFDE14:
	.4byte	.Lframe0
	.4byte	.LFB10
	.4byte	.LFE10-.LFB10
	.byte	0x4
	.4byte	.LCFI13-.LFB10
	.byte	0xe
	.uleb128 0x50
	.byte	0x4
	.4byte	.LCFI14-.LCFI13
	.byte	0x8d
	.uleb128 0x2
	.byte	0x4
	.4byte	.LCFI15-.LCFI14
	.byte	0x8e
	.uleb128 0x3
	.byte	0x4
	.4byte	.LCFI16-.LCFI15
	.byte	0x8c
	.uleb128 0x1
	.byte	0x4
	.4byte	.LCFI17-.LCFI16
	.byte	0x8f
	.uleb128 0x4
	.align	4
.LEFDE14:
.LSFDE16:
	.4byte	.LEFDE16-.LASFDE16
.LASFDE16:
	.4byte	.Lframe0
	.4byte	.LFB11
	.4byte	.LFE11-.LFB11
	.byte	0x4
	.4byte	.LCFI18-.LFB11
	.byte	0xe
	.uleb128 0x50
	.byte	0x4
	.4byte	.LCFI19-.LCFI18
	.byte	0x8d
	.uleb128 0x2
	.byte	0x4
	.4byte	.LCFI20-.LCFI19
	.byte	0x8e
	.uleb128 0x3
	.byte	0x4
	.4byte	.LCFI21-.LCFI20
	.byte	0x8c
	.uleb128 0x1
	.byte	0x4
	.4byte	.LCFI22-.LCFI21
	.byte	0x8f
	.uleb128 0x4
	.align	4
.LEFDE16:
	.text
.Letext0:
	.file 2 "/home/san/esp/xtensa-lx106-elf/xtensa-lx106-elf/sys-include/machine/_default_types.h"
	.file 3 "/home/san/esp/xtensa-lx106-elf/xtensa-lx106-elf/sys-include/sys/lock.h"
	.file 4 "/home/san/esp/xtensa-lx106-elf/xtensa-lx106-elf/sys-include/sys/_types.h"
	.file 5 "/home/san/esp/xtensa-lx106-elf/lib/gcc/xtensa-lx106-elf/8.4.0/include/stddef.h"
	.file 6 "/home/san/esp/xtensa-lx106-elf/xtensa-lx106-elf/sys-include/sys/reent.h"
	.file 7 "/home/san/esp/xtensa-lx106-elf/xtensa-lx106-elf/sys-include/sys/_stdint.h"
	.file 8 "/home/san/esp/xtensa-lx106-elf/xtensa-lx106-elf/sys-include/stdlib.h"
	.file 9 "/storage/projects/XKCP/lib/low/Xoodoo/plain/Xoodoo-plain.h"
	.file 10 "<built-in>"
	.section	.debug_info,"",@progbits
.Ldebug_info0:
	.4byte	0x12f1
	.2byte	0x4
	.4byte	.Ldebug_abbrev0
	.byte	0x4
	.uleb128 0x1
	.4byte	.LASF156
	.byte	0xc
	.4byte	.LASF157
	.4byte	.LASF158
	.4byte	.Ltext0
	.4byte	.Letext0-.Ltext0
	.4byte	.Ldebug_line0
	.uleb128 0x2
	.byte	0x1
	.byte	0x6
	.4byte	.LASF0
	.uleb128 0x2
	.byte	0x1
	.byte	0x8
	.4byte	.LASF1
	.uleb128 0x3
	.4byte	0x2c
	.uleb128 0x2
	.byte	0x2
	.byte	0x5
	.4byte	.LASF2
	.uleb128 0x2
	.byte	0x2
	.byte	0x7
	.4byte	.LASF3
	.uleb128 0x4
	.byte	0x4
	.byte	0x5
	.string	"int"
	.uleb128 0x5
	.4byte	.LASF8
	.byte	0x2
	.byte	0x4f
	.byte	0x19
	.4byte	0x59
	.uleb128 0x2
	.byte	0x4
	.byte	0x7
	.4byte	.LASF4
	.uleb128 0x2
	.byte	0x8
	.byte	0x5
	.4byte	.LASF5
	.uleb128 0x2
	.byte	0x8
	.byte	0x7
	.4byte	.LASF6
	.uleb128 0x2
	.byte	0x8
	.byte	0x4
	.4byte	.LASF7
	.uleb128 0x6
	.byte	0x4
	.uleb128 0x5
	.4byte	.LASF9
	.byte	0x3
	.byte	0xb
	.byte	0xd
	.4byte	0x46
	.uleb128 0x5
	.4byte	.LASF10
	.byte	0x3
	.byte	0xc
	.byte	0x11
	.4byte	0x77
	.uleb128 0x2
	.byte	0x4
	.byte	0x5
	.4byte	.LASF11
	.uleb128 0x5
	.4byte	.LASF12
	.byte	0x4
	.byte	0x2c
	.byte	0xe
	.4byte	0x8f
	.uleb128 0x5
	.4byte	.LASF13
	.byte	0x4
	.byte	0x72
	.byte	0xe
	.4byte	0x8f
	.uleb128 0x7
	.4byte	.LASF14
	.byte	0x5
	.2byte	0x165
	.byte	0x17
	.4byte	0x59
	.uleb128 0x8
	.byte	0x4
	.byte	0x4
	.byte	0xa6
	.byte	0x3
	.4byte	0xdd
	.uleb128 0x9
	.4byte	.LASF15
	.byte	0x4
	.byte	0xa8
	.byte	0xc
	.4byte	0xae
	.uleb128 0x9
	.4byte	.LASF16
	.byte	0x4
	.byte	0xa9
	.byte	0x13
	.4byte	0xdd
	.byte	0
	.uleb128 0xa
	.4byte	0x2c
	.4byte	0xed
	.uleb128 0xb
	.4byte	0x59
	.byte	0x3
	.byte	0
	.uleb128 0xc
	.byte	0x8
	.byte	0x4
	.byte	0xa3
	.byte	0x9
	.4byte	0x111
	.uleb128 0xd
	.4byte	.LASF17
	.byte	0x4
	.byte	0xa5
	.byte	0x7
	.4byte	0x46
	.byte	0
	.uleb128 0xd
	.4byte	.LASF18
	.byte	0x4
	.byte	0xaa
	.byte	0x5
	.4byte	0xbb
	.byte	0x4
	.byte	0
	.uleb128 0x5
	.4byte	.LASF19
	.byte	0x4
	.byte	0xab
	.byte	0x3
	.4byte	0xed
	.uleb128 0x5
	.4byte	.LASF20
	.byte	0x4
	.byte	0xaf
	.byte	0x1b
	.4byte	0x83
	.uleb128 0x2
	.byte	0x4
	.byte	0x7
	.4byte	.LASF21
	.uleb128 0x5
	.4byte	.LASF22
	.byte	0x6
	.byte	0x16
	.byte	0x19
	.4byte	0x129
	.uleb128 0xe
	.4byte	.LASF27
	.byte	0x18
	.byte	0x6
	.byte	0x2f
	.byte	0x8
	.4byte	0x196
	.uleb128 0xd
	.4byte	.LASF23
	.byte	0x6
	.byte	0x31
	.byte	0x13
	.4byte	0x196
	.byte	0
	.uleb128 0xf
	.string	"_k"
	.byte	0x6
	.byte	0x32
	.byte	0x7
	.4byte	0x46
	.byte	0x4
	.uleb128 0xd
	.4byte	.LASF24
	.byte	0x6
	.byte	0x32
	.byte	0xb
	.4byte	0x46
	.byte	0x8
	.uleb128 0xd
	.4byte	.LASF25
	.byte	0x6
	.byte	0x32
	.byte	0x14
	.4byte	0x46
	.byte	0xc
	.uleb128 0xd
	.4byte	.LASF26
	.byte	0x6
	.byte	0x32
	.byte	0x1b
	.4byte	0x46
	.byte	0x10
	.uleb128 0xf
	.string	"_x"
	.byte	0x6
	.byte	0x33
	.byte	0xb
	.4byte	0x19c
	.byte	0x14
	.byte	0
	.uleb128 0x10
	.byte	0x4
	.4byte	0x13c
	.uleb128 0xa
	.4byte	0x130
	.4byte	0x1ac
	.uleb128 0xb
	.4byte	0x59
	.byte	0
	.byte	0
	.uleb128 0xe
	.4byte	.LASF28
	.byte	0x24
	.byte	0x6
	.byte	0x37
	.byte	0x8
	.4byte	0x22f
	.uleb128 0xd
	.4byte	.LASF29
	.byte	0x6
	.byte	0x39
	.byte	0x9
	.4byte	0x46
	.byte	0
	.uleb128 0xd
	.4byte	.LASF30
	.byte	0x6
	.byte	0x3a
	.byte	0x9
	.4byte	0x46
	.byte	0x4
	.uleb128 0xd
	.4byte	.LASF31
	.byte	0x6
	.byte	0x3b
	.byte	0x9
	.4byte	0x46
	.byte	0x8
	.uleb128 0xd
	.4byte	.LASF32
	.byte	0x6
	.byte	0x3c
	.byte	0x9
	.4byte	0x46
	.byte	0xc
	.uleb128 0xd
	.4byte	.LASF33
	.byte	0x6
	.byte	0x3d
	.byte	0x9
	.4byte	0x46
	.byte	0x10
	.uleb128 0xd
	.4byte	.LASF34
	.byte	0x6
	.byte	0x3e
	.byte	0x9
	.4byte	0x46
	.byte	0x14
	.uleb128 0xd
	.4byte	.LASF35
	.byte	0x6
	.byte	0x3f
	.byte	0x9
	.4byte	0x46
	.byte	0x18
	.uleb128 0xd
	.4byte	.LASF36
	.byte	0x6
	.byte	0x40
	.byte	0x9
	.4byte	0x46
	.byte	0x1c
	.uleb128 0xd
	.4byte	.LASF37
	.byte	0x6
	.byte	0x41
	.byte	0x9
	.4byte	0x46
	.byte	0x20
	.byte	0
	.uleb128 0x11
	.4byte	.LASF38
	.2byte	0x108
	.byte	0x6
	.byte	0x4a
	.byte	0x8
	.4byte	0x274
	.uleb128 0xd
	.4byte	.LASF39
	.byte	0x6
	.byte	0x4b
	.byte	0xa
	.4byte	0x274
	.byte	0
	.uleb128 0xd
	.4byte	.LASF40
	.byte	0x6
	.byte	0x4c
	.byte	0x9
	.4byte	0x274
	.byte	0x80
	.uleb128 0x12
	.4byte	.LASF41
	.byte	0x6
	.byte	0x4e
	.byte	0xa
	.4byte	0x130
	.2byte	0x100
	.uleb128 0x12
	.4byte	.LASF42
	.byte	0x6
	.byte	0x51
	.byte	0xa
	.4byte	0x130
	.2byte	0x104
	.byte	0
	.uleb128 0xa
	.4byte	0x75
	.4byte	0x284
	.uleb128 0xb
	.4byte	0x59
	.byte	0x1f
	.byte	0
	.uleb128 0xe
	.4byte	.LASF43
	.byte	0x8c
	.byte	0x6
	.byte	0x55
	.byte	0x8
	.4byte	0x2c6
	.uleb128 0xd
	.4byte	.LASF23
	.byte	0x6
	.byte	0x56
	.byte	0x12
	.4byte	0x2c6
	.byte	0
	.uleb128 0xd
	.4byte	.LASF44
	.byte	0x6
	.byte	0x57
	.byte	0x6
	.4byte	0x46
	.byte	0x4
	.uleb128 0xd
	.4byte	.LASF45
	.byte	0x6
	.byte	0x58
	.byte	0x9
	.4byte	0x2cc
	.byte	0x8
	.uleb128 0xd
	.4byte	.LASF46
	.byte	0x6
	.byte	0x59
	.byte	0x20
	.4byte	0x2e3
	.byte	0x88
	.byte	0
	.uleb128 0x10
	.byte	0x4
	.4byte	0x284
	.uleb128 0xa
	.4byte	0x2dc
	.4byte	0x2dc
	.uleb128 0xb
	.4byte	0x59
	.byte	0x1f
	.byte	0
	.uleb128 0x10
	.byte	0x4
	.4byte	0x2e2
	.uleb128 0x13
	.uleb128 0x10
	.byte	0x4
	.4byte	0x22f
	.uleb128 0xe
	.4byte	.LASF47
	.byte	0x8
	.byte	0x6
	.byte	0x75
	.byte	0x8
	.4byte	0x311
	.uleb128 0xd
	.4byte	.LASF48
	.byte	0x6
	.byte	0x76
	.byte	0x11
	.4byte	0x311
	.byte	0
	.uleb128 0xd
	.4byte	.LASF49
	.byte	0x6
	.byte	0x77
	.byte	0x6
	.4byte	0x46
	.byte	0x4
	.byte	0
	.uleb128 0x10
	.byte	0x4
	.4byte	0x2c
	.uleb128 0xe
	.4byte	.LASF50
	.byte	0x20
	.byte	0x6
	.byte	0x99
	.byte	0x8
	.4byte	0x38a
	.uleb128 0xf
	.string	"_p"
	.byte	0x6
	.byte	0x9a
	.byte	0x12
	.4byte	0x311
	.byte	0
	.uleb128 0xf
	.string	"_r"
	.byte	0x6
	.byte	0x9b
	.byte	0x7
	.4byte	0x46
	.byte	0x4
	.uleb128 0xf
	.string	"_w"
	.byte	0x6
	.byte	0x9c
	.byte	0x7
	.4byte	0x46
	.byte	0x8
	.uleb128 0xd
	.4byte	.LASF51
	.byte	0x6
	.byte	0x9d
	.byte	0x9
	.4byte	0x38
	.byte	0xc
	.uleb128 0xd
	.4byte	.LASF52
	.byte	0x6
	.byte	0x9e
	.byte	0x9
	.4byte	0x38
	.byte	0xe
	.uleb128 0xf
	.string	"_bf"
	.byte	0x6
	.byte	0x9f
	.byte	0x11
	.4byte	0x2e9
	.byte	0x10
	.uleb128 0xd
	.4byte	.LASF53
	.byte	0x6
	.byte	0xa0
	.byte	0x7
	.4byte	0x46
	.byte	0x18
	.uleb128 0xd
	.4byte	.LASF54
	.byte	0x6
	.byte	0xa2
	.byte	0x12
	.4byte	0x4ee
	.byte	0x1c
	.byte	0
	.uleb128 0x3
	.4byte	0x317
	.uleb128 0x14
	.4byte	.LASF55
	.byte	0xf0
	.byte	0x6
	.2byte	0x174
	.byte	0x8
	.4byte	0x4ee
	.uleb128 0x15
	.4byte	.LASF56
	.byte	0x6
	.2byte	0x178
	.byte	0x7
	.4byte	0x46
	.byte	0
	.uleb128 0x15
	.4byte	.LASF57
	.byte	0x6
	.2byte	0x17d
	.byte	0xb
	.4byte	0x741
	.byte	0x4
	.uleb128 0x15
	.4byte	.LASF58
	.byte	0x6
	.2byte	0x17d
	.byte	0x14
	.4byte	0x741
	.byte	0x8
	.uleb128 0x15
	.4byte	.LASF59
	.byte	0x6
	.2byte	0x17d
	.byte	0x1e
	.4byte	0x741
	.byte	0xc
	.uleb128 0x15
	.4byte	.LASF60
	.byte	0x6
	.2byte	0x17f
	.byte	0x8
	.4byte	0x46
	.byte	0x10
	.uleb128 0x15
	.4byte	.LASF61
	.byte	0x6
	.2byte	0x181
	.byte	0x9
	.4byte	0x655
	.byte	0x14
	.uleb128 0x15
	.4byte	.LASF62
	.byte	0x6
	.2byte	0x183
	.byte	0x7
	.4byte	0x46
	.byte	0x18
	.uleb128 0x15
	.4byte	.LASF63
	.byte	0x6
	.2byte	0x185
	.byte	0x7
	.4byte	0x46
	.byte	0x1c
	.uleb128 0x15
	.4byte	.LASF64
	.byte	0x6
	.2byte	0x186
	.byte	0x16
	.4byte	0x8a9
	.byte	0x20
	.uleb128 0x16
	.string	"_mp"
	.byte	0x6
	.2byte	0x188
	.byte	0x12
	.4byte	0x8af
	.byte	0x24
	.uleb128 0x15
	.4byte	.LASF65
	.byte	0x6
	.2byte	0x18a
	.byte	0xa
	.4byte	0x8c0
	.byte	0x28
	.uleb128 0x15
	.4byte	.LASF66
	.byte	0x6
	.2byte	0x18c
	.byte	0x7
	.4byte	0x46
	.byte	0x2c
	.uleb128 0x15
	.4byte	.LASF67
	.byte	0x6
	.2byte	0x18f
	.byte	0x7
	.4byte	0x46
	.byte	0x30
	.uleb128 0x15
	.4byte	.LASF68
	.byte	0x6
	.2byte	0x190
	.byte	0x9
	.4byte	0x655
	.byte	0x34
	.uleb128 0x15
	.4byte	.LASF69
	.byte	0x6
	.2byte	0x192
	.byte	0x13
	.4byte	0x8c6
	.byte	0x38
	.uleb128 0x15
	.4byte	.LASF70
	.byte	0x6
	.2byte	0x193
	.byte	0x10
	.4byte	0x8cc
	.byte	0x3c
	.uleb128 0x15
	.4byte	.LASF71
	.byte	0x6
	.2byte	0x194
	.byte	0x9
	.4byte	0x655
	.byte	0x40
	.uleb128 0x15
	.4byte	.LASF72
	.byte	0x6
	.2byte	0x197
	.byte	0xb
	.4byte	0x8dd
	.byte	0x44
	.uleb128 0x15
	.4byte	.LASF43
	.byte	0x6
	.2byte	0x19b
	.byte	0x13
	.4byte	0x2c6
	.byte	0x48
	.uleb128 0x15
	.4byte	.LASF73
	.byte	0x6
	.2byte	0x19c
	.byte	0x12
	.4byte	0x284
	.byte	0x4c
	.uleb128 0x15
	.4byte	.LASF74
	.byte	0x6
	.2byte	0x19f
	.byte	0x10
	.4byte	0x702
	.byte	0xd8
	.uleb128 0x15
	.4byte	.LASF75
	.byte	0x6
	.2byte	0x1a0
	.byte	0xb
	.4byte	0x741
	.byte	0xe4
	.uleb128 0x15
	.4byte	.LASF76
	.byte	0x6
	.2byte	0x1a1
	.byte	0x17
	.4byte	0x8e9
	.byte	0xe8
	.uleb128 0x15
	.4byte	.LASF77
	.byte	0x6
	.2byte	0x1a2
	.byte	0x9
	.4byte	0x655
	.byte	0xec
	.byte	0
	.uleb128 0x10
	.byte	0x4
	.4byte	0x38f
	.uleb128 0xe
	.4byte	.LASF78
	.byte	0x68
	.byte	0x6
	.byte	0xb5
	.byte	0x8
	.4byte	0x637
	.uleb128 0xf
	.string	"_p"
	.byte	0x6
	.byte	0xb6
	.byte	0x12
	.4byte	0x311
	.byte	0
	.uleb128 0xf
	.string	"_r"
	.byte	0x6
	.byte	0xb7
	.byte	0x7
	.4byte	0x46
	.byte	0x4
	.uleb128 0xf
	.string	"_w"
	.byte	0x6
	.byte	0xb8
	.byte	0x7
	.4byte	0x46
	.byte	0x8
	.uleb128 0xd
	.4byte	.LASF51
	.byte	0x6
	.byte	0xb9
	.byte	0x9
	.4byte	0x38
	.byte	0xc
	.uleb128 0xd
	.4byte	.LASF52
	.byte	0x6
	.byte	0xba
	.byte	0x9
	.4byte	0x38
	.byte	0xe
	.uleb128 0xf
	.string	"_bf"
	.byte	0x6
	.byte	0xbb
	.byte	0x11
	.4byte	0x2e9
	.byte	0x10
	.uleb128 0xd
	.4byte	.LASF53
	.byte	0x6
	.byte	0xbc
	.byte	0x7
	.4byte	0x46
	.byte	0x18
	.uleb128 0xd
	.4byte	.LASF54
	.byte	0x6
	.byte	0xbf
	.byte	0x12
	.4byte	0x4ee
	.byte	0x1c
	.uleb128 0xd
	.4byte	.LASF79
	.byte	0x6
	.byte	0xc3
	.byte	0xa
	.4byte	0x75
	.byte	0x20
	.uleb128 0xd
	.4byte	.LASF80
	.byte	0x6
	.byte	0xc5
	.byte	0x1d
	.4byte	0x667
	.byte	0x24
	.uleb128 0xd
	.4byte	.LASF81
	.byte	0x6
	.byte	0xc7
	.byte	0x1d
	.4byte	0x691
	.byte	0x28
	.uleb128 0xd
	.4byte	.LASF82
	.byte	0x6
	.byte	0xca
	.byte	0xd
	.4byte	0x6b5
	.byte	0x2c
	.uleb128 0xd
	.4byte	.LASF83
	.byte	0x6
	.byte	0xcb
	.byte	0x9
	.4byte	0x6cf
	.byte	0x30
	.uleb128 0xf
	.string	"_ub"
	.byte	0x6
	.byte	0xce
	.byte	0x11
	.4byte	0x2e9
	.byte	0x34
	.uleb128 0xf
	.string	"_up"
	.byte	0x6
	.byte	0xcf
	.byte	0x12
	.4byte	0x311
	.byte	0x3c
	.uleb128 0xf
	.string	"_ur"
	.byte	0x6
	.byte	0xd0
	.byte	0x7
	.4byte	0x46
	.byte	0x40
	.uleb128 0xd
	.4byte	.LASF84
	.byte	0x6
	.byte	0xd3
	.byte	0x11
	.4byte	0x6d5
	.byte	0x44
	.uleb128 0xd
	.4byte	.LASF85
	.byte	0x6
	.byte	0xd4
	.byte	0x11
	.4byte	0x6e5
	.byte	0x47
	.uleb128 0xf
	.string	"_lb"
	.byte	0x6
	.byte	0xd7
	.byte	0x11
	.4byte	0x2e9
	.byte	0x48
	.uleb128 0xd
	.4byte	.LASF86
	.byte	0x6
	.byte	0xda
	.byte	0x7
	.4byte	0x46
	.byte	0x50
	.uleb128 0xd
	.4byte	.LASF87
	.byte	0x6
	.byte	0xdb
	.byte	0xa
	.4byte	0x96
	.byte	0x54
	.uleb128 0xd
	.4byte	.LASF88
	.byte	0x6
	.byte	0xe2
	.byte	0xc
	.4byte	0x11d
	.byte	0x58
	.uleb128 0xd
	.4byte	.LASF89
	.byte	0x6
	.byte	0xe4
	.byte	0xe
	.4byte	0x111
	.byte	0x5c
	.uleb128 0xd
	.4byte	.LASF90
	.byte	0x6
	.byte	0xe5
	.byte	0x9
	.4byte	0x46
	.byte	0x64
	.byte	0
	.uleb128 0x17
	.4byte	0x46
	.4byte	0x655
	.uleb128 0x18
	.4byte	0x4ee
	.uleb128 0x18
	.4byte	0x75
	.uleb128 0x18
	.4byte	0x655
	.uleb128 0x18
	.4byte	0x46
	.byte	0
	.uleb128 0x10
	.byte	0x4
	.4byte	0x65b
	.uleb128 0x2
	.byte	0x1
	.byte	0x8
	.4byte	.LASF91
	.uleb128 0x3
	.4byte	0x65b
	.uleb128 0x10
	.byte	0x4
	.4byte	0x637
	.uleb128 0x17
	.4byte	0x46
	.4byte	0x68b
	.uleb128 0x18
	.4byte	0x4ee
	.uleb128 0x18
	.4byte	0x75
	.uleb128 0x18
	.4byte	0x68b
	.uleb128 0x18
	.4byte	0x46
	.byte	0
	.uleb128 0x10
	.byte	0x4
	.4byte	0x662
	.uleb128 0x10
	.byte	0x4
	.4byte	0x66d
	.uleb128 0x17
	.4byte	0xa2
	.4byte	0x6b5
	.uleb128 0x18
	.4byte	0x4ee
	.uleb128 0x18
	.4byte	0x75
	.uleb128 0x18
	.4byte	0xa2
	.uleb128 0x18
	.4byte	0x46
	.byte	0
	.uleb128 0x10
	.byte	0x4
	.4byte	0x697
	.uleb128 0x17
	.4byte	0x46
	.4byte	0x6cf
	.uleb128 0x18
	.4byte	0x4ee
	.uleb128 0x18
	.4byte	0x75
	.byte	0
	.uleb128 0x10
	.byte	0x4
	.4byte	0x6bb
	.uleb128 0xa
	.4byte	0x2c
	.4byte	0x6e5
	.uleb128 0xb
	.4byte	0x59
	.byte	0x2
	.byte	0
	.uleb128 0xa
	.4byte	0x2c
	.4byte	0x6f5
	.uleb128 0xb
	.4byte	0x59
	.byte	0
	.byte	0
	.uleb128 0x7
	.4byte	.LASF92
	.byte	0x6
	.2byte	0x11f
	.byte	0x1a
	.4byte	0x4f4
	.uleb128 0x14
	.4byte	.LASF93
	.byte	0xc
	.byte	0x6
	.2byte	0x123
	.byte	0x8
	.4byte	0x73b
	.uleb128 0x15
	.4byte	.LASF23
	.byte	0x6
	.2byte	0x125
	.byte	0x11
	.4byte	0x73b
	.byte	0
	.uleb128 0x15
	.4byte	.LASF94
	.byte	0x6
	.2byte	0x126
	.byte	0x7
	.4byte	0x46
	.byte	0x4
	.uleb128 0x15
	.4byte	.LASF95
	.byte	0x6
	.2byte	0x127
	.byte	0xb
	.4byte	0x741
	.byte	0x8
	.byte	0
	.uleb128 0x10
	.byte	0x4
	.4byte	0x702
	.uleb128 0x10
	.byte	0x4
	.4byte	0x6f5
	.uleb128 0x14
	.4byte	.LASF96
	.byte	0x18
	.byte	0x6
	.2byte	0x13f
	.byte	0x8
	.4byte	0x78e
	.uleb128 0x15
	.4byte	.LASF97
	.byte	0x6
	.2byte	0x140
	.byte	0x12
	.4byte	0x78e
	.byte	0
	.uleb128 0x15
	.4byte	.LASF98
	.byte	0x6
	.2byte	0x141
	.byte	0x12
	.4byte	0x78e
	.byte	0x6
	.uleb128 0x15
	.4byte	.LASF99
	.byte	0x6
	.2byte	0x142
	.byte	0x12
	.4byte	0x3f
	.byte	0xc
	.uleb128 0x15
	.4byte	.LASF100
	.byte	0x6
	.2byte	0x145
	.byte	0x24
	.4byte	0x67
	.byte	0x10
	.byte	0
	.uleb128 0xa
	.4byte	0x3f
	.4byte	0x79e
	.uleb128 0xb
	.4byte	0x59
	.byte	0x2
	.byte	0
	.uleb128 0x14
	.4byte	.LASF101
	.byte	0x10
	.byte	0x6
	.2byte	0x158
	.byte	0x8
	.4byte	0x7e5
	.uleb128 0x15
	.4byte	.LASF102
	.byte	0x6
	.2byte	0x15b
	.byte	0x13
	.4byte	0x196
	.byte	0
	.uleb128 0x15
	.4byte	.LASF103
	.byte	0x6
	.2byte	0x15c
	.byte	0x7
	.4byte	0x46
	.byte	0x4
	.uleb128 0x15
	.4byte	.LASF104
	.byte	0x6
	.2byte	0x15d
	.byte	0x13
	.4byte	0x196
	.byte	0x8
	.uleb128 0x15
	.4byte	.LASF105
	.byte	0x6
	.2byte	0x15e
	.byte	0x14
	.4byte	0x7e5
	.byte	0xc
	.byte	0
	.uleb128 0x10
	.byte	0x4
	.4byte	0x196
	.uleb128 0x14
	.4byte	.LASF106
	.byte	0x50
	.byte	0x6
	.2byte	0x162
	.byte	0x8
	.4byte	0x894
	.uleb128 0x15
	.4byte	.LASF107
	.byte	0x6
	.2byte	0x165
	.byte	0x9
	.4byte	0x655
	.byte	0
	.uleb128 0x15
	.4byte	.LASF108
	.byte	0x6
	.2byte	0x166
	.byte	0xe
	.4byte	0x111
	.byte	0x4
	.uleb128 0x15
	.4byte	.LASF109
	.byte	0x6
	.2byte	0x167
	.byte	0xe
	.4byte	0x111
	.byte	0xc
	.uleb128 0x15
	.4byte	.LASF110
	.byte	0x6
	.2byte	0x168
	.byte	0xe
	.4byte	0x111
	.byte	0x14
	.uleb128 0x15
	.4byte	.LASF111
	.byte	0x6
	.2byte	0x169
	.byte	0x8
	.4byte	0x894
	.byte	0x1c
	.uleb128 0x15
	.4byte	.LASF112
	.byte	0x6
	.2byte	0x16a
	.byte	0x7
	.4byte	0x46
	.byte	0x24
	.uleb128 0x15
	.4byte	.LASF113
	.byte	0x6
	.2byte	0x16b
	.byte	0xe
	.4byte	0x111
	.byte	0x28
	.uleb128 0x15
	.4byte	.LASF114
	.byte	0x6
	.2byte	0x16c
	.byte	0xe
	.4byte	0x111
	.byte	0x30
	.uleb128 0x15
	.4byte	.LASF115
	.byte	0x6
	.2byte	0x16d
	.byte	0xe
	.4byte	0x111
	.byte	0x38
	.uleb128 0x15
	.4byte	.LASF116
	.byte	0x6
	.2byte	0x16e
	.byte	0xe
	.4byte	0x111
	.byte	0x40
	.uleb128 0x15
	.4byte	.LASF117
	.byte	0x6
	.2byte	0x16f
	.byte	0xe
	.4byte	0x111
	.byte	0x48
	.byte	0
	.uleb128 0xa
	.4byte	0x65b
	.4byte	0x8a4
	.uleb128 0xb
	.4byte	0x59
	.byte	0x7
	.byte	0
	.uleb128 0x19
	.4byte	.LASF159
	.uleb128 0x10
	.byte	0x4
	.4byte	0x8a4
	.uleb128 0x10
	.byte	0x4
	.4byte	0x79e
	.uleb128 0x1a
	.4byte	0x8c0
	.uleb128 0x18
	.4byte	0x4ee
	.byte	0
	.uleb128 0x10
	.byte	0x4
	.4byte	0x8b5
	.uleb128 0x10
	.byte	0x4
	.4byte	0x747
	.uleb128 0x10
	.byte	0x4
	.4byte	0x1ac
	.uleb128 0x1a
	.4byte	0x8dd
	.uleb128 0x18
	.4byte	0x46
	.byte	0
	.uleb128 0x10
	.byte	0x4
	.4byte	0x8e3
	.uleb128 0x10
	.byte	0x4
	.4byte	0x8d2
	.uleb128 0x10
	.byte	0x4
	.4byte	0x7eb
	.uleb128 0x1b
	.4byte	.LASF118
	.byte	0x6
	.2byte	0x1a5
	.byte	0x22
	.4byte	0x38a
	.uleb128 0x1b
	.4byte	.LASF119
	.byte	0x6
	.2byte	0x1a6
	.byte	0x22
	.4byte	0x38a
	.uleb128 0x1b
	.4byte	.LASF120
	.byte	0x6
	.2byte	0x1a7
	.byte	0x22
	.4byte	0x38a
	.uleb128 0x1b
	.4byte	.LASF121
	.byte	0x6
	.2byte	0x30a
	.byte	0x18
	.4byte	0x4ee
	.uleb128 0x5
	.4byte	.LASF122
	.byte	0x7
	.byte	0x30
	.byte	0x14
	.4byte	0x4d
	.uleb128 0x3
	.4byte	0x923
	.uleb128 0x1c
	.4byte	.LASF123
	.byte	0x8
	.byte	0x67
	.byte	0xe
	.4byte	0x655
	.uleb128 0xc
	.byte	0x30
	.byte	0x9
	.byte	0x18
	.byte	0x9
	.4byte	0x955
	.uleb128 0xf
	.string	"A"
	.byte	0x9
	.byte	0x19
	.byte	0xe
	.4byte	0x955
	.byte	0
	.byte	0
	.uleb128 0xa
	.4byte	0x923
	.4byte	0x965
	.uleb128 0xb
	.4byte	0x59
	.byte	0xb
	.byte	0
	.uleb128 0x5
	.4byte	.LASF124
	.byte	0x9
	.byte	0x1a
	.byte	0x3
	.4byte	0x940
	.uleb128 0x3
	.4byte	0x965
	.uleb128 0xa
	.4byte	0x92f
	.4byte	0x986
	.uleb128 0xb
	.4byte	0x59
	.byte	0xb
	.byte	0
	.uleb128 0x3
	.4byte	0x976
	.uleb128 0x1d
	.string	"RC"
	.byte	0x1
	.2byte	0x151
	.byte	0x1a
	.4byte	0x986
	.uleb128 0x5
	.byte	0x3
	.4byte	RC
	.uleb128 0x1e
	.4byte	.LASF125
	.byte	0x1
	.2byte	0x17d
	.byte	0x6
	.4byte	.LFB11
	.4byte	.LFE11-.LFB11
	.uleb128 0x1
	.byte	0x9c
	.4byte	0xaee
	.uleb128 0x1f
	.4byte	.LASF127
	.byte	0x1
	.2byte	0x17d
	.byte	0x3a
	.4byte	0xaee
	.4byte	.LLST74
	.4byte	.LVUS74
	.uleb128 0x20
	.string	"a00"
	.byte	0x1
	.2byte	0x17f
	.byte	0x5
	.4byte	0x923
	.4byte	.LLST75
	.4byte	.LVUS75
	.uleb128 0x20
	.string	"a01"
	.byte	0x1
	.2byte	0x17f
	.byte	0x5
	.4byte	0x923
	.4byte	.LLST76
	.4byte	.LVUS76
	.uleb128 0x20
	.string	"a02"
	.byte	0x1
	.2byte	0x17f
	.byte	0x5
	.4byte	0x923
	.4byte	.LLST77
	.4byte	.LVUS77
	.uleb128 0x20
	.string	"a03"
	.byte	0x1
	.2byte	0x17f
	.byte	0x5
	.4byte	0x923
	.4byte	.LLST78
	.4byte	.LVUS78
	.uleb128 0x20
	.string	"a10"
	.byte	0x1
	.2byte	0x17f
	.byte	0x5
	.4byte	0x923
	.4byte	.LLST79
	.4byte	.LVUS79
	.uleb128 0x20
	.string	"a11"
	.byte	0x1
	.2byte	0x17f
	.byte	0x5
	.4byte	0x923
	.4byte	.LLST80
	.4byte	.LVUS80
	.uleb128 0x20
	.string	"a12"
	.byte	0x1
	.2byte	0x17f
	.byte	0x5
	.4byte	0x923
	.4byte	.LLST81
	.4byte	.LVUS81
	.uleb128 0x20
	.string	"a13"
	.byte	0x1
	.2byte	0x17f
	.byte	0x5
	.4byte	0x923
	.4byte	.LLST82
	.4byte	.LVUS82
	.uleb128 0x20
	.string	"a20"
	.byte	0x1
	.2byte	0x17f
	.byte	0x5
	.4byte	0x923
	.4byte	.LLST83
	.4byte	.LVUS83
	.uleb128 0x20
	.string	"a21"
	.byte	0x1
	.2byte	0x17f
	.byte	0x5
	.4byte	0x923
	.4byte	.LLST84
	.4byte	.LVUS84
	.uleb128 0x20
	.string	"a22"
	.byte	0x1
	.2byte	0x17f
	.byte	0x5
	.4byte	0x923
	.4byte	.LLST85
	.4byte	.LVUS85
	.uleb128 0x20
	.string	"a23"
	.byte	0x1
	.2byte	0x17f
	.byte	0x5
	.4byte	0x923
	.4byte	.LLST86
	.4byte	.LVUS86
	.uleb128 0x20
	.string	"v1"
	.byte	0x1
	.2byte	0x17f
	.byte	0x5
	.4byte	0x923
	.4byte	.LLST87
	.4byte	.LVUS87
	.uleb128 0x20
	.string	"v2"
	.byte	0x1
	.2byte	0x17f
	.byte	0x5
	.4byte	0x923
	.4byte	.LLST88
	.4byte	.LVUS88
	.byte	0
	.uleb128 0x10
	.byte	0x4
	.4byte	0x965
	.uleb128 0x1e
	.4byte	.LASF126
	.byte	0x1
	.2byte	0x16e
	.byte	0x6
	.4byte	.LFB10
	.4byte	.LFE10-.LFB10
	.uleb128 0x1
	.byte	0x9c
	.4byte	0xc45
	.uleb128 0x1f
	.4byte	.LASF127
	.byte	0x1
	.2byte	0x16e
	.byte	0x39
	.4byte	0xaee
	.4byte	.LLST59
	.4byte	.LVUS59
	.uleb128 0x20
	.string	"a00"
	.byte	0x1
	.2byte	0x170
	.byte	0x5
	.4byte	0x923
	.4byte	.LLST60
	.4byte	.LVUS60
	.uleb128 0x20
	.string	"a01"
	.byte	0x1
	.2byte	0x170
	.byte	0x5
	.4byte	0x923
	.4byte	.LLST61
	.4byte	.LVUS61
	.uleb128 0x20
	.string	"a02"
	.byte	0x1
	.2byte	0x170
	.byte	0x5
	.4byte	0x923
	.4byte	.LLST62
	.4byte	.LVUS62
	.uleb128 0x20
	.string	"a03"
	.byte	0x1
	.2byte	0x170
	.byte	0x5
	.4byte	0x923
	.4byte	.LLST63
	.4byte	.LVUS63
	.uleb128 0x20
	.string	"a10"
	.byte	0x1
	.2byte	0x170
	.byte	0x5
	.4byte	0x923
	.4byte	.LLST64
	.4byte	.LVUS64
	.uleb128 0x20
	.string	"a11"
	.byte	0x1
	.2byte	0x170
	.byte	0x5
	.4byte	0x923
	.4byte	.LLST65
	.4byte	.LVUS65
	.uleb128 0x20
	.string	"a12"
	.byte	0x1
	.2byte	0x170
	.byte	0x5
	.4byte	0x923
	.4byte	.LLST66
	.4byte	.LVUS66
	.uleb128 0x20
	.string	"a13"
	.byte	0x1
	.2byte	0x170
	.byte	0x5
	.4byte	0x923
	.4byte	.LLST67
	.4byte	.LVUS67
	.uleb128 0x20
	.string	"a20"
	.byte	0x1
	.2byte	0x170
	.byte	0x5
	.4byte	0x923
	.4byte	.LLST68
	.4byte	.LVUS68
	.uleb128 0x20
	.string	"a21"
	.byte	0x1
	.2byte	0x170
	.byte	0x5
	.4byte	0x923
	.4byte	.LLST69
	.4byte	.LVUS69
	.uleb128 0x20
	.string	"a22"
	.byte	0x1
	.2byte	0x170
	.byte	0x5
	.4byte	0x923
	.4byte	.LLST70
	.4byte	.LVUS70
	.uleb128 0x20
	.string	"a23"
	.byte	0x1
	.2byte	0x170
	.byte	0x5
	.4byte	0x923
	.4byte	.LLST71
	.4byte	.LVUS71
	.uleb128 0x20
	.string	"v1"
	.byte	0x1
	.2byte	0x170
	.byte	0x5
	.4byte	0x923
	.4byte	.LLST72
	.4byte	.LVUS72
	.uleb128 0x20
	.string	"v2"
	.byte	0x1
	.2byte	0x170
	.byte	0x5
	.4byte	0x923
	.4byte	.LLST73
	.4byte	.LVUS73
	.byte	0
	.uleb128 0x1e
	.4byte	.LASF128
	.byte	0x1
	.2byte	0x160
	.byte	0x6
	.4byte	.LFB9
	.4byte	.LFE9-.LFB9
	.uleb128 0x1
	.byte	0x9c
	.4byte	0xdbd
	.uleb128 0x1f
	.4byte	.LASF127
	.byte	0x1
	.2byte	0x160
	.byte	0x39
	.4byte	0xaee
	.4byte	.LLST42
	.4byte	.LVUS42
	.uleb128 0x21
	.string	"nr"
	.byte	0x1
	.2byte	0x160
	.byte	0x4d
	.4byte	0x59
	.4byte	.LLST43
	.4byte	.LVUS43
	.uleb128 0x20
	.string	"a00"
	.byte	0x1
	.2byte	0x162
	.byte	0x5
	.4byte	0x923
	.4byte	.LLST44
	.4byte	.LVUS44
	.uleb128 0x20
	.string	"a01"
	.byte	0x1
	.2byte	0x162
	.byte	0x5
	.4byte	0x923
	.4byte	.LLST45
	.4byte	.LVUS45
	.uleb128 0x20
	.string	"a02"
	.byte	0x1
	.2byte	0x162
	.byte	0x5
	.4byte	0x923
	.4byte	.LLST46
	.4byte	.LVUS46
	.uleb128 0x20
	.string	"a03"
	.byte	0x1
	.2byte	0x162
	.byte	0x5
	.4byte	0x923
	.4byte	.LLST47
	.4byte	.LVUS47
	.uleb128 0x20
	.string	"a10"
	.byte	0x1
	.2byte	0x162
	.byte	0x5
	.4byte	0x923
	.4byte	.LLST48
	.4byte	.LVUS48
	.uleb128 0x20
	.string	"a11"
	.byte	0x1
	.2byte	0x162
	.byte	0x5
	.4byte	0x923
	.4byte	.LLST49
	.4byte	.LVUS49
	.uleb128 0x20
	.string	"a12"
	.byte	0x1
	.2byte	0x162
	.byte	0x5
	.4byte	0x923
	.4byte	.LLST50
	.4byte	.LVUS50
	.uleb128 0x20
	.string	"a13"
	.byte	0x1
	.2byte	0x162
	.byte	0x5
	.4byte	0x923
	.4byte	.LLST51
	.4byte	.LVUS51
	.uleb128 0x20
	.string	"a20"
	.byte	0x1
	.2byte	0x162
	.byte	0x5
	.4byte	0x923
	.4byte	.LLST52
	.4byte	.LVUS52
	.uleb128 0x20
	.string	"a21"
	.byte	0x1
	.2byte	0x162
	.byte	0x5
	.4byte	0x923
	.4byte	.LLST53
	.4byte	.LVUS53
	.uleb128 0x20
	.string	"a22"
	.byte	0x1
	.2byte	0x162
	.byte	0x5
	.4byte	0x923
	.4byte	.LLST54
	.4byte	.LVUS54
	.uleb128 0x20
	.string	"a23"
	.byte	0x1
	.2byte	0x162
	.byte	0x5
	.4byte	0x923
	.4byte	.LLST55
	.4byte	.LVUS55
	.uleb128 0x20
	.string	"v1"
	.byte	0x1
	.2byte	0x162
	.byte	0x5
	.4byte	0x923
	.4byte	.LLST56
	.4byte	.LVUS56
	.uleb128 0x20
	.string	"v2"
	.byte	0x1
	.2byte	0x162
	.byte	0x5
	.4byte	0x923
	.4byte	.LLST57
	.4byte	.LVUS57
	.uleb128 0x20
	.string	"i"
	.byte	0x1
	.2byte	0x163
	.byte	0x11
	.4byte	0x923
	.4byte	.LLST58
	.4byte	.LVUS58
	.byte	0
	.uleb128 0x22
	.4byte	.LASF129
	.byte	0x1
	.byte	0xa7
	.byte	0x6
	.4byte	.LFB8
	.4byte	.LFE8-.LFB8
	.uleb128 0x1
	.byte	0x9c
	.4byte	0xf56
	.uleb128 0x23
	.4byte	.LASF130
	.byte	0x1
	.byte	0xa7
	.byte	0x42
	.4byte	0xf56
	.4byte	.LLST25
	.4byte	.LVUS25
	.uleb128 0x23
	.4byte	.LASF131
	.byte	0x1
	.byte	0xa7
	.byte	0x61
	.4byte	0xf5c
	.4byte	.LLST26
	.4byte	.LVUS26
	.uleb128 0x23
	.4byte	.LASF132
	.byte	0x1
	.byte	0xa7
	.byte	0x77
	.4byte	0x311
	.4byte	.LLST27
	.4byte	.LVUS27
	.uleb128 0x23
	.4byte	.LASF133
	.byte	0x1
	.byte	0xa7
	.byte	0x8c
	.4byte	0x59
	.4byte	.LLST28
	.4byte	.LVUS28
	.uleb128 0x23
	.4byte	.LASF134
	.byte	0x1
	.byte	0xa7
	.byte	0xa1
	.4byte	0x59
	.4byte	.LLST29
	.4byte	.LVUS29
	.uleb128 0x24
	.4byte	.LBB7
	.4byte	.LBE7-.LBB7
	.4byte	0xe7f
	.uleb128 0x25
	.4byte	.LASF127
	.byte	0x1
	.byte	0xab
	.byte	0x19
	.4byte	0xf62
	.4byte	.LLST30
	.4byte	.LVUS30
	.uleb128 0x26
	.string	"ii"
	.byte	0x1
	.byte	0xac
	.byte	0x19
	.4byte	0xf62
	.4byte	.LLST31
	.4byte	.LVUS31
	.uleb128 0x26
	.string	"oo"
	.byte	0x1
	.byte	0xad
	.byte	0x13
	.4byte	0xf68
	.4byte	.LLST32
	.4byte	.LVUS32
	.byte	0
	.uleb128 0x27
	.4byte	.LBB8
	.4byte	.LBE8-.LBB8
	.uleb128 0x25
	.4byte	.LASF135
	.byte	0x1
	.byte	0xbd
	.byte	0x16
	.4byte	0x59
	.4byte	.LLST33
	.4byte	.LVUS33
	.uleb128 0x25
	.4byte	.LASF136
	.byte	0x1
	.byte	0xbe
	.byte	0x16
	.4byte	0x59
	.4byte	.LLST34
	.4byte	.LVUS34
	.uleb128 0x25
	.4byte	.LASF137
	.byte	0x1
	.byte	0xbf
	.byte	0x16
	.4byte	0x59
	.4byte	.LLST35
	.4byte	.LVUS35
	.uleb128 0x25
	.4byte	.LASF138
	.byte	0x1
	.byte	0xc0
	.byte	0x1e
	.4byte	0xf5c
	.4byte	.LLST36
	.4byte	.LVUS36
	.uleb128 0x25
	.4byte	.LASF139
	.byte	0x1
	.byte	0xc1
	.byte	0x18
	.4byte	0x311
	.4byte	.LLST37
	.4byte	.LVUS37
	.uleb128 0x25
	.4byte	.LASF127
	.byte	0x1
	.byte	0xc2
	.byte	0x19
	.4byte	0xf62
	.4byte	.LLST38
	.4byte	.LVUS38
	.uleb128 0x24
	.4byte	.LBB9
	.4byte	.LBE9-.LBB9
	.4byte	0xf36
	.uleb128 0x25
	.4byte	.LASF140
	.byte	0x1
	.byte	0xc6
	.byte	0x1a
	.4byte	0x59
	.4byte	.LLST39
	.4byte	.LVUS39
	.uleb128 0x25
	.4byte	.LASF141
	.byte	0x1
	.byte	0xc7
	.byte	0x17
	.4byte	0x923
	.4byte	.LLST40
	.4byte	.LVUS40
	.byte	0
	.uleb128 0x27
	.4byte	.LBB10
	.4byte	.LBE10-.LBB10
	.uleb128 0x25
	.4byte	.LASF141
	.byte	0x1
	.byte	0xda
	.byte	0x17
	.4byte	0x923
	.4byte	.LLST41
	.4byte	.LVUS41
	.byte	0
	.byte	0
	.byte	0
	.uleb128 0x10
	.byte	0x4
	.4byte	0x971
	.uleb128 0x10
	.byte	0x4
	.4byte	0x33
	.uleb128 0x10
	.byte	0x4
	.4byte	0x92f
	.uleb128 0x10
	.byte	0x4
	.4byte	0x923
	.uleb128 0x22
	.4byte	.LASF142
	.byte	0x1
	.byte	0x9c
	.byte	0x6
	.4byte	.LFB7
	.4byte	.LFE7-.LFB7
	.uleb128 0x1
	.byte	0x9c
	.4byte	0xff8
	.uleb128 0x23
	.4byte	.LASF127
	.byte	0x1
	.byte	0x9c
	.byte	0x3c
	.4byte	0xf56
	.4byte	.LLST21
	.4byte	.LVUS21
	.uleb128 0x23
	.4byte	.LASF143
	.byte	0x1
	.byte	0x9c
	.byte	0x52
	.4byte	0x311
	.4byte	.LLST22
	.4byte	.LVUS22
	.uleb128 0x23
	.4byte	.LASF133
	.byte	0x1
	.byte	0x9c
	.byte	0x65
	.4byte	0x59
	.4byte	.LLST23
	.4byte	.LVUS23
	.uleb128 0x23
	.4byte	.LASF134
	.byte	0x1
	.byte	0x9c
	.byte	0x7a
	.4byte	0x59
	.4byte	.LLST24
	.4byte	.LVUS24
	.uleb128 0x28
	.4byte	.LVL44
	.4byte	0x12de
	.uleb128 0x29
	.uleb128 0x1
	.byte	0x52
	.uleb128 0x3
	.byte	0xf3
	.uleb128 0x1
	.byte	0x53
	.uleb128 0x29
	.uleb128 0x1
	.byte	0x53
	.uleb128 0x7
	.byte	0xf3
	.uleb128 0x1
	.byte	0x52
	.byte	0xf3
	.uleb128 0x1
	.byte	0x54
	.byte	0x22
	.uleb128 0x29
	.uleb128 0x1
	.byte	0x54
	.uleb128 0x3
	.byte	0xf3
	.uleb128 0x1
	.byte	0x55
	.byte	0
	.byte	0
	.uleb128 0x22
	.4byte	.LASF144
	.byte	0x1
	.byte	0x91
	.byte	0x6
	.4byte	.LFB6
	.4byte	.LFE6-.LFB6
	.uleb128 0x1
	.byte	0x9c
	.4byte	0x1054
	.uleb128 0x23
	.4byte	.LASF145
	.byte	0x1
	.byte	0x91
	.byte	0x3d
	.4byte	0xaee
	.4byte	.LLST19
	.4byte	.LVUS19
	.uleb128 0x23
	.4byte	.LASF146
	.byte	0x1
	.byte	0x91
	.byte	0x54
	.4byte	0x59
	.4byte	.LLST20
	.4byte	.LVUS20
	.uleb128 0x28
	.4byte	.LVL39
	.4byte	0x12e9
	.uleb128 0x29
	.uleb128 0x1
	.byte	0x52
	.uleb128 0x3
	.byte	0xf3
	.uleb128 0x1
	.byte	0x52
	.uleb128 0x29
	.uleb128 0x1
	.byte	0x53
	.uleb128 0x1
	.byte	0x30
	.uleb128 0x29
	.uleb128 0x1
	.byte	0x54
	.uleb128 0x3
	.byte	0xf3
	.uleb128 0x1
	.byte	0x53
	.byte	0
	.byte	0
	.uleb128 0x22
	.4byte	.LASF147
	.byte	0x1
	.byte	0x75
	.byte	0x6
	.4byte	.LFB5
	.4byte	.LFE5-.LFB5
	.uleb128 0x1
	.byte	0x9c
	.4byte	0x110d
	.uleb128 0x23
	.4byte	.LASF145
	.byte	0x1
	.byte	0x75
	.byte	0x38
	.4byte	0xaee
	.4byte	.LLST13
	.4byte	.LVUS13
	.uleb128 0x23
	.4byte	.LASF148
	.byte	0x1
	.byte	0x75
	.byte	0x57
	.4byte	0xf5c
	.4byte	.LLST14
	.4byte	.LVUS14
	.uleb128 0x23
	.4byte	.LASF133
	.byte	0x1
	.byte	0x75
	.byte	0x6d
	.4byte	0x59
	.4byte	.LLST15
	.4byte	.LVUS15
	.uleb128 0x23
	.4byte	.LASF134
	.byte	0x1
	.byte	0x75
	.byte	0x82
	.4byte	0x59
	.4byte	.LLST16
	.4byte	.LVUS16
	.uleb128 0x24
	.4byte	.LBB6
	.4byte	.LBE6-.LBB6
	.4byte	0x10f0
	.uleb128 0x25
	.4byte	.LASF127
	.byte	0x1
	.byte	0x79
	.byte	0x13
	.4byte	0xf68
	.4byte	.LLST17
	.4byte	.LVUS17
	.uleb128 0x25
	.4byte	.LASF143
	.byte	0x1
	.byte	0x7a
	.byte	0x13
	.4byte	0xf68
	.4byte	.LLST18
	.4byte	.LVUS18
	.byte	0
	.uleb128 0x28
	.4byte	.LVL36
	.4byte	0x12de
	.uleb128 0x29
	.uleb128 0x1
	.byte	0x52
	.uleb128 0x7
	.byte	0xf3
	.uleb128 0x1
	.byte	0x52
	.byte	0xf3
	.uleb128 0x1
	.byte	0x54
	.byte	0x22
	.uleb128 0x29
	.uleb128 0x1
	.byte	0x54
	.uleb128 0x3
	.byte	0xf3
	.uleb128 0x1
	.byte	0x55
	.byte	0
	.byte	0
	.uleb128 0x22
	.4byte	.LASF149
	.byte	0x1
	.byte	0x3c
	.byte	0x6
	.4byte	.LFB4
	.4byte	.LFE4-.LFB4
	.uleb128 0x1
	.byte	0x9c
	.4byte	0x1297
	.uleb128 0x23
	.4byte	.LASF130
	.byte	0x1
	.byte	0x3c
	.byte	0x32
	.4byte	0xaee
	.4byte	.LLST1
	.4byte	.LVUS1
	.uleb128 0x23
	.4byte	.LASF148
	.byte	0x1
	.byte	0x3c
	.byte	0x51
	.4byte	0xf5c
	.4byte	.LLST2
	.4byte	.LVUS2
	.uleb128 0x23
	.4byte	.LASF133
	.byte	0x1
	.byte	0x3c
	.byte	0x67
	.4byte	0x59
	.4byte	.LLST3
	.4byte	.LVUS3
	.uleb128 0x23
	.4byte	.LASF134
	.byte	0x1
	.byte	0x3c
	.byte	0x7c
	.4byte	0x59
	.4byte	.LLST4
	.4byte	.LVUS4
	.uleb128 0x24
	.4byte	.LBB2
	.4byte	.LBE2-.LBB2
	.4byte	0x11a9
	.uleb128 0x25
	.4byte	.LASF127
	.byte	0x1
	.byte	0x40
	.byte	0x13
	.4byte	0xf68
	.4byte	.LLST5
	.4byte	.LVUS5
	.uleb128 0x25
	.4byte	.LASF143
	.byte	0x1
	.byte	0x41
	.byte	0x13
	.4byte	0xf68
	.4byte	.LLST6
	.4byte	.LVUS6
	.byte	0
	.uleb128 0x27
	.4byte	.LBB3
	.4byte	.LBE3-.LBB3
	.uleb128 0x25
	.4byte	.LASF135
	.byte	0x1
	.byte	0x50
	.byte	0x16
	.4byte	0x59
	.4byte	.LLST7
	.4byte	.LVUS7
	.uleb128 0x25
	.4byte	.LASF136
	.byte	0x1
	.byte	0x51
	.byte	0x16
	.4byte	0x59
	.4byte	.LLST8
	.4byte	.LVUS8
	.uleb128 0x25
	.4byte	.LASF137
	.byte	0x1
	.byte	0x52
	.byte	0x16
	.4byte	0x59
	.4byte	.LLST9
	.4byte	.LVUS9
	.uleb128 0x25
	.4byte	.LASF150
	.byte	0x1
	.byte	0x53
	.byte	0x1e
	.4byte	0xf5c
	.4byte	.LLST10
	.4byte	.LVUS10
	.uleb128 0x25
	.4byte	.LASF127
	.byte	0x1
	.byte	0x54
	.byte	0x13
	.4byte	0xf68
	.4byte	.LLST11
	.4byte	.LVUS11
	.uleb128 0x24
	.4byte	.LBB4
	.4byte	.LBE4-.LBB4
	.4byte	0x126c
	.uleb128 0x25
	.4byte	.LASF140
	.byte	0x1
	.byte	0x58
	.byte	0x1a
	.4byte	0x59
	.4byte	.LLST12
	.4byte	.LVUS12
	.uleb128 0x2a
	.4byte	.LASF141
	.byte	0x1
	.byte	0x59
	.byte	0x16
	.4byte	0x923
	.uleb128 0x2
	.byte	0x91
	.sleb128 -48
	.uleb128 0x28
	.4byte	.LVL15
	.4byte	0x12de
	.uleb128 0x29
	.uleb128 0x1
	.byte	0x52
	.uleb128 0xb
	.byte	0xf3
	.uleb128 0x1
	.byte	0x54
	.byte	0x33
	.byte	0x1a
	.byte	0x91
	.sleb128 0
	.byte	0x22
	.byte	0x8
	.byte	0x30
	.byte	0x1c
	.uleb128 0x29
	.uleb128 0x1
	.byte	0x53
	.uleb128 0x2
	.byte	0x7c
	.sleb128 0
	.uleb128 0x29
	.uleb128 0x1
	.byte	0x54
	.uleb128 0x2
	.byte	0x7e
	.sleb128 0
	.byte	0
	.byte	0
	.uleb128 0x27
	.4byte	.LBB5
	.4byte	.LBE5-.LBB5
	.uleb128 0x2a
	.4byte	.LASF141
	.byte	0x1
	.byte	0x69
	.byte	0x16
	.4byte	0x923
	.uleb128 0x2
	.byte	0x91
	.sleb128 -48
	.uleb128 0x28
	.4byte	.LVL27
	.4byte	0x12de
	.uleb128 0x29
	.uleb128 0x1
	.byte	0x52
	.uleb128 0x2
	.byte	0x71
	.sleb128 0
	.byte	0
	.byte	0
	.byte	0
	.byte	0
	.uleb128 0x22
	.4byte	.LASF151
	.byte	0x1
	.byte	0x35
	.byte	0x6
	.4byte	.LFB3
	.4byte	.LFE3-.LFB3
	.uleb128 0x1
	.byte	0x9c
	.4byte	0x12de
	.uleb128 0x23
	.4byte	.LASF127
	.byte	0x1
	.byte	0x35
	.byte	0x34
	.4byte	0xaee
	.4byte	.LLST0
	.4byte	.LVUS0
	.uleb128 0x28
	.4byte	.LVL1
	.4byte	0x12e9
	.uleb128 0x29
	.uleb128 0x1
	.byte	0x52
	.uleb128 0x3
	.byte	0xf3
	.uleb128 0x1
	.byte	0x52
	.uleb128 0x29
	.uleb128 0x1
	.byte	0x53
	.uleb128 0x1
	.byte	0x30
	.uleb128 0x29
	.uleb128 0x1
	.byte	0x54
	.uleb128 0x2
	.byte	0x8
	.byte	0x30
	.byte	0
	.byte	0
	.uleb128 0x2b
	.4byte	.LASF152
	.4byte	.LASF154
	.byte	0xa
	.byte	0
	.uleb128 0x2b
	.4byte	.LASF153
	.4byte	.LASF155
	.byte	0xa
	.byte	0
	.byte	0
	.section	.debug_abbrev,"",@progbits
.Ldebug_abbrev0:
	.uleb128 0x1
	.uleb128 0x11
	.byte	0x1
	.uleb128 0x25
	.uleb128 0xe
	.uleb128 0x13
	.uleb128 0xb
	.uleb128 0x3
	.uleb128 0xe
	.uleb128 0x1b
	.uleb128 0xe
	.uleb128 0x11
	.uleb128 0x1
	.uleb128 0x12
	.uleb128 0x6
	.uleb128 0x10
	.uleb128 0x17
	.byte	0
	.byte	0
	.uleb128 0x2
	.uleb128 0x24
	.byte	0
	.uleb128 0xb
	.uleb128 0xb
	.uleb128 0x3e
	.uleb128 0xb
	.uleb128 0x3
	.uleb128 0xe
	.byte	0
	.byte	0
	.uleb128 0x3
	.uleb128 0x26
	.byte	0
	.uleb128 0x49
	.uleb128 0x13
	.byte	0
	.byte	0
	.uleb128 0x4
	.uleb128 0x24
	.byte	0
	.uleb128 0xb
	.uleb128 0xb
	.uleb128 0x3e
	.uleb128 0xb
	.uleb128 0x3
	.uleb128 0x8
	.byte	0
	.byte	0
	.uleb128 0x5
	.uleb128 0x16
	.byte	0
	.uleb128 0x3
	.uleb128 0xe
	.uleb128 0x3a
	.uleb128 0xb
	.uleb128 0x3b
	.uleb128 0xb
	.uleb128 0x39
	.uleb128 0xb
	.uleb128 0x49
	.uleb128 0x13
	.byte	0
	.byte	0
	.uleb128 0x6
	.uleb128 0xf
	.byte	0
	.uleb128 0xb
	.uleb128 0xb
	.byte	0
	.byte	0
	.uleb128 0x7
	.uleb128 0x16
	.byte	0
	.uleb128 0x3
	.uleb128 0xe
	.uleb128 0x3a
	.uleb128 0xb
	.uleb128 0x3b
	.uleb128 0x5
	.uleb128 0x39
	.uleb128 0xb
	.uleb128 0x49
	.uleb128 0x13
	.byte	0
	.byte	0
	.uleb128 0x8
	.uleb128 0x17
	.byte	0x1
	.uleb128 0xb
	.uleb128 0xb
	.uleb128 0x3a
	.uleb128 0xb
	.uleb128 0x3b
	.uleb128 0xb
	.uleb128 0x39
	.uleb128 0xb
	.uleb128 0x1
	.uleb128 0x13
	.byte	0
	.byte	0
	.uleb128 0x9
	.uleb128 0xd
	.byte	0
	.uleb128 0x3
	.uleb128 0xe
	.uleb128 0x3a
	.uleb128 0xb
	.uleb128 0x3b
	.uleb128 0xb
	.uleb128 0x39
	.uleb128 0xb
	.uleb128 0x49
	.uleb128 0x13
	.byte	0
	.byte	0
	.uleb128 0xa
	.uleb128 0x1
	.byte	0x1
	.uleb128 0x49
	.uleb128 0x13
	.uleb128 0x1
	.uleb128 0x13
	.byte	0
	.byte	0
	.uleb128 0xb
	.uleb128 0x21
	.byte	0
	.uleb128 0x49
	.uleb128 0x13
	.uleb128 0x2f
	.uleb128 0xb
	.byte	0
	.byte	0
	.uleb128 0xc
	.uleb128 0x13
	.byte	0x1
	.uleb128 0xb
	.uleb128 0xb
	.uleb128 0x3a
	.uleb128 0xb
	.uleb128 0x3b
	.uleb128 0xb
	.uleb128 0x39
	.uleb128 0xb
	.uleb128 0x1
	.uleb128 0x13
	.byte	0
	.byte	0
	.uleb128 0xd
	.uleb128 0xd
	.byte	0
	.uleb128 0x3
	.uleb128 0xe
	.uleb128 0x3a
	.uleb128 0xb
	.uleb128 0x3b
	.uleb128 0xb
	.uleb128 0x39
	.uleb128 0xb
	.uleb128 0x49
	.uleb128 0x13
	.uleb128 0x38
	.uleb128 0xb
	.byte	0
	.byte	0
	.uleb128 0xe
	.uleb128 0x13
	.byte	0x1
	.uleb128 0x3
	.uleb128 0xe
	.uleb128 0xb
	.uleb128 0xb
	.uleb128 0x3a
	.uleb128 0xb
	.uleb128 0x3b
	.uleb128 0xb
	.uleb128 0x39
	.uleb128 0xb
	.uleb128 0x1
	.uleb128 0x13
	.byte	0
	.byte	0
	.uleb128 0xf
	.uleb128 0xd
	.byte	0
	.uleb128 0x3
	.uleb128 0x8
	.uleb128 0x3a
	.uleb128 0xb
	.uleb128 0x3b
	.uleb128 0xb
	.uleb128 0x39
	.uleb128 0xb
	.uleb128 0x49
	.uleb128 0x13
	.uleb128 0x38
	.uleb128 0xb
	.byte	0
	.byte	0
	.uleb128 0x10
	.uleb128 0xf
	.byte	0
	.uleb128 0xb
	.uleb128 0xb
	.uleb128 0x49
	.uleb128 0x13
	.byte	0
	.byte	0
	.uleb128 0x11
	.uleb128 0x13
	.byte	0x1
	.uleb128 0x3
	.uleb128 0xe
	.uleb128 0xb
	.uleb128 0x5
	.uleb128 0x3a
	.uleb128 0xb
	.uleb128 0x3b
	.uleb128 0xb
	.uleb128 0x39
	.uleb128 0xb
	.uleb128 0x1
	.uleb128 0x13
	.byte	0
	.byte	0
	.uleb128 0x12
	.uleb128 0xd
	.byte	0
	.uleb128 0x3
	.uleb128 0xe
	.uleb128 0x3a
	.uleb128 0xb
	.uleb128 0x3b
	.uleb128 0xb
	.uleb128 0x39
	.uleb128 0xb
	.uleb128 0x49
	.uleb128 0x13
	.uleb128 0x38
	.uleb128 0x5
	.byte	0
	.byte	0
	.uleb128 0x13
	.uleb128 0x15
	.byte	0
	.uleb128 0x27
	.uleb128 0x19
	.byte	0
	.byte	0
	.uleb128 0x14
	.uleb128 0x13
	.byte	0x1
	.uleb128 0x3
	.uleb128 0xe
	.uleb128 0xb
	.uleb128 0xb
	.uleb128 0x3a
	.uleb128 0xb
	.uleb128 0x3b
	.uleb128 0x5
	.uleb128 0x39
	.uleb128 0xb
	.uleb128 0x1
	.uleb128 0x13
	.byte	0
	.byte	0
	.uleb128 0x15
	.uleb128 0xd
	.byte	0
	.uleb128 0x3
	.uleb128 0xe
	.uleb128 0x3a
	.uleb128 0xb
	.uleb128 0x3b
	.uleb128 0x5
	.uleb128 0x39
	.uleb128 0xb
	.uleb128 0x49
	.uleb128 0x13
	.uleb128 0x38
	.uleb128 0xb
	.byte	0
	.byte	0
	.uleb128 0x16
	.uleb128 0xd
	.byte	0
	.uleb128 0x3
	.uleb128 0x8
	.uleb128 0x3a
	.uleb128 0xb
	.uleb128 0x3b
	.uleb128 0x5
	.uleb128 0x39
	.uleb128 0xb
	.uleb128 0x49
	.uleb128 0x13
	.uleb128 0x38
	.uleb128 0xb
	.byte	0
	.byte	0
	.uleb128 0x17
	.uleb128 0x15
	.byte	0x1
	.uleb128 0x27
	.uleb128 0x19
	.uleb128 0x49
	.uleb128 0x13
	.uleb128 0x1
	.uleb128 0x13
	.byte	0
	.byte	0
	.uleb128 0x18
	.uleb128 0x5
	.byte	0
	.uleb128 0x49
	.uleb128 0x13
	.byte	0
	.byte	0
	.uleb128 0x19
	.uleb128 0x13
	.byte	0
	.uleb128 0x3
	.uleb128 0xe
	.uleb128 0x3c
	.uleb128 0x19
	.byte	0
	.byte	0
	.uleb128 0x1a
	.uleb128 0x15
	.byte	0x1
	.uleb128 0x27
	.uleb128 0x19
	.uleb128 0x1
	.uleb128 0x13
	.byte	0
	.byte	0
	.uleb128 0x1b
	.uleb128 0x34
	.byte	0
	.uleb128 0x3
	.uleb128 0xe
	.uleb128 0x3a
	.uleb128 0xb
	.uleb128 0x3b
	.uleb128 0x5
	.uleb128 0x39
	.uleb128 0xb
	.uleb128 0x49
	.uleb128 0x13
	.uleb128 0x3f
	.uleb128 0x19
	.uleb128 0x3c
	.uleb128 0x19
	.byte	0
	.byte	0
	.uleb128 0x1c
	.uleb128 0x34
	.byte	0
	.uleb128 0x3
	.uleb128 0xe
	.uleb128 0x3a
	.uleb128 0xb
	.uleb128 0x3b
	.uleb128 0xb
	.uleb128 0x39
	.uleb128 0xb
	.uleb128 0x49
	.uleb128 0x13
	.uleb128 0x3f
	.uleb128 0x19
	.uleb128 0x3c
	.uleb128 0x19
	.byte	0
	.byte	0
	.uleb128 0x1d
	.uleb128 0x34
	.byte	0
	.uleb128 0x3
	.uleb128 0x8
	.uleb128 0x3a
	.uleb128 0xb
	.uleb128 0x3b
	.uleb128 0x5
	.uleb128 0x39
	.uleb128 0xb
	.uleb128 0x49
	.uleb128 0x13
	.uleb128 0x2
	.uleb128 0x18
	.byte	0
	.byte	0
	.uleb128 0x1e
	.uleb128 0x2e
	.byte	0x1
	.uleb128 0x3f
	.uleb128 0x19
	.uleb128 0x3
	.uleb128 0xe
	.uleb128 0x3a
	.uleb128 0xb
	.uleb128 0x3b
	.uleb128 0x5
	.uleb128 0x39
	.uleb128 0xb
	.uleb128 0x27
	.uleb128 0x19
	.uleb128 0x11
	.uleb128 0x1
	.uleb128 0x12
	.uleb128 0x6
	.uleb128 0x40
	.uleb128 0x18
	.uleb128 0x2117
	.uleb128 0x19
	.uleb128 0x1
	.uleb128 0x13
	.byte	0
	.byte	0
	.uleb128 0x1f
	.uleb128 0x5
	.byte	0
	.uleb128 0x3
	.uleb128 0xe
	.uleb128 0x3a
	.uleb128 0xb
	.uleb128 0x3b
	.uleb128 0x5
	.uleb128 0x39
	.uleb128 0xb
	.uleb128 0x49
	.uleb128 0x13
	.uleb128 0x2
	.uleb128 0x17
	.uleb128 0x2137
	.uleb128 0x17
	.byte	0
	.byte	0
	.uleb128 0x20
	.uleb128 0x34
	.byte	0
	.uleb128 0x3
	.uleb128 0x8
	.uleb128 0x3a
	.uleb128 0xb
	.uleb128 0x3b
	.uleb128 0x5
	.uleb128 0x39
	.uleb128 0xb
	.uleb128 0x49
	.uleb128 0x13
	.uleb128 0x2
	.uleb128 0x17
	.uleb128 0x2137
	.uleb128 0x17
	.byte	0
	.byte	0
	.uleb128 0x21
	.uleb128 0x5
	.byte	0
	.uleb128 0x3
	.uleb128 0x8
	.uleb128 0x3a
	.uleb128 0xb
	.uleb128 0x3b
	.uleb128 0x5
	.uleb128 0x39
	.uleb128 0xb
	.uleb128 0x49
	.uleb128 0x13
	.uleb128 0x2
	.uleb128 0x17
	.uleb128 0x2137
	.uleb128 0x17
	.byte	0
	.byte	0
	.uleb128 0x22
	.uleb128 0x2e
	.byte	0x1
	.uleb128 0x3f
	.uleb128 0x19
	.uleb128 0x3
	.uleb128 0xe
	.uleb128 0x3a
	.uleb128 0xb
	.uleb128 0x3b
	.uleb128 0xb
	.uleb128 0x39
	.uleb128 0xb
	.uleb128 0x27
	.uleb128 0x19
	.uleb128 0x11
	.uleb128 0x1
	.uleb128 0x12
	.uleb128 0x6
	.uleb128 0x40
	.uleb128 0x18
	.uleb128 0x2117
	.uleb128 0x19
	.uleb128 0x1
	.uleb128 0x13
	.byte	0
	.byte	0
	.uleb128 0x23
	.uleb128 0x5
	.byte	0
	.uleb128 0x3
	.uleb128 0xe
	.uleb128 0x3a
	.uleb128 0xb
	.uleb128 0x3b
	.uleb128 0xb
	.uleb128 0x39
	.uleb128 0xb
	.uleb128 0x49
	.uleb128 0x13
	.uleb128 0x2
	.uleb128 0x17
	.uleb128 0x2137
	.uleb128 0x17
	.byte	0
	.byte	0
	.uleb128 0x24
	.uleb128 0xb
	.byte	0x1
	.uleb128 0x11
	.uleb128 0x1
	.uleb128 0x12
	.uleb128 0x6
	.uleb128 0x1
	.uleb128 0x13
	.byte	0
	.byte	0
	.uleb128 0x25
	.uleb128 0x34
	.byte	0
	.uleb128 0x3
	.uleb128 0xe
	.uleb128 0x3a
	.uleb128 0xb
	.uleb128 0x3b
	.uleb128 0xb
	.uleb128 0x39
	.uleb128 0xb
	.uleb128 0x49
	.uleb128 0x13
	.uleb128 0x2
	.uleb128 0x17
	.uleb128 0x2137
	.uleb128 0x17
	.byte	0
	.byte	0
	.uleb128 0x26
	.uleb128 0x34
	.byte	0
	.uleb128 0x3
	.uleb128 0x8
	.uleb128 0x3a
	.uleb128 0xb
	.uleb128 0x3b
	.uleb128 0xb
	.uleb128 0x39
	.uleb128 0xb
	.uleb128 0x49
	.uleb128 0x13
	.uleb128 0x2
	.uleb128 0x17
	.uleb128 0x2137
	.uleb128 0x17
	.byte	0
	.byte	0
	.uleb128 0x27
	.uleb128 0xb
	.byte	0x1
	.uleb128 0x11
	.uleb128 0x1
	.uleb128 0x12
	.uleb128 0x6
	.byte	0
	.byte	0
	.uleb128 0x28
	.uleb128 0x4109
	.byte	0x1
	.uleb128 0x11
	.uleb128 0x1
	.uleb128 0x31
	.uleb128 0x13
	.byte	0
	.byte	0
	.uleb128 0x29
	.uleb128 0x410a
	.byte	0
	.uleb128 0x2
	.uleb128 0x18
	.uleb128 0x2111
	.uleb128 0x18
	.byte	0
	.byte	0
	.uleb128 0x2a
	.uleb128 0x34
	.byte	0
	.uleb128 0x3
	.uleb128 0xe
	.uleb128 0x3a
	.uleb128 0xb
	.uleb128 0x3b
	.uleb128 0xb
	.uleb128 0x39
	.uleb128 0xb
	.uleb128 0x49
	.uleb128 0x13
	.uleb128 0x2
	.uleb128 0x18
	.byte	0
	.byte	0
	.uleb128 0x2b
	.uleb128 0x2e
	.byte	0
	.uleb128 0x3f
	.uleb128 0x19
	.uleb128 0x3c
	.uleb128 0x19
	.uleb128 0x6e
	.uleb128 0xe
	.uleb128 0x3
	.uleb128 0xe
	.uleb128 0x3a
	.uleb128 0xb
	.uleb128 0x3b
	.uleb128 0xb
	.byte	0
	.byte	0
	.byte	0
	.section	.debug_loc,"",@progbits
.Ldebug_loc0:
.LVUS74:
	.uleb128 0
	.uleb128 .LVU1069
	.uleb128 .LVU1069
	.uleb128 .LVU1070
	.uleb128 .LVU1070
	.uleb128 .LVU1080
	.uleb128 .LVU1080
	.uleb128 .LVU1089
	.uleb128 .LVU1089
	.uleb128 .LVU2231
	.uleb128 .LVU2231
	.uleb128 0
.LLST74:
	.4byte	.LVL389-.Ltext0
	.4byte	.LVL390-.Ltext0
	.2byte	0x1
	.byte	0x52
	.4byte	.LVL390-.Ltext0
	.4byte	.LVL391-.Ltext0
	.2byte	0x1
	.byte	0x54
	.4byte	.LVL391-.Ltext0
	.4byte	.LVL397-.Ltext0
	.2byte	0x1
	.byte	0x55
	.4byte	.LVL397-.Ltext0
	.4byte	.LVL402-.Ltext0
	.2byte	0x1
	.byte	0x59
	.4byte	.LVL402-.Ltext0
	.4byte	.LVL833-.Ltext0
	.2byte	0x2
	.byte	0x91
	.sleb128 -52
	.4byte	.LVL833-.Ltext0
	.4byte	.LFE11-.Ltext0
	.2byte	0x1
	.byte	0x53
	.4byte	0
	.4byte	0
.LVUS75:
	.uleb128 .LVU1071
	.uleb128 .LVU1086
	.uleb128 .LVU1086
	.uleb128 .LVU1090
	.uleb128 .LVU1090
	.uleb128 .LVU1099
	.uleb128 .LVU1099
	.uleb128 .LVU1109
	.uleb128 .LVU1109
	.uleb128 .LVU1110
	.uleb128 .LVU1110
	.uleb128 .LVU1141
	.uleb128 .LVU1141
	.uleb128 .LVU1143
	.uleb128 .LVU1143
	.uleb128 .LVU1195
	.uleb128 .LVU1195
	.uleb128 .LVU1202
	.uleb128 .LVU1202
	.uleb128 .LVU1203
	.uleb128 .LVU1203
	.uleb128 .LVU1209
	.uleb128 .LVU1237
	.uleb128 .LVU1238
	.uleb128 .LVU1238
	.uleb128 .LVU1289
	.uleb128 .LVU1289
	.uleb128 .LVU1299
	.uleb128 .LVU1299
	.uleb128 .LVU1300
	.uleb128 .LVU1333
	.uleb128 .LVU1334
	.uleb128 .LVU1334
	.uleb128 .LVU1385
	.uleb128 .LVU1385
	.uleb128 .LVU1394
	.uleb128 .LVU1394
	.uleb128 .LVU1395
	.uleb128 .LVU1427
	.uleb128 .LVU1428
	.uleb128 .LVU1482
	.uleb128 .LVU1486
	.uleb128 .LVU1486
	.uleb128 .LVU1487
	.uleb128 .LVU1522
	.uleb128 .LVU1523
	.uleb128 .LVU1575
	.uleb128 .LVU1583
	.uleb128 .LVU1583
	.uleb128 .LVU1584
	.uleb128 .LVU1614
	.uleb128 .LVU1618
	.uleb128 .LVU1708
	.uleb128 .LVU1709
	.uleb128 .LVU1761
	.uleb128 .LVU1769
	.uleb128 .LVU1769
	.uleb128 .LVU1770
	.uleb128 .LVU1800
	.uleb128 .LVU1804
	.uleb128 .LVU1856
	.uleb128 .LVU1860
	.uleb128 .LVU1860
	.uleb128 .LVU1861
	.uleb128 .LVU1896
	.uleb128 .LVU1898
	.uleb128 .LVU1949
	.uleb128 .LVU1957
	.uleb128 .LVU1957
	.uleb128 .LVU1958
	.uleb128 .LVU1988
	.uleb128 .LVU1991
	.uleb128 .LVU2039
	.uleb128 .LVU2045
	.uleb128 .LVU2045
	.uleb128 .LVU2046
	.uleb128 .LVU2078
	.uleb128 .LVU2134
	.uleb128 .LVU2134
	.uleb128 .LVU2144
	.uleb128 .LVU2144
	.uleb128 .LVU2145
	.uleb128 .LVU2178
	.uleb128 .LVU2228
	.uleb128 .LVU2228
	.uleb128 .LVU2231
	.uleb128 .LVU2231
	.uleb128 0
.LLST75:
	.4byte	.LVL392-.Ltext0
	.4byte	.LVL400-.Ltext0
	.2byte	0x1
	.byte	0x56
	.4byte	.LVL400-.Ltext0
	.4byte	.LVL403-.Ltext0
	.2byte	0x1
	.byte	0x5e
	.4byte	.LVL403-.Ltext0
	.4byte	.LVL409-.Ltext0
	.2byte	0x3
	.byte	0x91
	.sleb128 -52
	.byte	0x6
	.4byte	.LVL409-.Ltext0
	.4byte	.LVL414-.Ltext0
	.2byte	0x8
	.byte	0x91
	.sleb128 -52
	.byte	0x6
	.byte	0x6
	.byte	0x73
	.sleb128 0
	.byte	0x27
	.byte	0x9f
	.4byte	.LVL414-.Ltext0
	.4byte	.LVL415-.Ltext0
	.2byte	0x1
	.byte	0x53
	.4byte	.LVL415-.Ltext0
	.4byte	.LVL425-.Ltext0
	.2byte	0x43
	.byte	0x91
	.sleb128 -52
	.byte	0x6
	.byte	0x23
	.uleb128 0xc
	.byte	0x6
	.byte	0x91
	.sleb128 -52
	.byte	0x6
	.byte	0x23
	.uleb128 0x1c
	.byte	0x6
	.byte	0x27
	.byte	0x91
	.sleb128 -52
	.byte	0x6
	.byte	0x23
	.uleb128 0x2c
	.byte	0x6
	.byte	0x27
	.byte	0x35
	.byte	0x14
	.byte	0x14
	.byte	0x24
	.byte	0x17
	.byte	0x1f
	.byte	0x23
	.uleb128 0x20
	.byte	0x25
	.byte	0x21
	.byte	0x91
	.sleb128 -52
	.byte	0x6
	.byte	0x23
	.uleb128 0xc
	.byte	0x6
	.byte	0x91
	.sleb128 -52
	.byte	0x6
	.byte	0x23
	.uleb128 0x1c
	.byte	0x6
	.byte	0x27
	.byte	0x91
	.sleb128 -52
	.byte	0x6
	.byte	0x23
	.uleb128 0x2c
	.byte	0x6
	.byte	0x27
	.byte	0x3e
	.byte	0x14
	.byte	0x14
	.byte	0x24
	.byte	0x17
	.byte	0x1f
	.byte	0x23
	.uleb128 0x20
	.byte	0x25
	.byte	0x21
	.byte	0x27
	.byte	0x91
	.sleb128 -52
	.byte	0x6
	.byte	0x6
	.byte	0x27
	.byte	0x9f
	.4byte	.LVL425-.Ltext0
	.4byte	.LVL425-.Ltext0
	.2byte	0x46
	.byte	0x91
	.sleb128 -52
	.byte	0x6
	.byte	0x23
	.uleb128 0xc
	.byte	0x6
	.byte	0x91
	.sleb128 -52
	.byte	0x6
	.byte	0x23
	.uleb128 0x1c
	.byte	0x6
	.byte	0x27
	.byte	0x91
	.sleb128 -52
	.byte	0x6
	.byte	0x23
	.uleb128 0x2c
	.byte	0x6
	.byte	0x27
	.byte	0x35
	.byte	0x14
	.byte	0x14
	.byte	0x24
	.byte	0x17
	.byte	0x1f
	.byte	0x23
	.uleb128 0x20
	.byte	0x25
	.byte	0x21
	.byte	0x91
	.sleb128 -52
	.byte	0x6
	.byte	0x23
	.uleb128 0xc
	.byte	0x6
	.byte	0x91
	.sleb128 -52
	.byte	0x6
	.byte	0x23
	.uleb128 0x1c
	.byte	0x6
	.byte	0x27
	.byte	0x91
	.sleb128 -52
	.byte	0x6
	.byte	0x23
	.uleb128 0x2c
	.byte	0x6
	.byte	0x27
	.byte	0x3e
	.byte	0x14
	.byte	0x14
	.byte	0x24
	.byte	0x17
	.byte	0x1f
	.byte	0x23
	.uleb128 0x20
	.byte	0x25
	.byte	0x21
	.byte	0x27
	.byte	0x91
	.sleb128 -52
	.byte	0x6
	.byte	0x6
	.byte	0x27
	.byte	0x8
	.byte	0x58
	.byte	0x27
	.byte	0x9f
	.4byte	.LVL425-.Ltext0
	.4byte	.LVL450-.Ltext0
	.2byte	0x2
	.byte	0x91
	.sleb128 -64
	.4byte	.LVL450-.Ltext0
	.4byte	.LVL454-.Ltext0
	.2byte	0x7
	.byte	0x91
	.sleb128 -64
	.byte	0x6
	.byte	0x7f
	.sleb128 0
	.byte	0x27
	.byte	0x9f
	.4byte	.LVL454-.Ltext0
	.4byte	.LVL455-.Ltext0
	.2byte	0x1
	.byte	0x5f
	.4byte	.LVL455-.Ltext0
	.4byte	.LVL461-.Ltext0
	.2byte	0x174
	.byte	0x91
	.sleb128 -52
	.byte	0x6
	.byte	0x23
	.uleb128 0x8
	.byte	0x6
	.byte	0x91
	.sleb128 -52
	.byte	0x6
	.byte	0x23
	.uleb128 0x18
	.byte	0x6
	.byte	0x27
	.byte	0x91
	.sleb128 -52
	.byte	0x6
	.byte	0x23
	.uleb128 0x28
	.byte	0x6
	.byte	0x27
	.byte	0x35
	.byte	0x14
	.byte	0x14
	.byte	0x24
	.byte	0x17
	.byte	0x1f
	.byte	0x23
	.uleb128 0x20
	.byte	0x25
	.byte	0x21
	.byte	0x91
	.sleb128 -52
	.byte	0x6
	.byte	0x23
	.uleb128 0x8
	.byte	0x6
	.byte	0x91
	.sleb128 -52
	.byte	0x6
	.byte	0x23
	.uleb128 0x18
	.byte	0x6
	.byte	0x27
	.byte	0x91
	.sleb128 -52
	.byte	0x6
	.byte	0x23
	.uleb128 0x28
	.byte	0x6
	.byte	0x27
	.byte	0x3e
	.byte	0x14
	.byte	0x14
	.byte	0x24
	.byte	0x17
	.byte	0x1f
	.byte	0x23
	.uleb128 0x20
	.byte	0x25
	.byte	0x21
	.byte	0x27
	.byte	0x91
	.sleb128 -52
	.byte	0x6
	.byte	0x23
	.uleb128 0x2c
	.byte	0x6
	.byte	0x27
	.byte	0x3b
	.byte	0x14
	.byte	0x14
	.byte	0x24
	.byte	0x17
	.byte	0x1f
	.byte	0x23
	.uleb128 0x20
	.byte	0x25
	.byte	0x21
	.byte	0x72
	.sleb128 0
	.byte	0x27
	.byte	0x91
	.sleb128 -72
	.byte	0x6
	.byte	0x1a
	.byte	0x91
	.sleb128 -52
	.byte	0x6
	.byte	0x23
	.uleb128 0x4
	.byte	0x6
	.byte	0x91
	.sleb128 -52
	.byte	0x6
	.byte	0x23
	.uleb128 0x14
	.byte	0x6
	.byte	0x27
	.byte	0x91
	.sleb128 -52
	.byte	0x6
	.byte	0x23
	.uleb128 0x24
	.byte	0x6
	.byte	0x27
	.byte	0x35
	.byte	0x14
	.byte	0x14
	.byte	0x24
	.byte	0x17
	.byte	0x1f
	.byte	0x23
	.uleb128 0x20
	.byte	0x25
	.byte	0x21
	.byte	0x27
	.byte	0x91
	.sleb128 -52
	.byte	0x6
	.byte	0x23
	.uleb128 0x4
	.byte	0x6
	.byte	0x91
	.sleb128 -52
	.byte	0x6
	.byte	0x23
	.uleb128 0x14
	.byte	0x6
	.byte	0x27
	.byte	0x91
	.sleb128 -52
	.byte	0x6
	.byte	0x23
	.uleb128 0x24
	.byte	0x6
	.byte	0x27
	.byte	0x3e
	.byte	0x14
	.byte	0x14
	.byte	0x24
	.byte	0x17
	.byte	0x1f
	.byte	0x23
	.uleb128 0x20
	.byte	0x25
	.byte	0x21
	.byte	0x27
	.byte	0x91
	.sleb128 -52
	.byte	0x6
	.byte	0x23
	.uleb128 0x18
	.byte	0x6
	.byte	0x27
	.byte	0x31
	.byte	0x14
	.byte	0x14
	.byte	0x24
	.byte	0x17
	.byte	0x1f
	.byte	0x23
	.uleb128 0x20
	.byte	0x25
	.byte	0x21
	.byte	0x91
	.sleb128 -72
	.byte	0x6
	.byte	0x27
	.byte	0x76
	.sleb128 0
	.byte	0x27
	.byte	0x35
	.byte	0x14
	.byte	0x14
	.byte	0x24
	.byte	0x17
	.byte	0x1f
	.byte	0x23
	.uleb128 0x20
	.byte	0x25
	.byte	0x21
	.byte	0x91
	.sleb128 -52
	.byte	0x6
	.byte	0x23
	.uleb128 0x8
	.byte	0x6
	.byte	0x91
	.sleb128 -52
	.byte	0x6
	.byte	0x23
	.uleb128 0x18
	.byte	0x6
	.byte	0x27
	.byte	0x91
	.sleb128 -52
	.byte	0x6
	.byte	0x23
	.uleb128 0x28
	.byte	0x6
	.byte	0x27
	.byte	0x35
	.byte	0x14
	.byte	0x14
	.byte	0x24
	.byte	0x17
	.byte	0x1f
	.byte	0x23
	.uleb128 0x20
	.byte	0x25
	.byte	0x21
	.byte	0x91
	.sleb128 -52
	.byte	0x6
	.byte	0x23
	.uleb128 0x8
	.byte	0x6
	.byte	0x91
	.sleb128 -52
	.byte	0x6
	.byte	0x23
	.uleb128 0x18
	.byte	0x6
	.byte	0x27
	.byte	0x91
	.sleb128 -52
	.byte	0x6
	.byte	0x23
	.uleb128 0x28
	.byte	0x6
	.byte	0x27
	.byte	0x3e
	.byte	0x14
	.byte	0x14
	.byte	0x24
	.byte	0x17
	.byte	0x1f
	.byte	0x23
	.uleb128 0x20
	.byte	0x25
	.byte	0x21
	.byte	0x27
	.byte	0x91
	.sleb128 -52
	.byte	0x6
	.byte	0x23
	.uleb128 0x2c
	.byte	0x6
	.byte	0x27
	.byte	0x3b
	.byte	0x14
	.byte	0x14
	.byte	0x24
	.byte	0x17
	.byte	0x1f
	.byte	0x23
	.uleb128 0x20
	.byte	0x25
	.byte	0x21
	.byte	0x72
	.sleb128 0
	.byte	0x27
	.byte	0x91
	.sleb128 -72
	.byte	0x6
	.byte	0x1a
	.byte	0x91
	.sleb128 -52
	.byte	0x6
	.byte	0x23
	.uleb128 0x4
	.byte	0x6
	.byte	0x91
	.sleb128 -52
	.byte	0x6
	.byte	0x23
	.uleb128 0x14
	.byte	0x6
	.byte	0x27
	.byte	0x91
	.sleb128 -52
	.byte	0x6
	.byte	0x23
	.uleb128 0x24
	.byte	0x6
	.byte	0x27
	.byte	0x35
	.byte	0x14
	.byte	0x14
	.byte	0x24
	.byte	0x17
	.byte	0x1f
	.byte	0x23
	.uleb128 0x20
	.byte	0x25
	.byte	0x21
	.byte	0x27
	.byte	0x91
	.sleb128 -52
	.byte	0x6
	.byte	0x23
	.uleb128 0x4
	.byte	0x6
	.byte	0x91
	.sleb128 -52
	.byte	0x6
	.byte	0x23
	.uleb128 0x14
	.byte	0x6
	.byte	0x27
	.byte	0x91
	.sleb128 -52
	.byte	0x6
	.byte	0x23
	.uleb128 0x24
	.byte	0x6
	.byte	0x27
	.byte	0x3e
	.byte	0x14
	.byte	0x14
	.byte	0x24
	.byte	0x17
	.byte	0x1f
	.byte	0x23
	.uleb128 0x20
	.byte	0x25
	.byte	0x21
	.byte	0x27
	.byte	0x91
	.sleb128 -52
	.byte	0x6
	.byte	0x23
	.uleb128 0x18
	.byte	0x6
	.byte	0x27
	.byte	0x31
	.byte	0x14
	.byte	0x14
	.byte	0x24
	.byte	0x17
	.byte	0x1f
	.byte	0x23
	.uleb128 0x20
	.byte	0x25
	.byte	0x21
	.byte	0x91
	.sleb128 -72
	.byte	0x6
	.byte	0x27
	.byte	0x76
	.sleb128 0
	.byte	0x27
	.byte	0x3e
	.byte	0x14
	.byte	0x14
	.byte	0x24
	.byte	0x17
	.byte	0x1f
	.byte	0x23
	.uleb128 0x20
	.byte	0x25
	.byte	0x21
	.byte	0x27
	.byte	0x91
	.sleb128 -64
	.byte	0x6
	.byte	0x27
	.byte	0x9f
	.4byte	.LVL464-.Ltext0
	.4byte	.LVL465-.Ltext0
	.2byte	0x2
	.byte	0x91
	.sleb128 -64
	.4byte	.LVL465-.Ltext0
	.4byte	.LVL486-.Ltext0
	.2byte	0x9c
	.byte	0x72
	.sleb128 0
	.byte	0x91
	.sleb128 -48
	.byte	0x6
	.byte	0x27
	.byte	0x91
	.sleb128 -52
	.byte	0x6
	.byte	0x23
	.uleb128 0xc
	.byte	0x6
	.byte	0x91
	.sleb128 -52
	.byte	0x6
	.byte	0x23
	.uleb128 0x1c
	.byte	0x6
	.byte	0x27
	.byte	0x91
	.sleb128 -52
	.byte	0x6
	.byte	0x23
	.uleb128 0x2c
	.byte	0x6
	.byte	0x27
	.byte	0x35
	.byte	0x14
	.byte	0x14
	.byte	0x24
	.byte	0x17
	.byte	0x1f
	.byte	0x23
	.uleb128 0x20
	.byte	0x25
	.byte	0x21
	.byte	0x91
	.sleb128 -52
	.byte	0x6
	.byte	0x23
	.uleb128 0xc
	.byte	0x6
	.byte	0x91
	.sleb128 -52
	.byte	0x6
	.byte	0x23
	.uleb128 0x1c
	.byte	0x6
	.byte	0x27
	.byte	0x91
	.sleb128 -52
	.byte	0x6
	.byte	0x23
	.uleb128 0x2c
	.byte	0x6
	.byte	0x27
	.byte	0x3e
	.byte	0x14
	.byte	0x14
	.byte	0x24
	.byte	0x17
	.byte	0x1f
	.byte	0x23
	.uleb128 0x20
	.byte	0x25
	.byte	0x21
	.byte	0x27
	.byte	0x91
	.sleb128 -52
	.byte	0x6
	.byte	0x23
	.uleb128 0x20
	.byte	0x6
	.byte	0x27
	.byte	0x3b
	.byte	0x14
	.byte	0x14
	.byte	0x24
	.byte	0x17
	.byte	0x1f
	.byte	0x23
	.uleb128 0x20
	.byte	0x25
	.byte	0x21
	.byte	0x1a
	.byte	0x91
	.sleb128 -52
	.byte	0x6
	.byte	0x23
	.uleb128 0xc
	.byte	0x6
	.byte	0x91
	.sleb128 -52
	.byte	0x6
	.byte	0x23
	.uleb128 0x1c
	.byte	0x6
	.byte	0x27
	.byte	0x91
	.sleb128 -52
	.byte	0x6
	.byte	0x23
	.uleb128 0x2c
	.byte	0x6
	.byte	0x27
	.byte	0x35
	.byte	0x14
	.byte	0x14
	.byte	0x24
	.byte	0x17
	.byte	0x1f
	.byte	0x23
	.uleb128 0x20
	.byte	0x25
	.byte	0x21
	.byte	0x27
	.byte	0x91
	.sleb128 -52
	.byte	0x6
	.byte	0x23
	.uleb128 0xc
	.byte	0x6
	.byte	0x91
	.sleb128 -52
	.byte	0x6
	.byte	0x23
	.uleb128 0x1c
	.byte	0x6
	.byte	0x27
	.byte	0x91
	.sleb128 -52
	.byte	0x6
	.byte	0x23
	.uleb128 0x2c
	.byte	0x6
	.byte	0x27
	.byte	0x3e
	.byte	0x14
	.byte	0x14
	.byte	0x24
	.byte	0x17
	.byte	0x1f
	.byte	0x23
	.uleb128 0x20
	.byte	0x25
	.byte	0x21
	.byte	0x27
	.byte	0x91
	.sleb128 -52
	.byte	0x6
	.byte	0x6
	.byte	0x27
	.byte	0x8
	.byte	0x58
	.byte	0x27
	.byte	0x9f
	.4byte	.LVL486-.Ltext0
	.4byte	.LVL493-.Ltext0
	.2byte	0x7
	.byte	0x91
	.sleb128 -64
	.byte	0x6
	.byte	0x7d
	.sleb128 0
	.byte	0x27
	.byte	0x9f
	.4byte	.LVL493-.Ltext0
	.4byte	.LVL494-.Ltext0
	.2byte	0x1
	.byte	0x5d
	.4byte	.LVL500-.Ltext0
	.4byte	.LVL501-.Ltext0
	.2byte	0x1
	.byte	0x58
	.4byte	.LVL501-.Ltext0
	.4byte	.LVL523-.Ltext0
	.2byte	0x2
	.byte	0x91
	.sleb128 -64
	.4byte	.LVL523-.Ltext0
	.4byte	.LVL528-.Ltext0
	.2byte	0x7
	.byte	0x91
	.sleb128 -64
	.byte	0x6
	.byte	0x7d
	.sleb128 0
	.byte	0x27
	.byte	0x9f
	.4byte	.LVL528-.Ltext0
	.4byte	.LVL529-.Ltext0
	.2byte	0x1
	.byte	0x5d
	.4byte	.LVL536-.Ltext0
	.4byte	.LVL537-.Ltext0
	.2byte	0x2
	.byte	0x91
	.sleb128 -64
	.4byte	.LVL559-.Ltext0
	.4byte	.LVL561-.Ltext0
	.2byte	0x7
	.byte	0x91
	.sleb128 -64
	.byte	0x6
	.byte	0x7d
	.sleb128 0
	.byte	0x27
	.byte	0x9f
	.4byte	.LVL561-.Ltext0
	.4byte	.LVL562-.Ltext0
	.2byte	0x1
	.byte	0x5d
	.4byte	.LVL573-.Ltext0
	.4byte	.LVL574-.Ltext0
	.2byte	0x2
	.byte	0x91
	.sleb128 -64
	.4byte	.LVL596-.Ltext0
	.4byte	.LVL601-.Ltext0
	.2byte	0x7
	.byte	0x91
	.sleb128 -64
	.byte	0x6
	.byte	0x7d
	.sleb128 0
	.byte	0x27
	.byte	0x9f
	.4byte	.LVL601-.Ltext0
	.4byte	.LVL602-.Ltext0
	.2byte	0x1
	.byte	0x5d
	.4byte	.LVL608-.Ltext0
	.4byte	.LVL611-.Ltext0
	.2byte	0x2
	.byte	0x91
	.sleb128 -64
	.4byte	.LVL644-.Ltext0
	.4byte	.LVL645-.Ltext0
	.2byte	0x2
	.byte	0x91
	.sleb128 -64
	.4byte	.LVL667-.Ltext0
	.4byte	.LVL672-.Ltext0
	.2byte	0x7
	.byte	0x91
	.sleb128 -64
	.byte	0x6
	.byte	0x7d
	.sleb128 0
	.byte	0x27
	.byte	0x9f
	.4byte	.LVL672-.Ltext0
	.4byte	.LVL673-.Ltext0
	.2byte	0x1
	.byte	0x5d
	.4byte	.LVL679-.Ltext0
	.4byte	.LVL682-.Ltext0
	.2byte	0x2
	.byte	0x91
	.sleb128 -64
	.4byte	.LVL703-.Ltext0
	.4byte	.LVL705-.Ltext0
	.2byte	0x7
	.byte	0x91
	.sleb128 -64
	.byte	0x6
	.byte	0x7d
	.sleb128 0
	.byte	0x27
	.byte	0x9f
	.4byte	.LVL705-.Ltext0
	.4byte	.LVL706-.Ltext0
	.2byte	0x1
	.byte	0x5d
	.4byte	.LVL717-.Ltext0
	.4byte	.LVL719-.Ltext0
	.2byte	0x2
	.byte	0x91
	.sleb128 -64
	.4byte	.LVL740-.Ltext0
	.4byte	.LVL745-.Ltext0
	.2byte	0x7
	.byte	0x91
	.sleb128 -64
	.byte	0x6
	.byte	0x7d
	.sleb128 0
	.byte	0x27
	.byte	0x9f
	.4byte	.LVL745-.Ltext0
	.4byte	.LVL746-.Ltext0
	.2byte	0x1
	.byte	0x5d
	.4byte	.LVL752-.Ltext0
	.4byte	.LVL755-.Ltext0
	.2byte	0x2
	.byte	0x91
	.sleb128 -64
	.4byte	.LVL766-.Ltext0
	.4byte	.LVL769-.Ltext0
	.2byte	0x7
	.byte	0x91
	.sleb128 -64
	.byte	0x6
	.byte	0x77
	.sleb128 0
	.byte	0x27
	.byte	0x9f
	.4byte	.LVL769-.Ltext0
	.4byte	.LVL770-.Ltext0
	.2byte	0x1
	.byte	0x57
	.4byte	.LVL776-.Ltext0
	.4byte	.LVL798-.Ltext0
	.2byte	0x2
	.byte	0x91
	.sleb128 -64
	.4byte	.LVL798-.Ltext0
	.4byte	.LVL805-.Ltext0
	.2byte	0x7
	.byte	0x91
	.sleb128 -64
	.byte	0x6
	.byte	0x77
	.sleb128 0
	.byte	0x27
	.byte	0x9f
	.4byte	.LVL805-.Ltext0
	.4byte	.LVL806-.Ltext0
	.2byte	0x1
	.byte	0x57
	.4byte	.LVL815-.Ltext0
	.4byte	.LVL832-.Ltext0
	.2byte	0x1
	.byte	0x5f
	.4byte	.LVL832-.Ltext0
	.4byte	.LVL833-.Ltext0
	.2byte	0x3
	.byte	0x91
	.sleb128 -52
	.byte	0x6
	.4byte	.LVL833-.Ltext0
	.4byte	.LFE11-.Ltext0
	.2byte	0x2
	.byte	0x73
	.sleb128 0
	.4byte	0
	.4byte	0
.LVUS76:
	.uleb128 .LVU1074
	.uleb128 .LVU1083
	.uleb128 .LVU1083
	.uleb128 .LVU1089
	.uleb128 .LVU1089
	.uleb128 .LVU1096
	.uleb128 .LVU1096
	.uleb128 .LVU1115
	.uleb128 .LVU1115
	.uleb128 .LVU1124
	.uleb128 .LVU1124
	.uleb128 .LVU1148
	.uleb128 .LVU1148
	.uleb128 .LVU1150
	.uleb128 .LVU1150
	.uleb128 .LVU1158
	.uleb128 .LVU1158
	.uleb128 .LVU1210
	.uleb128 .LVU1210
	.uleb128 .LVU1243
	.uleb128 .LVU1246
	.uleb128 .LVU1304
	.uleb128 .LVU1338
	.uleb128 .LVU1346
	.uleb128 .LVU1346
	.uleb128 .LVU1399
	.uleb128 .LVU1400
	.uleb128 .LVU1430
	.uleb128 .LVU1435
	.uleb128 .LVU1496
	.uleb128 .LVU1496
	.uleb128 .LVU1524
	.uleb128 .LVU1529
	.uleb128 .LVU1537
	.uleb128 .LVU1537
	.uleb128 .LVU1588
	.uleb128 .LVU1589
	.uleb128 .LVU1620
	.uleb128 .LVU1623
	.uleb128 .LVU1682
	.uleb128 .LVU1682
	.uleb128 .LVU1710
	.uleb128 .LVU1715
	.uleb128 .LVU1723
	.uleb128 .LVU1723
	.uleb128 .LVU1774
	.uleb128 .LVU1775
	.uleb128 .LVU1806
	.uleb128 .LVU1809
	.uleb128 .LVU1870
	.uleb128 .LVU1870
	.uleb128 .LVU1897
	.uleb128 .LVU1903
	.uleb128 .LVU1911
	.uleb128 .LVU1911
	.uleb128 .LVU1962
	.uleb128 .LVU1963
	.uleb128 .LVU1994
	.uleb128 .LVU2052
	.uleb128 .LVU2080
	.uleb128 .LVU2085
	.uleb128 .LVU2094
	.uleb128 .LVU2094
	.uleb128 .LVU2150
	.uleb128 .LVU2150
	.uleb128 .LVU2177
	.uleb128 .LVU2184
	.uleb128 .LVU2227
	.uleb128 .LVU2227
	.uleb128 .LVU2231
	.uleb128 .LVU2231
	.uleb128 0
.LLST76:
	.4byte	.LVL393-.Ltext0
	.4byte	.LVL399-.Ltext0
	.2byte	0x1
	.byte	0x57
	.4byte	.LVL399-.Ltext0
	.4byte	.LVL402-.Ltext0
	.2byte	0x2
	.byte	0x79
	.sleb128 4
	.4byte	.LVL402-.Ltext0
	.4byte	.LVL408-.Ltext0
	.2byte	0x1
	.byte	0x52
	.4byte	.LVL408-.Ltext0
	.4byte	.LVL420-.Ltext0
	.2byte	0x5
	.byte	0x91
	.sleb128 -52
	.byte	0x6
	.byte	0x23
	.uleb128 0x4
	.4byte	.LVL420-.Ltext0
	.4byte	.LVL422-.Ltext0
	.2byte	0x1
	.byte	0x59
	.4byte	.LVL422-.Ltext0
	.4byte	.LVL428-.Ltext0
	.2byte	0x41
	.byte	0x91
	.sleb128 -52
	.byte	0x6
	.byte	0x6
	.byte	0x91
	.sleb128 -52
	.byte	0x6
	.byte	0x23
	.uleb128 0x10
	.byte	0x6
	.byte	0x27
	.byte	0x91
	.sleb128 -52
	.byte	0x6
	.byte	0x23
	.uleb128 0x20
	.byte	0x6
	.byte	0x27
	.byte	0x35
	.byte	0x14
	.byte	0x14
	.byte	0x24
	.byte	0x17
	.byte	0x1f
	.byte	0x23
	.uleb128 0x20
	.byte	0x25
	.byte	0x21
	.byte	0x91
	.sleb128 -52
	.byte	0x6
	.byte	0x6
	.byte	0x91
	.sleb128 -52
	.byte	0x6
	.byte	0x23
	.uleb128 0x10
	.byte	0x6
	.byte	0x27
	.byte	0x91
	.sleb128 -52
	.byte	0x6
	.byte	0x23
	.uleb128 0x20
	.byte	0x6
	.byte	0x27
	.byte	0x3e
	.byte	0x14
	.byte	0x14
	.byte	0x24
	.byte	0x17
	.byte	0x1f
	.byte	0x23
	.uleb128 0x20
	.byte	0x25
	.byte	0x21
	.byte	0x27
	.byte	0x91
	.sleb128 -52
	.byte	0x6
	.byte	0x23
	.uleb128 0x4
	.byte	0x6
	.byte	0x27
	.byte	0x9f
	.4byte	.LVL428-.Ltext0
	.4byte	.LVL430-.Ltext0
	.2byte	0x1
	.byte	0x58
	.4byte	.LVL430-.Ltext0
	.4byte	.LVL433-.Ltext0
	.2byte	0x1
	.byte	0x5c
	.4byte	.LVL433-.Ltext0
	.4byte	.LVL462-.Ltext0
	.2byte	0x2
	.byte	0x71
	.sleb128 0
	.4byte	.LVL462-.Ltext0
	.4byte	.LVL467-.Ltext0
	.2byte	0x1
	.byte	0x59
	.4byte	.LVL468-.Ltext0
	.4byte	.LVL498-.Ltext0
	.2byte	0x2
	.byte	0x71
	.sleb128 0
	.4byte	.LVL503-.Ltext0
	.4byte	.LVL507-.Ltext0
	.2byte	0x1
	.byte	0x5c
	.4byte	.LVL507-.Ltext0
	.4byte	.LVL533-.Ltext0
	.2byte	0x2
	.byte	0x71
	.sleb128 0
	.4byte	.LVL534-.Ltext0
	.4byte	.LVL539-.Ltext0
	.2byte	0x1
	.byte	0x59
	.4byte	.LVL541-.Ltext0
	.4byte	.LVL571-.Ltext0
	.2byte	0x2
	.byte	0x71
	.sleb128 0
	.4byte	.LVL571-.Ltext0
	.4byte	.LVL575-.Ltext0
	.2byte	0x1
	.byte	0x59
	.4byte	.LVL577-.Ltext0
	.4byte	.LVL581-.Ltext0
	.2byte	0x1
	.byte	0x5c
	.4byte	.LVL581-.Ltext0
	.4byte	.LVL606-.Ltext0
	.2byte	0x2
	.byte	0x71
	.sleb128 0
	.4byte	.LVL607-.Ltext0
	.4byte	.LVL613-.Ltext0
	.2byte	0x1
	.byte	0x59
	.4byte	.LVL614-.Ltext0
	.4byte	.LVL642-.Ltext0
	.2byte	0x2
	.byte	0x71
	.sleb128 0
	.4byte	.LVL642-.Ltext0
	.4byte	.LVL646-.Ltext0
	.2byte	0x1
	.byte	0x59
	.4byte	.LVL648-.Ltext0
	.4byte	.LVL652-.Ltext0
	.2byte	0x1
	.byte	0x5c
	.4byte	.LVL652-.Ltext0
	.4byte	.LVL677-.Ltext0
	.2byte	0x2
	.byte	0x71
	.sleb128 0
	.4byte	.LVL678-.Ltext0
	.4byte	.LVL684-.Ltext0
	.2byte	0x1
	.byte	0x59
	.4byte	.LVL685-.Ltext0
	.4byte	.LVL715-.Ltext0
	.2byte	0x2
	.byte	0x71
	.sleb128 0
	.4byte	.LVL715-.Ltext0
	.4byte	.LVL718-.Ltext0
	.2byte	0x1
	.byte	0x59
	.4byte	.LVL721-.Ltext0
	.4byte	.LVL725-.Ltext0
	.2byte	0x1
	.byte	0x5c
	.4byte	.LVL725-.Ltext0
	.4byte	.LVL750-.Ltext0
	.2byte	0x2
	.byte	0x71
	.sleb128 0
	.4byte	.LVL751-.Ltext0
	.4byte	.LVL757-.Ltext0
	.2byte	0x1
	.byte	0x59
	.4byte	.LVL775-.Ltext0
	.4byte	.LVL778-.Ltext0
	.2byte	0x1
	.byte	0x5d
	.4byte	.LVL781-.Ltext0
	.4byte	.LVL785-.Ltext0
	.2byte	0x1
	.byte	0x56
	.4byte	.LVL785-.Ltext0
	.4byte	.LVL810-.Ltext0
	.2byte	0x2
	.byte	0x71
	.sleb128 0
	.4byte	.LVL810-.Ltext0
	.4byte	.LVL814-.Ltext0
	.2byte	0x1
	.byte	0x56
	.4byte	.LVL819-.Ltext0
	.4byte	.LVL831-.Ltext0
	.2byte	0x1
	.byte	0x5d
	.4byte	.LVL831-.Ltext0
	.4byte	.LVL833-.Ltext0
	.2byte	0x5
	.byte	0x91
	.sleb128 -52
	.byte	0x6
	.byte	0x23
	.uleb128 0x4
	.4byte	.LVL833-.Ltext0
	.4byte	.LFE11-.Ltext0
	.2byte	0x2
	.byte	0x73
	.sleb128 4
	.4byte	0
	.4byte	0
.LVUS77:
	.uleb128 .LVU1074
	.uleb128 .LVU1082
	.uleb128 .LVU1120
	.uleb128 .LVU1125
	.uleb128 .LVU1125
	.uleb128 .LVU1126
	.uleb128 .LVU1126
	.uleb128 .LVU1153
	.uleb128 .LVU1153
	.uleb128 .LVU1159
	.uleb128 .LVU1159
	.uleb128 .LVU1208
	.uleb128 .LVU1208
	.uleb128 .LVU1215
	.uleb128 .LVU1215
	.uleb128 .LVU1220
	.uleb128 .LVU1249
	.uleb128 .LVU1250
	.uleb128 .LVU1250
	.uleb128 .LVU1262
	.uleb128 .LVU1262
	.uleb128 .LVU1311
	.uleb128 .LVU1341
	.uleb128 .LVU1342
	.uleb128 .LVU1342
	.uleb128 .LVU1350
	.uleb128 .LVU1350
	.uleb128 .LVU1405
	.uleb128 .LVU1405
	.uleb128 .LVU1409
	.uleb128 .LVU1438
	.uleb128 .LVU1442
	.uleb128 .LVU1442
	.uleb128 .LVU1494
	.uleb128 .LVU1494
	.uleb128 .LVU1501
	.uleb128 .LVU1501
	.uleb128 .LVU1505
	.uleb128 .LVU1532
	.uleb128 .LVU1533
	.uleb128 .LVU1533
	.uleb128 .LVU1541
	.uleb128 .LVU1541
	.uleb128 .LVU1594
	.uleb128 .LVU1594
	.uleb128 .LVU1615
	.uleb128 .LVU1626
	.uleb128 .LVU1633
	.uleb128 .LVU1633
	.uleb128 .LVU1680
	.uleb128 .LVU1680
	.uleb128 .LVU1687
	.uleb128 .LVU1687
	.uleb128 .LVU1691
	.uleb128 .LVU1718
	.uleb128 .LVU1719
	.uleb128 .LVU1719
	.uleb128 .LVU1727
	.uleb128 .LVU1727
	.uleb128 .LVU1780
	.uleb128 .LVU1780
	.uleb128 .LVU1801
	.uleb128 .LVU1812
	.uleb128 .LVU1816
	.uleb128 .LVU1816
	.uleb128 .LVU1868
	.uleb128 .LVU1868
	.uleb128 .LVU1875
	.uleb128 .LVU1875
	.uleb128 .LVU1879
	.uleb128 .LVU1906
	.uleb128 .LVU1907
	.uleb128 .LVU1907
	.uleb128 .LVU1915
	.uleb128 .LVU1915
	.uleb128 .LVU1968
	.uleb128 .LVU1968
	.uleb128 .LVU1989
	.uleb128 .LVU2057
	.uleb128 .LVU2082
	.uleb128 .LVU2089
	.uleb128 .LVU2100
	.uleb128 .LVU2100
	.uleb128 .LVU2155
	.uleb128 .LVU2155
	.uleb128 .LVU2175
	.uleb128 .LVU2187
	.uleb128 .LVU2226
	.uleb128 .LVU2226
	.uleb128 .LVU2231
	.uleb128 .LVU2231
	.uleb128 0
.LLST77:
	.4byte	.LVL393-.Ltext0
	.4byte	.LVL398-.Ltext0
	.2byte	0x2
	.byte	0x91
	.sleb128 -32
	.4byte	.LVL421-.Ltext0
	.4byte	.LVL423-.Ltext0
	.2byte	0x1
	.byte	0x58
	.4byte	.LVL423-.Ltext0
	.4byte	.LVL424-.Ltext0
	.2byte	0x41
	.byte	0x91
	.sleb128 -52
	.byte	0x6
	.byte	0x23
	.uleb128 0x4
	.byte	0x6
	.byte	0x91
	.sleb128 -52
	.byte	0x6
	.byte	0x23
	.uleb128 0x14
	.byte	0x6
	.byte	0x27
	.byte	0x91
	.sleb128 -52
	.byte	0x6
	.byte	0x23
	.uleb128 0x24
	.byte	0x6
	.byte	0x27
	.byte	0x35
	.byte	0x14
	.byte	0x14
	.byte	0x24
	.byte	0x17
	.byte	0x1f
	.byte	0x23
	.uleb128 0x20
	.byte	0x25
	.byte	0x21
	.byte	0x91
	.sleb128 -52
	.byte	0x6
	.byte	0x23
	.uleb128 0x4
	.byte	0x6
	.byte	0x91
	.sleb128 -52
	.byte	0x6
	.byte	0x23
	.uleb128 0x14
	.byte	0x6
	.byte	0x27
	.byte	0x91
	.sleb128 -52
	.byte	0x6
	.byte	0x23
	.uleb128 0x24
	.byte	0x6
	.byte	0x27
	.byte	0x3e
	.byte	0x14
	.byte	0x14
	.byte	0x24
	.byte	0x17
	.byte	0x1f
	.byte	0x23
	.uleb128 0x20
	.byte	0x25
	.byte	0x21
	.byte	0x27
	.byte	0x7e
	.sleb128 0
	.byte	0x27
	.byte	0x9f
	.4byte	.LVL424-.Ltext0
	.4byte	.LVL431-.Ltext0
	.2byte	0x45
	.byte	0x91
	.sleb128 -52
	.byte	0x6
	.byte	0x23
	.uleb128 0x4
	.byte	0x6
	.byte	0x91
	.sleb128 -52
	.byte	0x6
	.byte	0x23
	.uleb128 0x14
	.byte	0x6
	.byte	0x27
	.byte	0x91
	.sleb128 -52
	.byte	0x6
	.byte	0x23
	.uleb128 0x24
	.byte	0x6
	.byte	0x27
	.byte	0x35
	.byte	0x14
	.byte	0x14
	.byte	0x24
	.byte	0x17
	.byte	0x1f
	.byte	0x23
	.uleb128 0x20
	.byte	0x25
	.byte	0x21
	.byte	0x91
	.sleb128 -52
	.byte	0x6
	.byte	0x23
	.uleb128 0x4
	.byte	0x6
	.byte	0x91
	.sleb128 -52
	.byte	0x6
	.byte	0x23
	.uleb128 0x14
	.byte	0x6
	.byte	0x27
	.byte	0x91
	.sleb128 -52
	.byte	0x6
	.byte	0x23
	.uleb128 0x24
	.byte	0x6
	.byte	0x27
	.byte	0x3e
	.byte	0x14
	.byte	0x14
	.byte	0x24
	.byte	0x17
	.byte	0x1f
	.byte	0x23
	.uleb128 0x20
	.byte	0x25
	.byte	0x21
	.byte	0x27
	.byte	0x91
	.sleb128 -52
	.byte	0x6
	.byte	0x23
	.uleb128 0x8
	.byte	0x6
	.byte	0x27
	.byte	0x9f
	.4byte	.LVL431-.Ltext0
	.4byte	.LVL434-.Ltext0
	.2byte	0x1
	.byte	0x5e
	.4byte	.LVL434-.Ltext0
	.4byte	.LVL460-.Ltext0
	.2byte	0x3
	.byte	0x91
	.sleb128 -76
	.4byte	.LVL460-.Ltext0
	.4byte	.LVL462-.Ltext0
	.2byte	0x1
	.byte	0x5c
	.4byte	.LVL462-.Ltext0
	.4byte	.LVL463-.Ltext0
	.2byte	0x1
	.byte	0x58
	.4byte	.LVL468-.Ltext0
	.4byte	.LVL469-.Ltext0
	.2byte	0x1
	.byte	0x57
	.4byte	.LVL469-.Ltext0
	.4byte	.LVL475-.Ltext0
	.2byte	0x1
	.byte	0x5c
	.4byte	.LVL475-.Ltext0
	.4byte	.LVL499-.Ltext0
	.2byte	0x3
	.byte	0x91
	.sleb128 -76
	.4byte	.LVL504-.Ltext0
	.4byte	.LVL505-.Ltext0
	.2byte	0x1
	.byte	0x57
	.4byte	.LVL505-.Ltext0
	.4byte	.LVL509-.Ltext0
	.2byte	0x1
	.byte	0x5a
	.4byte	.LVL509-.Ltext0
	.4byte	.LVL534-.Ltext0
	.2byte	0x3
	.byte	0x91
	.sleb128 -76
	.4byte	.LVL534-.Ltext0
	.4byte	.LVL535-.Ltext0
	.2byte	0x1
	.byte	0x58
	.4byte	.LVL541-.Ltext0
	.4byte	.LVL542-.Ltext0
	.2byte	0x1
	.byte	0x5c
	.4byte	.LVL542-.Ltext0
	.4byte	.LVL569-.Ltext0
	.2byte	0x3
	.byte	0x91
	.sleb128 -76
	.4byte	.LVL569-.Ltext0
	.4byte	.LVL571-.Ltext0
	.2byte	0x1
	.byte	0x5a
	.4byte	.LVL571-.Ltext0
	.4byte	.LVL572-.Ltext0
	.2byte	0x1
	.byte	0x58
	.4byte	.LVL578-.Ltext0
	.4byte	.LVL579-.Ltext0
	.2byte	0x1
	.byte	0x57
	.4byte	.LVL579-.Ltext0
	.4byte	.LVL583-.Ltext0
	.2byte	0x1
	.byte	0x5a
	.4byte	.LVL583-.Ltext0
	.4byte	.LVL607-.Ltext0
	.2byte	0x3
	.byte	0x91
	.sleb128 -76
	.4byte	.LVL607-.Ltext0
	.4byte	.LVL609-.Ltext0
	.2byte	0x1
	.byte	0x58
	.4byte	.LVL614-.Ltext0
	.4byte	.LVL616-.Ltext0
	.2byte	0x1
	.byte	0x5c
	.4byte	.LVL616-.Ltext0
	.4byte	.LVL640-.Ltext0
	.2byte	0x3
	.byte	0x91
	.sleb128 -76
	.4byte	.LVL640-.Ltext0
	.4byte	.LVL642-.Ltext0
	.2byte	0x1
	.byte	0x5a
	.4byte	.LVL642-.Ltext0
	.4byte	.LVL643-.Ltext0
	.2byte	0x1
	.byte	0x58
	.4byte	.LVL649-.Ltext0
	.4byte	.LVL650-.Ltext0
	.2byte	0x1
	.byte	0x57
	.4byte	.LVL650-.Ltext0
	.4byte	.LVL654-.Ltext0
	.2byte	0x1
	.byte	0x5a
	.4byte	.LVL654-.Ltext0
	.4byte	.LVL678-.Ltext0
	.2byte	0x3
	.byte	0x91
	.sleb128 -76
	.4byte	.LVL678-.Ltext0
	.4byte	.LVL680-.Ltext0
	.2byte	0x1
	.byte	0x58
	.4byte	.LVL685-.Ltext0
	.4byte	.LVL686-.Ltext0
	.2byte	0x1
	.byte	0x5c
	.4byte	.LVL686-.Ltext0
	.4byte	.LVL713-.Ltext0
	.2byte	0x3
	.byte	0x91
	.sleb128 -76
	.4byte	.LVL713-.Ltext0
	.4byte	.LVL715-.Ltext0
	.2byte	0x1
	.byte	0x5a
	.4byte	.LVL715-.Ltext0
	.4byte	.LVL716-.Ltext0
	.2byte	0x1
	.byte	0x58
	.4byte	.LVL722-.Ltext0
	.4byte	.LVL723-.Ltext0
	.2byte	0x1
	.byte	0x57
	.4byte	.LVL723-.Ltext0
	.4byte	.LVL727-.Ltext0
	.2byte	0x1
	.byte	0x5a
	.4byte	.LVL727-.Ltext0
	.4byte	.LVL751-.Ltext0
	.2byte	0x3
	.byte	0x91
	.sleb128 -76
	.4byte	.LVL751-.Ltext0
	.4byte	.LVL753-.Ltext0
	.2byte	0x1
	.byte	0x58
	.4byte	.LVL775-.Ltext0
	.4byte	.LVL780-.Ltext0
	.2byte	0x1
	.byte	0x5a
	.4byte	.LVL783-.Ltext0
	.4byte	.LVL789-.Ltext0
	.2byte	0x1
	.byte	0x5d
	.4byte	.LVL789-.Ltext0
	.4byte	.LVL811-.Ltext0
	.2byte	0x3
	.byte	0x91
	.sleb128 -76
	.4byte	.LVL811-.Ltext0
	.4byte	.LVL812-.Ltext0
	.2byte	0x1
	.byte	0x55
	.4byte	.LVL820-.Ltext0
	.4byte	.LVL830-.Ltext0
	.2byte	0x1
	.byte	0x5c
	.4byte	.LVL830-.Ltext0
	.4byte	.LVL833-.Ltext0
	.2byte	0x5
	.byte	0x91
	.sleb128 -52
	.byte	0x6
	.byte	0x23
	.uleb128 0x8
	.4byte	.LVL833-.Ltext0
	.4byte	.LFE11-.Ltext0
	.2byte	0x2
	.byte	0x73
	.sleb128 8
	.4byte	0
	.4byte	0
.LVUS78:
	.uleb128 .LVU1074
	.uleb128 .LVU1079
	.uleb128 .LVU1127
	.uleb128 .LVU1145
	.uleb128 .LVU1145
	.uleb128 .LVU1156
	.uleb128 .LVU1156
	.uleb128 .LVU1157
	.uleb128 .LVU1157
	.uleb128 .LVU1221
	.uleb128 .LVU1221
	.uleb128 .LVU1242
	.uleb128 .LVU1253
	.uleb128 .LVU1257
	.uleb128 .LVU1257
	.uleb128 .LVU1317
	.uleb128 .LVU1317
	.uleb128 .LVU1335
	.uleb128 .LVU1345
	.uleb128 .LVU1351
	.uleb128 .LVU1351
	.uleb128 .LVU1411
	.uleb128 .LVU1411
	.uleb128 .LVU1429
	.uleb128 .LVU1441
	.uleb128 .LVU1506
	.uleb128 .LVU1506
	.uleb128 .LVU1526
	.uleb128 .LVU1536
	.uleb128 .LVU1542
	.uleb128 .LVU1542
	.uleb128 .LVU1598
	.uleb128 .LVU1598
	.uleb128 .LVU1616
	.uleb128 .LVU1629
	.uleb128 .LVU1692
	.uleb128 .LVU1692
	.uleb128 .LVU1712
	.uleb128 .LVU1722
	.uleb128 .LVU1728
	.uleb128 .LVU1728
	.uleb128 .LVU1784
	.uleb128 .LVU1784
	.uleb128 .LVU1802
	.uleb128 .LVU1815
	.uleb128 .LVU1880
	.uleb128 .LVU1880
	.uleb128 .LVU1900
	.uleb128 .LVU1910
	.uleb128 .LVU1916
	.uleb128 .LVU1916
	.uleb128 .LVU1972
	.uleb128 .LVU1972
	.uleb128 .LVU1990
	.uleb128 .LVU2062
	.uleb128 .LVU2081
	.uleb128 .LVU2092
	.uleb128 .LVU2093
	.uleb128 .LVU2093
	.uleb128 .LVU2159
	.uleb128 .LVU2190
	.uleb128 0
.LLST78:
	.4byte	.LVL393-.Ltext0
	.4byte	.LVL396-.Ltext0
	.2byte	0x2
	.byte	0x91
	.sleb128 -28
	.4byte	.LVL425-.Ltext0
	.4byte	.LVL427-.Ltext0
	.2byte	0x1
	.byte	0x58
	.4byte	.LVL427-.Ltext0
	.4byte	.LVL431-.Ltext0
	.2byte	0x45
	.byte	0x91
	.sleb128 -52
	.byte	0x6
	.byte	0x23
	.uleb128 0x8
	.byte	0x6
	.byte	0x91
	.sleb128 -52
	.byte	0x6
	.byte	0x23
	.uleb128 0x18
	.byte	0x6
	.byte	0x27
	.byte	0x91
	.sleb128 -52
	.byte	0x6
	.byte	0x23
	.uleb128 0x28
	.byte	0x6
	.byte	0x27
	.byte	0x35
	.byte	0x14
	.byte	0x14
	.byte	0x24
	.byte	0x17
	.byte	0x1f
	.byte	0x23
	.uleb128 0x20
	.byte	0x25
	.byte	0x21
	.byte	0x91
	.sleb128 -52
	.byte	0x6
	.byte	0x23
	.uleb128 0x8
	.byte	0x6
	.byte	0x91
	.sleb128 -52
	.byte	0x6
	.byte	0x23
	.uleb128 0x18
	.byte	0x6
	.byte	0x27
	.byte	0x91
	.sleb128 -52
	.byte	0x6
	.byte	0x23
	.uleb128 0x28
	.byte	0x6
	.byte	0x27
	.byte	0x3e
	.byte	0x14
	.byte	0x14
	.byte	0x24
	.byte	0x17
	.byte	0x1f
	.byte	0x23
	.uleb128 0x20
	.byte	0x25
	.byte	0x21
	.byte	0x27
	.byte	0x91
	.sleb128 -52
	.byte	0x6
	.byte	0x23
	.uleb128 0xc
	.byte	0x6
	.byte	0x27
	.byte	0x9f
	.4byte	.LVL431-.Ltext0
	.4byte	.LVL432-.Ltext0
	.2byte	0x1
	.byte	0x5a
	.4byte	.LVL432-.Ltext0
	.4byte	.LVL464-.Ltext0
	.2byte	0x3
	.byte	0x91
	.sleb128 -72
	.4byte	.LVL464-.Ltext0
	.4byte	.LVL466-.Ltext0
	.2byte	0x1
	.byte	0x57
	.4byte	.LVL470-.Ltext0
	.4byte	.LVL472-.Ltext0
	.2byte	0x1
	.byte	0x5e
	.4byte	.LVL472-.Ltext0
	.4byte	.LVL500-.Ltext0
	.2byte	0x3
	.byte	0x91
	.sleb128 -72
	.4byte	.LVL500-.Ltext0
	.4byte	.LVL502-.Ltext0
	.2byte	0x1
	.byte	0x57
	.4byte	.LVL506-.Ltext0
	.4byte	.LVL510-.Ltext0
	.2byte	0x1
	.byte	0x5b
	.4byte	.LVL510-.Ltext0
	.4byte	.LVL536-.Ltext0
	.2byte	0x3
	.byte	0x91
	.sleb128 -72
	.4byte	.LVL536-.Ltext0
	.4byte	.LVL538-.Ltext0
	.2byte	0x1
	.byte	0x57
	.4byte	.LVL541-.Ltext0
	.4byte	.LVL573-.Ltext0
	.2byte	0x3
	.byte	0x91
	.sleb128 -72
	.4byte	.LVL573-.Ltext0
	.4byte	.LVL576-.Ltext0
	.2byte	0x1
	.byte	0x57
	.4byte	.LVL580-.Ltext0
	.4byte	.LVL584-.Ltext0
	.2byte	0x1
	.byte	0x5b
	.4byte	.LVL584-.Ltext0
	.4byte	.LVL608-.Ltext0
	.2byte	0x3
	.byte	0x91
	.sleb128 -72
	.4byte	.LVL608-.Ltext0
	.4byte	.LVL610-.Ltext0
	.2byte	0x1
	.byte	0x57
	.4byte	.LVL614-.Ltext0
	.4byte	.LVL644-.Ltext0
	.2byte	0x3
	.byte	0x91
	.sleb128 -72
	.4byte	.LVL644-.Ltext0
	.4byte	.LVL647-.Ltext0
	.2byte	0x1
	.byte	0x57
	.4byte	.LVL651-.Ltext0
	.4byte	.LVL655-.Ltext0
	.2byte	0x1
	.byte	0x5b
	.4byte	.LVL655-.Ltext0
	.4byte	.LVL679-.Ltext0
	.2byte	0x3
	.byte	0x91
	.sleb128 -72
	.4byte	.LVL679-.Ltext0
	.4byte	.LVL681-.Ltext0
	.2byte	0x1
	.byte	0x57
	.4byte	.LVL685-.Ltext0
	.4byte	.LVL717-.Ltext0
	.2byte	0x3
	.byte	0x91
	.sleb128 -72
	.4byte	.LVL717-.Ltext0
	.4byte	.LVL720-.Ltext0
	.2byte	0x1
	.byte	0x57
	.4byte	.LVL724-.Ltext0
	.4byte	.LVL728-.Ltext0
	.2byte	0x1
	.byte	0x5b
	.4byte	.LVL728-.Ltext0
	.4byte	.LVL752-.Ltext0
	.2byte	0x3
	.byte	0x91
	.sleb128 -72
	.4byte	.LVL752-.Ltext0
	.4byte	.LVL754-.Ltext0
	.2byte	0x1
	.byte	0x57
	.4byte	.LVL776-.Ltext0
	.4byte	.LVL779-.Ltext0
	.2byte	0x1
	.byte	0x5c
	.4byte	.LVL783-.Ltext0
	.4byte	.LVL784-.Ltext0
	.2byte	0x1
	.byte	0x55
	.4byte	.LVL784-.Ltext0
	.4byte	.LVL811-.Ltext0
	.2byte	0x3
	.byte	0x91
	.sleb128 -72
	.4byte	.LVL820-.Ltext0
	.4byte	.LFE11-.Ltext0
	.2byte	0x1
	.byte	0x5b
	.4byte	0
	.4byte	0
.LVUS79:
	.uleb128 .LVU1075
	.uleb128 .LVU1139
	.uleb128 .LVU1139
	.uleb128 .LVU1146
	.uleb128 .LVU1146
	.uleb128 .LVU1176
	.uleb128 .LVU1176
	.uleb128 .LVU1233
	.uleb128 .LVU1233
	.uleb128 .LVU1244
	.uleb128 .LVU1244
	.uleb128 .LVU1294
	.uleb128 .LVU1294
	.uleb128 .LVU1329
	.uleb128 .LVU1329
	.uleb128 .LVU1336
	.uleb128 .LVU1336
	.uleb128 .LVU1369
	.uleb128 .LVU1369
	.uleb128 .LVU1423
	.uleb128 .LVU1423
	.uleb128 .LVU1433
	.uleb128 .LVU1433
	.uleb128 .LVU1461
	.uleb128 .LVU1461
	.uleb128 .LVU1518
	.uleb128 .LVU1518
	.uleb128 .LVU1527
	.uleb128 .LVU1527
	.uleb128 .LVU1559
	.uleb128 .LVU1559
	.uleb128 .LVU1610
	.uleb128 .LVU1610
	.uleb128 .LVU1621
	.uleb128 .LVU1621
	.uleb128 .LVU1648
	.uleb128 .LVU1648
	.uleb128 .LVU1704
	.uleb128 .LVU1704
	.uleb128 .LVU1713
	.uleb128 .LVU1713
	.uleb128 .LVU1745
	.uleb128 .LVU1745
	.uleb128 .LVU1796
	.uleb128 .LVU1796
	.uleb128 .LVU1807
	.uleb128 .LVU1807
	.uleb128 .LVU1835
	.uleb128 .LVU1835
	.uleb128 .LVU1892
	.uleb128 .LVU1892
	.uleb128 .LVU1901
	.uleb128 .LVU1901
	.uleb128 .LVU1933
	.uleb128 .LVU1933
	.uleb128 .LVU1984
	.uleb128 .LVU1984
	.uleb128 .LVU1996
	.uleb128 .LVU1996
	.uleb128 .LVU2074
	.uleb128 .LVU2074
	.uleb128 .LVU2083
	.uleb128 .LVU2083
	.uleb128 .LVU2171
	.uleb128 .LVU2171
	.uleb128 .LVU2182
	.uleb128 .LVU2182
	.uleb128 .LVU2194
	.uleb128 .LVU2194
	.uleb128 .LVU2213
	.uleb128 .LVU2213
	.uleb128 0
.LLST79:
	.4byte	.LVL394-.Ltext0
	.4byte	.LVL425-.Ltext0
	.2byte	0x1
	.byte	0x5b
	.4byte	.LVL425-.Ltext0
	.4byte	.LVL428-.Ltext0
	.2byte	0x2
	.byte	0x91
	.sleb128 -48
	.4byte	.LVL428-.Ltext0
	.4byte	.LVL444-.Ltext0
	.2byte	0x1
	.byte	0x57
	.4byte	.LVL444-.Ltext0
	.4byte	.LVL464-.Ltext0
	.2byte	0x1
	.byte	0x55
	.4byte	.LVL464-.Ltext0
	.4byte	.LVL468-.Ltext0
	.2byte	0x2
	.byte	0x91
	.sleb128 -56
	.4byte	.LVL468-.Ltext0
	.4byte	.LVL491-.Ltext0
	.2byte	0x1
	.byte	0x5a
	.4byte	.LVL491-.Ltext0
	.4byte	.LVL500-.Ltext0
	.2byte	0x1
	.byte	0x5b
	.4byte	.LVL500-.Ltext0
	.4byte	.LVL503-.Ltext0
	.2byte	0x2
	.byte	0x91
	.sleb128 -60
	.4byte	.LVL503-.Ltext0
	.4byte	.LVL520-.Ltext0
	.2byte	0x1
	.byte	0x59
	.4byte	.LVL520-.Ltext0
	.4byte	.LVL536-.Ltext0
	.2byte	0x1
	.byte	0x55
	.4byte	.LVL536-.Ltext0
	.4byte	.LVL541-.Ltext0
	.2byte	0x2
	.byte	0x91
	.sleb128 -56
	.4byte	.LVL541-.Ltext0
	.4byte	.LVL552-.Ltext0
	.2byte	0x1
	.byte	0x59
	.4byte	.LVL552-.Ltext0
	.4byte	.LVL573-.Ltext0
	.2byte	0x1
	.byte	0x5b
	.4byte	.LVL573-.Ltext0
	.4byte	.LVL577-.Ltext0
	.2byte	0x2
	.byte	0x91
	.sleb128 -56
	.4byte	.LVL577-.Ltext0
	.4byte	.LVL593-.Ltext0
	.2byte	0x1
	.byte	0x59
	.4byte	.LVL593-.Ltext0
	.4byte	.LVL608-.Ltext0
	.2byte	0x1
	.byte	0x55
	.4byte	.LVL608-.Ltext0
	.4byte	.LVL614-.Ltext0
	.2byte	0x2
	.byte	0x91
	.sleb128 -56
	.4byte	.LVL614-.Ltext0
	.4byte	.LVL625-.Ltext0
	.2byte	0x1
	.byte	0x59
	.4byte	.LVL625-.Ltext0
	.4byte	.LVL644-.Ltext0
	.2byte	0x1
	.byte	0x5b
	.4byte	.LVL644-.Ltext0
	.4byte	.LVL648-.Ltext0
	.2byte	0x2
	.byte	0x91
	.sleb128 -56
	.4byte	.LVL648-.Ltext0
	.4byte	.LVL664-.Ltext0
	.2byte	0x1
	.byte	0x59
	.4byte	.LVL664-.Ltext0
	.4byte	.LVL679-.Ltext0
	.2byte	0x1
	.byte	0x55
	.4byte	.LVL679-.Ltext0
	.4byte	.LVL685-.Ltext0
	.2byte	0x2
	.byte	0x91
	.sleb128 -56
	.4byte	.LVL685-.Ltext0
	.4byte	.LVL696-.Ltext0
	.2byte	0x1
	.byte	0x59
	.4byte	.LVL696-.Ltext0
	.4byte	.LVL717-.Ltext0
	.2byte	0x1
	.byte	0x5b
	.4byte	.LVL717-.Ltext0
	.4byte	.LVL721-.Ltext0
	.2byte	0x2
	.byte	0x91
	.sleb128 -56
	.4byte	.LVL721-.Ltext0
	.4byte	.LVL737-.Ltext0
	.2byte	0x1
	.byte	0x59
	.4byte	.LVL737-.Ltext0
	.4byte	.LVL752-.Ltext0
	.2byte	0x1
	.byte	0x55
	.4byte	.LVL752-.Ltext0
	.4byte	.LVL759-.Ltext0
	.2byte	0x2
	.byte	0x91
	.sleb128 -56
	.4byte	.LVL759-.Ltext0
	.4byte	.LVL776-.Ltext0
	.2byte	0x1
	.byte	0x59
	.4byte	.LVL776-.Ltext0
	.4byte	.LVL781-.Ltext0
	.2byte	0x2
	.byte	0x91
	.sleb128 -56
	.4byte	.LVL781-.Ltext0
	.4byte	.LVL811-.Ltext0
	.2byte	0x1
	.byte	0x5a
	.4byte	.LVL811-.Ltext0
	.4byte	.LVL819-.Ltext0
	.2byte	0x2
	.byte	0x91
	.sleb128 -44
	.4byte	.LVL819-.Ltext0
	.4byte	.LVL821-.Ltext0
	.2byte	0x1
	.byte	0x58
	.4byte	.LVL821-.Ltext0
	.4byte	.LVL825-.Ltext0
	.2byte	0xd
	.byte	0x78
	.sleb128 0
	.byte	0x31
	.byte	0x14
	.byte	0x14
	.byte	0x24
	.byte	0x17
	.byte	0x1f
	.byte	0x23
	.uleb128 0x20
	.byte	0x25
	.byte	0x21
	.byte	0x9f
	.4byte	.LVL825-.Ltext0
	.4byte	.LFE11-.Ltext0
	.2byte	0x1
	.byte	0x58
	.4byte	0
	.4byte	0
.LVUS80:
	.uleb128 .LVU1076
	.uleb128 .LVU1111
	.uleb128 .LVU1111
	.uleb128 .LVU1116
	.uleb128 .LVU1116
	.uleb128 .LVU1138
	.uleb128 .LVU1138
	.uleb128 .LVU1175
	.uleb128 .LVU1175
	.uleb128 .LVU1177
	.uleb128 .LVU1177
	.uleb128 .LVU1204
	.uleb128 .LVU1204
	.uleb128 .LVU1211
	.uleb128 .LVU1211
	.uleb128 .LVU1232
	.uleb128 .LVU1232
	.uleb128 .LVU1247
	.uleb128 .LVU1247
	.uleb128 .LVU1275
	.uleb128 .LVU1275
	.uleb128 .LVU1293
	.uleb128 .LVU1307
	.uleb128 .LVU1328
	.uleb128 .LVU1328
	.uleb128 .LVU1339
	.uleb128 .LVU1339
	.uleb128 .LVU1362
	.uleb128 .LVU1370
	.uleb128 .LVU1397
	.uleb128 .LVU1401
	.uleb128 .LVU1422
	.uleb128 .LVU1422
	.uleb128 .LVU1436
	.uleb128 .LVU1436
	.uleb128 .LVU1458
	.uleb128 .LVU1462
	.uleb128 .LVU1490
	.uleb128 .LVU1497
	.uleb128 .LVU1517
	.uleb128 .LVU1517
	.uleb128 .LVU1530
	.uleb128 .LVU1530
	.uleb128 .LVU1552
	.uleb128 .LVU1560
	.uleb128 .LVU1586
	.uleb128 .LVU1590
	.uleb128 .LVU1609
	.uleb128 .LVU1609
	.uleb128 .LVU1624
	.uleb128 .LVU1624
	.uleb128 .LVU1643
	.uleb128 .LVU1649
	.uleb128 .LVU1676
	.uleb128 .LVU1683
	.uleb128 .LVU1703
	.uleb128 .LVU1703
	.uleb128 .LVU1716
	.uleb128 .LVU1716
	.uleb128 .LVU1738
	.uleb128 .LVU1746
	.uleb128 .LVU1772
	.uleb128 .LVU1776
	.uleb128 .LVU1795
	.uleb128 .LVU1795
	.uleb128 .LVU1810
	.uleb128 .LVU1810
	.uleb128 .LVU1832
	.uleb128 .LVU1836
	.uleb128 .LVU1864
	.uleb128 .LVU1871
	.uleb128 .LVU1891
	.uleb128 .LVU1891
	.uleb128 .LVU1904
	.uleb128 .LVU1904
	.uleb128 .LVU1926
	.uleb128 .LVU1934
	.uleb128 .LVU1960
	.uleb128 .LVU1964
	.uleb128 .LVU1983
	.uleb128 .LVU1983
	.uleb128 .LVU1999
	.uleb128 .LVU1999
	.uleb128 .LVU2020
	.uleb128 .LVU2025
	.uleb128 .LVU2048
	.uleb128 .LVU2053
	.uleb128 .LVU2073
	.uleb128 .LVU2073
	.uleb128 .LVU2116
	.uleb128 .LVU2121
	.uleb128 .LVU2139
	.uleb128 .LVU2151
	.uleb128 .LVU2170
	.uleb128 .LVU2170
	.uleb128 .LVU2185
	.uleb128 .LVU2185
	.uleb128 .LVU2195
	.uleb128 .LVU2195
	.uleb128 .LVU2214
	.uleb128 .LVU2214
	.uleb128 0
.LLST80:
	.4byte	.LVL395-.Ltext0
	.4byte	.LVL416-.Ltext0
	.2byte	0x1
	.byte	0x5a
	.4byte	.LVL416-.Ltext0
	.4byte	.LVL420-.Ltext0
	.2byte	0x5
	.byte	0x91
	.sleb128 -52
	.byte	0x6
	.byte	0x23
	.uleb128 0x14
	.4byte	.LVL420-.Ltext0
	.4byte	.LVL425-.Ltext0
	.2byte	0x1
	.byte	0x5a
	.4byte	.LVL425-.Ltext0
	.4byte	.LVL443-.Ltext0
	.2byte	0x1
	.byte	0x5b
	.4byte	.LVL443-.Ltext0
	.4byte	.LVL444-.Ltext0
	.2byte	0x97
	.byte	0x91
	.sleb128 -52
	.byte	0x6
	.byte	0x6
	.byte	0x91
	.sleb128 -52
	.byte	0x6
	.byte	0x23
	.uleb128 0x10
	.byte	0x6
	.byte	0x27
	.byte	0x91
	.sleb128 -52
	.byte	0x6
	.byte	0x23
	.uleb128 0x20
	.byte	0x6
	.byte	0x27
	.byte	0x35
	.byte	0x14
	.byte	0x14
	.byte	0x24
	.byte	0x17
	.byte	0x1f
	.byte	0x23
	.uleb128 0x20
	.byte	0x25
	.byte	0x21
	.byte	0x91
	.sleb128 -52
	.byte	0x6
	.byte	0x6
	.byte	0x91
	.sleb128 -52
	.byte	0x6
	.byte	0x23
	.uleb128 0x10
	.byte	0x6
	.byte	0x27
	.byte	0x91
	.sleb128 -52
	.byte	0x6
	.byte	0x23
	.uleb128 0x20
	.byte	0x6
	.byte	0x27
	.byte	0x3e
	.byte	0x14
	.byte	0x14
	.byte	0x24
	.byte	0x17
	.byte	0x1f
	.byte	0x23
	.uleb128 0x20
	.byte	0x25
	.byte	0x21
	.byte	0x27
	.byte	0x91
	.sleb128 -52
	.byte	0x6
	.byte	0x23
	.uleb128 0x24
	.byte	0x6
	.byte	0x27
	.byte	0x3b
	.byte	0x14
	.byte	0x14
	.byte	0x24
	.byte	0x17
	.byte	0x1f
	.byte	0x23
	.uleb128 0x20
	.byte	0x25
	.byte	0x21
	.byte	0x72
	.sleb128 0
	.byte	0x27
	.byte	0x71
	.sleb128 0
	.byte	0x6
	.byte	0x1a
	.byte	0x91
	.sleb128 -52
	.byte	0x6
	.byte	0x23
	.uleb128 0xc
	.byte	0x6
	.byte	0x91
	.sleb128 -52
	.byte	0x6
	.byte	0x23
	.uleb128 0x1c
	.byte	0x6
	.byte	0x27
	.byte	0x91
	.sleb128 -52
	.byte	0x6
	.byte	0x23
	.uleb128 0x2c
	.byte	0x6
	.byte	0x27
	.byte	0x35
	.byte	0x14
	.byte	0x14
	.byte	0x24
	.byte	0x17
	.byte	0x1f
	.byte	0x23
	.uleb128 0x20
	.byte	0x25
	.byte	0x21
	.byte	0x27
	.byte	0x91
	.sleb128 -52
	.byte	0x6
	.byte	0x23
	.uleb128 0xc
	.byte	0x6
	.byte	0x91
	.sleb128 -52
	.byte	0x6
	.byte	0x23
	.uleb128 0x1c
	.byte	0x6
	.byte	0x27
	.byte	0x91
	.sleb128 -52
	.byte	0x6
	.byte	0x23
	.uleb128 0x2c
	.byte	0x6
	.byte	0x27
	.byte	0x3e
	.byte	0x14
	.byte	0x14
	.byte	0x24
	.byte	0x17
	.byte	0x1f
	.byte	0x23
	.uleb128 0x20
	.byte	0x25
	.byte	0x21
	.byte	0x27
	.byte	0x91
	.sleb128 -52
	.byte	0x6
	.byte	0x23
	.uleb128 0x10
	.byte	0x6
	.byte	0x27
	.byte	0x9f
	.4byte	.LVL444-.Ltext0
	.4byte	.LVL456-.Ltext0
	.2byte	0x1
	.byte	0x5b
	.4byte	.LVL456-.Ltext0
	.4byte	.LVL462-.Ltext0
	.2byte	0xa1
	.byte	0x91
	.sleb128 -52
	.byte	0x6
	.byte	0x6
	.byte	0x91
	.sleb128 -52
	.byte	0x6
	.byte	0x23
	.uleb128 0x10
	.byte	0x6
	.byte	0x27
	.byte	0x91
	.sleb128 -52
	.byte	0x6
	.byte	0x23
	.uleb128 0x20
	.byte	0x6
	.byte	0x27
	.byte	0x35
	.byte	0x14
	.byte	0x14
	.byte	0x24
	.byte	0x17
	.byte	0x1f
	.byte	0x23
	.uleb128 0x20
	.byte	0x25
	.byte	0x21
	.byte	0x91
	.sleb128 -52
	.byte	0x6
	.byte	0x6
	.byte	0x91
	.sleb128 -52
	.byte	0x6
	.byte	0x23
	.uleb128 0x10
	.byte	0x6
	.byte	0x27
	.byte	0x91
	.sleb128 -52
	.byte	0x6
	.byte	0x23
	.uleb128 0x20
	.byte	0x6
	.byte	0x27
	.byte	0x3e
	.byte	0x14
	.byte	0x14
	.byte	0x24
	.byte	0x17
	.byte	0x1f
	.byte	0x23
	.uleb128 0x20
	.byte	0x25
	.byte	0x21
	.byte	0x27
	.byte	0x91
	.sleb128 -52
	.byte	0x6
	.byte	0x23
	.uleb128 0x24
	.byte	0x6
	.byte	0x27
	.byte	0x3b
	.byte	0x14
	.byte	0x14
	.byte	0x24
	.byte	0x17
	.byte	0x1f
	.byte	0x23
	.uleb128 0x20
	.byte	0x25
	.byte	0x21
	.byte	0x72
	.sleb128 0
	.byte	0x27
	.byte	0x71
	.sleb128 0
	.byte	0x6
	.byte	0x1a
	.byte	0x91
	.sleb128 -52
	.byte	0x6
	.byte	0x23
	.uleb128 0xc
	.byte	0x6
	.byte	0x91
	.sleb128 -52
	.byte	0x6
	.byte	0x23
	.uleb128 0x1c
	.byte	0x6
	.byte	0x27
	.byte	0x91
	.sleb128 -52
	.byte	0x6
	.byte	0x23
	.uleb128 0x2c
	.byte	0x6
	.byte	0x27
	.byte	0x35
	.byte	0x14
	.byte	0x14
	.byte	0x24
	.byte	0x17
	.byte	0x1f
	.byte	0x23
	.uleb128 0x20
	.byte	0x25
	.byte	0x21
	.byte	0x27
	.byte	0x91
	.sleb128 -52
	.byte	0x6
	.byte	0x23
	.uleb128 0xc
	.byte	0x6
	.byte	0x91
	.sleb128 -52
	.byte	0x6
	.byte	0x23
	.uleb128 0x1c
	.byte	0x6
	.byte	0x27
	.byte	0x91
	.sleb128 -52
	.byte	0x6
	.byte	0x23
	.uleb128 0x2c
	.byte	0x6
	.byte	0x27
	.byte	0x3e
	.byte	0x14
	.byte	0x14
	.byte	0x24
	.byte	0x17
	.byte	0x1f
	.byte	0x23
	.uleb128 0x20
	.byte	0x25
	.byte	0x21
	.byte	0x27
	.byte	0x91
	.sleb128 -52
	.byte	0x6
	.byte	0x23
	.uleb128 0x10
	.byte	0x6
	.byte	0x27
	.byte	0x31
	.byte	0x14
	.byte	0x14
	.byte	0x24
	.byte	0x17
	.byte	0x1f
	.byte	0x23
	.uleb128 0x20
	.byte	0x25
	.byte	0x21
	.byte	0x9f
	.4byte	.LVL462-.Ltext0
	.4byte	.LVL464-.Ltext0
	.2byte	0x1
	.byte	0x5b
	.4byte	.LVL464-.Ltext0
	.4byte	.LVL468-.Ltext0
	.2byte	0x1
	.byte	0x55
	.4byte	.LVL468-.Ltext0
	.4byte	.LVL481-.Ltext0
	.2byte	0x1
	.byte	0x59
	.4byte	.LVL481-.Ltext0
	.4byte	.LVL490-.Ltext0
	.2byte	0x1
	.byte	0x5c
	.4byte	.LVL499-.Ltext0
	.4byte	.LVL500-.Ltext0
	.2byte	0x1
	.byte	0x55
	.4byte	.LVL500-.Ltext0
	.4byte	.LVL504-.Ltext0
	.2byte	0x1
	.byte	0x5b
	.4byte	.LVL504-.Ltext0
	.4byte	.LVL517-.Ltext0
	.2byte	0x1
	.byte	0x58
	.4byte	.LVL520-.Ltext0
	.4byte	.LVL531-.Ltext0
	.2byte	0x1
	.byte	0x5b
	.4byte	.LVL534-.Ltext0
	.4byte	.LVL536-.Ltext0
	.2byte	0x1
	.byte	0x5b
	.4byte	.LVL536-.Ltext0
	.4byte	.LVL541-.Ltext0
	.2byte	0x1
	.byte	0x55
	.4byte	.LVL541-.Ltext0
	.4byte	.LVL551-.Ltext0
	.2byte	0x1
	.byte	0x58
	.4byte	.LVL552-.Ltext0
	.4byte	.LVL565-.Ltext0
	.2byte	0x1
	.byte	0x55
	.4byte	.LVL571-.Ltext0
	.4byte	.LVL573-.Ltext0
	.2byte	0x1
	.byte	0x55
	.4byte	.LVL573-.Ltext0
	.4byte	.LVL578-.Ltext0
	.2byte	0x1
	.byte	0x5b
	.4byte	.LVL578-.Ltext0
	.4byte	.LVL590-.Ltext0
	.2byte	0x1
	.byte	0x58
	.4byte	.LVL593-.Ltext0
	.4byte	.LVL604-.Ltext0
	.2byte	0x1
	.byte	0x5b
	.4byte	.LVL607-.Ltext0
	.4byte	.LVL608-.Ltext0
	.2byte	0x1
	.byte	0x5b
	.4byte	.LVL608-.Ltext0
	.4byte	.LVL614-.Ltext0
	.2byte	0x1
	.byte	0x55
	.4byte	.LVL614-.Ltext0
	.4byte	.LVL623-.Ltext0
	.2byte	0x1
	.byte	0x58
	.4byte	.LVL625-.Ltext0
	.4byte	.LVL636-.Ltext0
	.2byte	0x1
	.byte	0x55
	.4byte	.LVL642-.Ltext0
	.4byte	.LVL644-.Ltext0
	.2byte	0x1
	.byte	0x55
	.4byte	.LVL644-.Ltext0
	.4byte	.LVL649-.Ltext0
	.2byte	0x1
	.byte	0x5b
	.4byte	.LVL649-.Ltext0
	.4byte	.LVL661-.Ltext0
	.2byte	0x1
	.byte	0x58
	.4byte	.LVL664-.Ltext0
	.4byte	.LVL675-.Ltext0
	.2byte	0x1
	.byte	0x5b
	.4byte	.LVL678-.Ltext0
	.4byte	.LVL679-.Ltext0
	.2byte	0x1
	.byte	0x5b
	.4byte	.LVL679-.Ltext0
	.4byte	.LVL685-.Ltext0
	.2byte	0x1
	.byte	0x55
	.4byte	.LVL685-.Ltext0
	.4byte	.LVL695-.Ltext0
	.2byte	0x1
	.byte	0x58
	.4byte	.LVL696-.Ltext0
	.4byte	.LVL709-.Ltext0
	.2byte	0x1
	.byte	0x55
	.4byte	.LVL715-.Ltext0
	.4byte	.LVL717-.Ltext0
	.2byte	0x1
	.byte	0x55
	.4byte	.LVL717-.Ltext0
	.4byte	.LVL722-.Ltext0
	.2byte	0x1
	.byte	0x5b
	.4byte	.LVL722-.Ltext0
	.4byte	.LVL734-.Ltext0
	.2byte	0x1
	.byte	0x58
	.4byte	.LVL737-.Ltext0
	.4byte	.LVL748-.Ltext0
	.2byte	0x1
	.byte	0x5b
	.4byte	.LVL751-.Ltext0
	.4byte	.LVL752-.Ltext0
	.2byte	0x1
	.byte	0x5b
	.4byte	.LVL752-.Ltext0
	.4byte	.LVL760-.Ltext0
	.2byte	0x1
	.byte	0x55
	.4byte	.LVL760-.Ltext0
	.4byte	.LVL763-.Ltext0
	.2byte	0x1
	.byte	0x58
	.4byte	.LVL764-.Ltext0
	.4byte	.LVL772-.Ltext0
	.2byte	0x1
	.byte	0x58
	.4byte	.LVL775-.Ltext0
	.4byte	.LVL776-.Ltext0
	.2byte	0x1
	.byte	0x58
	.4byte	.LVL776-.Ltext0
	.4byte	.LVL794-.Ltext0
	.2byte	0x1
	.byte	0x59
	.4byte	.LVL796-.Ltext0
	.4byte	.LVL803-.Ltext0
	.2byte	0x1
	.byte	0x5b
	.4byte	.LVL810-.Ltext0
	.4byte	.LVL811-.Ltext0
	.2byte	0x1
	.byte	0x59
	.4byte	.LVL811-.Ltext0
	.4byte	.LVL820-.Ltext0
	.2byte	0x1
	.byte	0x5a
	.4byte	.LVL820-.Ltext0
	.4byte	.LVL821-.Ltext0
	.2byte	0x1
	.byte	0x57
	.4byte	.LVL821-.Ltext0
	.4byte	.LVL826-.Ltext0
	.2byte	0xd
	.byte	0x77
	.sleb128 0
	.byte	0x31
	.byte	0x14
	.byte	0x14
	.byte	0x24
	.byte	0x17
	.byte	0x1f
	.byte	0x23
	.uleb128 0x20
	.byte	0x25
	.byte	0x21
	.byte	0x9f
	.4byte	.LVL826-.Ltext0
	.4byte	.LFE11-.Ltext0
	.2byte	0x1
	.byte	0x57
	.4byte	0
	.4byte	0
.LVUS81:
	.uleb128 .LVU1076
	.uleb128 .LVU1093
	.uleb128 .LVU1121
	.uleb128 .LVU1137
	.uleb128 .LVU1137
	.uleb128 .LVU1149
	.uleb128 .LVU1149
	.uleb128 .LVU1154
	.uleb128 .LVU1154
	.uleb128 .LVU1160
	.uleb128 .LVU1160
	.uleb128 .LVU1176
	.uleb128 .LVU1176
	.uleb128 .LVU1178
	.uleb128 .LVU1178
	.uleb128 .LVU1183
	.uleb128 .LVU1183
	.uleb128 .LVU1216
	.uleb128 .LVU1216
	.uleb128 .LVU1231
	.uleb128 .LVU1231
	.uleb128 .LVU1251
	.uleb128 .LVU1251
	.uleb128 .LVU1258
	.uleb128 .LVU1276
	.uleb128 .LVU1302
	.uleb128 .LVU1312
	.uleb128 .LVU1327
	.uleb128 .LVU1327
	.uleb128 .LVU1343
	.uleb128 .LVU1343
	.uleb128 .LVU1371
	.uleb128 .LVU1371
	.uleb128 .LVU1406
	.uleb128 .LVU1406
	.uleb128 .LVU1421
	.uleb128 .LVU1421
	.uleb128 .LVU1432
	.uleb128 .LVU1439
	.uleb128 .LVU1452
	.uleb128 .LVU1463
	.uleb128 .LVU1476
	.uleb128 .LVU1476
	.uleb128 .LVU1502
	.uleb128 .LVU1502
	.uleb128 .LVU1516
	.uleb128 .LVU1516
	.uleb128 .LVU1534
	.uleb128 .LVU1534
	.uleb128 .LVU1561
	.uleb128 .LVU1561
	.uleb128 .LVU1595
	.uleb128 .LVU1595
	.uleb128 .LVU1608
	.uleb128 .LVU1608
	.uleb128 .LVU1619
	.uleb128 .LVU1627
	.uleb128 .LVU1639
	.uleb128 .LVU1650
	.uleb128 .LVU1664
	.uleb128 .LVU1664
	.uleb128 .LVU1688
	.uleb128 .LVU1688
	.uleb128 .LVU1702
	.uleb128 .LVU1702
	.uleb128 .LVU1720
	.uleb128 .LVU1720
	.uleb128 .LVU1747
	.uleb128 .LVU1747
	.uleb128 .LVU1781
	.uleb128 .LVU1781
	.uleb128 .LVU1794
	.uleb128 .LVU1794
	.uleb128 .LVU1805
	.uleb128 .LVU1813
	.uleb128 .LVU1826
	.uleb128 .LVU1837
	.uleb128 .LVU1850
	.uleb128 .LVU1850
	.uleb128 .LVU1876
	.uleb128 .LVU1876
	.uleb128 .LVU1890
	.uleb128 .LVU1890
	.uleb128 .LVU1908
	.uleb128 .LVU1908
	.uleb128 .LVU1935
	.uleb128 .LVU1935
	.uleb128 .LVU1969
	.uleb128 .LVU1969
	.uleb128 .LVU1982
	.uleb128 .LVU1982
	.uleb128 .LVU1993
	.uleb128 .LVU2002
	.uleb128 .LVU2008
	.uleb128 .LVU2026
	.uleb128 .LVU2058
	.uleb128 .LVU2058
	.uleb128 .LVU2072
	.uleb128 .LVU2072
	.uleb128 .LVU2086
	.uleb128 .LVU2090
	.uleb128 .LVU2096
	.uleb128 .LVU2156
	.uleb128 .LVU2169
	.uleb128 .LVU2169
	.uleb128 .LVU2181
	.uleb128 .LVU2188
	.uleb128 .LVU2196
	.uleb128 .LVU2196
	.uleb128 .LVU2215
	.uleb128 .LVU2215
	.uleb128 0
.LLST81:
	.4byte	.LVL395-.Ltext0
	.4byte	.LVL405-.Ltext0
	.2byte	0x2
	.byte	0x91
	.sleb128 -24
	.4byte	.LVL421-.Ltext0
	.4byte	.LVL425-.Ltext0
	.2byte	0x1
	.byte	0x5f
	.4byte	.LVL425-.Ltext0
	.4byte	.LVL429-.Ltext0
	.2byte	0x1
	.byte	0x5a
	.4byte	.LVL429-.Ltext0
	.4byte	.LVL431-.Ltext0
	.2byte	0x41
	.byte	0x91
	.sleb128 -52
	.byte	0x6
	.byte	0x6
	.byte	0x91
	.sleb128 -52
	.byte	0x6
	.byte	0x23
	.uleb128 0x10
	.byte	0x6
	.byte	0x27
	.byte	0x91
	.sleb128 -52
	.byte	0x6
	.byte	0x23
	.uleb128 0x20
	.byte	0x6
	.byte	0x27
	.byte	0x35
	.byte	0x14
	.byte	0x14
	.byte	0x24
	.byte	0x17
	.byte	0x1f
	.byte	0x23
	.uleb128 0x20
	.byte	0x25
	.byte	0x21
	.byte	0x91
	.sleb128 -52
	.byte	0x6
	.byte	0x6
	.byte	0x91
	.sleb128 -52
	.byte	0x6
	.byte	0x23
	.uleb128 0x10
	.byte	0x6
	.byte	0x27
	.byte	0x91
	.sleb128 -52
	.byte	0x6
	.byte	0x23
	.uleb128 0x20
	.byte	0x6
	.byte	0x27
	.byte	0x3e
	.byte	0x14
	.byte	0x14
	.byte	0x24
	.byte	0x17
	.byte	0x1f
	.byte	0x23
	.uleb128 0x20
	.byte	0x25
	.byte	0x21
	.byte	0x27
	.byte	0x91
	.sleb128 -52
	.byte	0x6
	.byte	0x23
	.uleb128 0x14
	.byte	0x6
	.byte	0x27
	.byte	0x9f
	.4byte	.LVL431-.Ltext0
	.4byte	.LVL435-.Ltext0
	.2byte	0x1
	.byte	0x5d
	.4byte	.LVL435-.Ltext0
	.4byte	.LVL444-.Ltext0
	.2byte	0x4c
	.byte	0x72
	.sleb128 0
	.byte	0x75
	.sleb128 0
	.byte	0x27
	.byte	0x91
	.sleb128 -76
	.byte	0x6
	.byte	0x1a
	.byte	0x91
	.sleb128 -52
	.byte	0x6
	.byte	0x6
	.byte	0x91
	.sleb128 -52
	.byte	0x6
	.byte	0x23
	.uleb128 0x10
	.byte	0x6
	.byte	0x27
	.byte	0x91
	.sleb128 -52
	.byte	0x6
	.byte	0x23
	.uleb128 0x20
	.byte	0x6
	.byte	0x27
	.byte	0x35
	.byte	0x14
	.byte	0x14
	.byte	0x24
	.byte	0x17
	.byte	0x1f
	.byte	0x23
	.uleb128 0x20
	.byte	0x25
	.byte	0x21
	.byte	0x27
	.byte	0x91
	.sleb128 -52
	.byte	0x6
	.byte	0x6
	.byte	0x91
	.sleb128 -52
	.byte	0x6
	.byte	0x23
	.uleb128 0x10
	.byte	0x6
	.byte	0x27
	.byte	0x91
	.sleb128 -52
	.byte	0x6
	.byte	0x23
	.uleb128 0x20
	.byte	0x6
	.byte	0x27
	.byte	0x3e
	.byte	0x14
	.byte	0x14
	.byte	0x24
	.byte	0x17
	.byte	0x1f
	.byte	0x23
	.uleb128 0x20
	.byte	0x25
	.byte	0x21
	.byte	0x27
	.byte	0x91
	.sleb128 -52
	.byte	0x6
	.byte	0x23
	.uleb128 0x14
	.byte	0x6
	.byte	0x27
	.byte	0x9f
	.4byte	.LVL444-.Ltext0
	.4byte	.LVL444-.Ltext0
	.2byte	0x98
	.byte	0x91
	.sleb128 -52
	.byte	0x6
	.byte	0x23
	.uleb128 0x4
	.byte	0x6
	.byte	0x91
	.sleb128 -52
	.byte	0x6
	.byte	0x23
	.uleb128 0x14
	.byte	0x6
	.byte	0x27
	.byte	0x91
	.sleb128 -52
	.byte	0x6
	.byte	0x23
	.uleb128 0x24
	.byte	0x6
	.byte	0x27
	.byte	0x35
	.byte	0x14
	.byte	0x14
	.byte	0x24
	.byte	0x17
	.byte	0x1f
	.byte	0x23
	.uleb128 0x20
	.byte	0x25
	.byte	0x21
	.byte	0x91
	.sleb128 -52
	.byte	0x6
	.byte	0x23
	.uleb128 0x4
	.byte	0x6
	.byte	0x91
	.sleb128 -52
	.byte	0x6
	.byte	0x23
	.uleb128 0x14
	.byte	0x6
	.byte	0x27
	.byte	0x91
	.sleb128 -52
	.byte	0x6
	.byte	0x23
	.uleb128 0x24
	.byte	0x6
	.byte	0x27
	.byte	0x3e
	.byte	0x14
	.byte	0x14
	.byte	0x24
	.byte	0x17
	.byte	0x1f
	.byte	0x23
	.uleb128 0x20
	.byte	0x25
	.byte	0x21
	.byte	0x27
	.byte	0x91
	.sleb128 -52
	.byte	0x6
	.byte	0x23
	.uleb128 0x28
	.byte	0x6
	.byte	0x27
	.byte	0x3b
	.byte	0x14
	.byte	0x14
	.byte	0x24
	.byte	0x17
	.byte	0x1f
	.byte	0x23
	.uleb128 0x20
	.byte	0x25
	.byte	0x21
	.byte	0x72
	.sleb128 0
	.byte	0x27
	.byte	0x91
	.sleb128 -76
	.byte	0x6
	.byte	0x1a
	.byte	0x91
	.sleb128 -52
	.byte	0x6
	.byte	0x6
	.byte	0x91
	.sleb128 -52
	.byte	0x6
	.byte	0x23
	.uleb128 0x10
	.byte	0x6
	.byte	0x27
	.byte	0x91
	.sleb128 -52
	.byte	0x6
	.byte	0x23
	.uleb128 0x20
	.byte	0x6
	.byte	0x27
	.byte	0x35
	.byte	0x14
	.byte	0x14
	.byte	0x24
	.byte	0x17
	.byte	0x1f
	.byte	0x23
	.uleb128 0x20
	.byte	0x25
	.byte	0x21
	.byte	0x27
	.byte	0x91
	.sleb128 -52
	.byte	0x6
	.byte	0x6
	.byte	0x91
	.sleb128 -52
	.byte	0x6
	.byte	0x23
	.uleb128 0x10
	.byte	0x6
	.byte	0x27
	.byte	0x91
	.sleb128 -52
	.byte	0x6
	.byte	0x23
	.uleb128 0x20
	.byte	0x6
	.byte	0x27
	.byte	0x3e
	.byte	0x14
	.byte	0x14
	.byte	0x24
	.byte	0x17
	.byte	0x1f
	.byte	0x23
	.uleb128 0x20
	.byte	0x25
	.byte	0x21
	.byte	0x27
	.byte	0x91
	.sleb128 -52
	.byte	0x6
	.byte	0x23
	.uleb128 0x14
	.byte	0x6
	.byte	0x27
	.byte	0x9f
	.4byte	.LVL444-.Ltext0
	.4byte	.LVL446-.Ltext0
	.2byte	0x1
	.byte	0x59
	.4byte	.LVL446-.Ltext0
	.4byte	.LVL462-.Ltext0
	.2byte	0x2
	.byte	0x91
	.sleb128 -60
	.4byte	.LVL462-.Ltext0
	.4byte	.LVL464-.Ltext0
	.2byte	0x1
	.byte	0x5d
	.4byte	.LVL464-.Ltext0
	.4byte	.LVL470-.Ltext0
	.2byte	0x1
	.byte	0x5b
	.4byte	.LVL470-.Ltext0
	.4byte	.LVL473-.Ltext0
	.2byte	0x1
	.byte	0x58
	.4byte	.LVL481-.Ltext0
	.4byte	.LVL496-.Ltext0
	.2byte	0x1
	.byte	0x5e
	.4byte	.LVL499-.Ltext0
	.4byte	.LVL500-.Ltext0
	.2byte	0x1
	.byte	0x5e
	.4byte	.LVL500-.Ltext0
	.4byte	.LVL506-.Ltext0
	.2byte	0x1
	.byte	0x55
	.4byte	.LVL506-.Ltext0
	.4byte	.LVL520-.Ltext0
	.2byte	0x1
	.byte	0x5f
	.4byte	.LVL520-.Ltext0
	.4byte	.LVL534-.Ltext0
	.2byte	0x2
	.byte	0x91
	.sleb128 -60
	.4byte	.LVL534-.Ltext0
	.4byte	.LVL536-.Ltext0
	.2byte	0x1
	.byte	0x5f
	.4byte	.LVL536-.Ltext0
	.4byte	.LVL540-.Ltext0
	.2byte	0x1
	.byte	0x5b
	.4byte	.LVL541-.Ltext0
	.4byte	.LVL548-.Ltext0
	.2byte	0x1
	.byte	0x5e
	.4byte	.LVL552-.Ltext0
	.4byte	.LVL555-.Ltext0
	.2byte	0x1
	.byte	0x58
	.4byte	.LVL555-.Ltext0
	.4byte	.LVL571-.Ltext0
	.2byte	0x2
	.byte	0x91
	.sleb128 -60
	.4byte	.LVL571-.Ltext0
	.4byte	.LVL573-.Ltext0
	.2byte	0x1
	.byte	0x5e
	.4byte	.LVL573-.Ltext0
	.4byte	.LVL580-.Ltext0
	.2byte	0x1
	.byte	0x55
	.4byte	.LVL580-.Ltext0
	.4byte	.LVL593-.Ltext0
	.2byte	0x1
	.byte	0x5f
	.4byte	.LVL593-.Ltext0
	.4byte	.LVL607-.Ltext0
	.2byte	0x2
	.byte	0x91
	.sleb128 -60
	.4byte	.LVL607-.Ltext0
	.4byte	.LVL608-.Ltext0
	.2byte	0x1
	.byte	0x5f
	.4byte	.LVL608-.Ltext0
	.4byte	.LVL612-.Ltext0
	.2byte	0x1
	.byte	0x5b
	.4byte	.LVL614-.Ltext0
	.4byte	.LVL620-.Ltext0
	.2byte	0x1
	.byte	0x5e
	.4byte	.LVL625-.Ltext0
	.4byte	.LVL628-.Ltext0
	.2byte	0x1
	.byte	0x58
	.4byte	.LVL628-.Ltext0
	.4byte	.LVL642-.Ltext0
	.2byte	0x2
	.byte	0x91
	.sleb128 -60
	.4byte	.LVL642-.Ltext0
	.4byte	.LVL644-.Ltext0
	.2byte	0x1
	.byte	0x5e
	.4byte	.LVL644-.Ltext0
	.4byte	.LVL651-.Ltext0
	.2byte	0x1
	.byte	0x55
	.4byte	.LVL651-.Ltext0
	.4byte	.LVL664-.Ltext0
	.2byte	0x1
	.byte	0x5f
	.4byte	.LVL664-.Ltext0
	.4byte	.LVL678-.Ltext0
	.2byte	0x2
	.byte	0x91
	.sleb128 -60
	.4byte	.LVL678-.Ltext0
	.4byte	.LVL679-.Ltext0
	.2byte	0x1
	.byte	0x5f
	.4byte	.LVL679-.Ltext0
	.4byte	.LVL683-.Ltext0
	.2byte	0x1
	.byte	0x5b
	.4byte	.LVL685-.Ltext0
	.4byte	.LVL692-.Ltext0
	.2byte	0x1
	.byte	0x5e
	.4byte	.LVL696-.Ltext0
	.4byte	.LVL699-.Ltext0
	.2byte	0x1
	.byte	0x58
	.4byte	.LVL699-.Ltext0
	.4byte	.LVL715-.Ltext0
	.2byte	0x2
	.byte	0x91
	.sleb128 -60
	.4byte	.LVL715-.Ltext0
	.4byte	.LVL717-.Ltext0
	.2byte	0x1
	.byte	0x5e
	.4byte	.LVL717-.Ltext0
	.4byte	.LVL724-.Ltext0
	.2byte	0x1
	.byte	0x55
	.4byte	.LVL724-.Ltext0
	.4byte	.LVL737-.Ltext0
	.2byte	0x1
	.byte	0x5f
	.4byte	.LVL737-.Ltext0
	.4byte	.LVL751-.Ltext0
	.2byte	0x2
	.byte	0x91
	.sleb128 -60
	.4byte	.LVL751-.Ltext0
	.4byte	.LVL752-.Ltext0
	.2byte	0x1
	.byte	0x5f
	.4byte	.LVL752-.Ltext0
	.4byte	.LVL756-.Ltext0
	.2byte	0x1
	.byte	0x5b
	.4byte	.LVL760-.Ltext0
	.4byte	.LVL761-.Ltext0
	.2byte	0x1
	.byte	0x5e
	.4byte	.LVL764-.Ltext0
	.4byte	.LVL775-.Ltext0
	.2byte	0x2
	.byte	0x91
	.sleb128 -60
	.4byte	.LVL775-.Ltext0
	.4byte	.LVL776-.Ltext0
	.2byte	0x1
	.byte	0x54
	.4byte	.LVL776-.Ltext0
	.4byte	.LVL782-.Ltext0
	.2byte	0x1
	.byte	0x58
	.4byte	.LVL783-.Ltext0
	.4byte	.LVL787-.Ltext0
	.2byte	0x1
	.byte	0x58
	.4byte	.LVL811-.Ltext0
	.4byte	.LVL811-.Ltext0
	.2byte	0x2
	.byte	0x91
	.sleb128 -48
	.4byte	.LVL811-.Ltext0
	.4byte	.LVL818-.Ltext0
	.2byte	0x1
	.byte	0x59
	.4byte	.LVL820-.Ltext0
	.4byte	.LVL821-.Ltext0
	.2byte	0x1
	.byte	0x56
	.4byte	.LVL821-.Ltext0
	.4byte	.LVL827-.Ltext0
	.2byte	0xd
	.byte	0x76
	.sleb128 0
	.byte	0x31
	.byte	0x14
	.byte	0x14
	.byte	0x24
	.byte	0x17
	.byte	0x1f
	.byte	0x23
	.uleb128 0x20
	.byte	0x25
	.byte	0x21
	.byte	0x9f
	.4byte	.LVL827-.Ltext0
	.4byte	.LFE11-.Ltext0
	.2byte	0x1
	.byte	0x56
	.4byte	0
	.4byte	0
.LVUS82:
	.uleb128 .LVU1076
	.uleb128 .LVU1101
	.uleb128 .LVU1101
	.uleb128 .LVU1128
	.uleb128 .LVU1128
	.uleb128 .LVU1136
	.uleb128 .LVU1136
	.uleb128 .LVU1167
	.uleb128 .LVU1167
	.uleb128 .LVU1173
	.uleb128 .LVU1173
	.uleb128 .LVU1179
	.uleb128 .LVU1179
	.uleb128 .LVU1197
	.uleb128 .LVU1197
	.uleb128 .LVU1222
	.uleb128 .LVU1222
	.uleb128 .LVU1230
	.uleb128 .LVU1230
	.uleb128 .LVU1259
	.uleb128 .LVU1277
	.uleb128 .LVU1292
	.uleb128 .LVU1318
	.uleb128 .LVU1326
	.uleb128 .LVU1326
	.uleb128 .LVU1355
	.uleb128 .LVU1372
	.uleb128 .LVU1388
	.uleb128 .LVU1412
	.uleb128 .LVU1420
	.uleb128 .LVU1420
	.uleb128 .LVU1453
	.uleb128 .LVU1464
	.uleb128 .LVU1479
	.uleb128 .LVU1507
	.uleb128 .LVU1515
	.uleb128 .LVU1515
	.uleb128 .LVU1545
	.uleb128 .LVU1562
	.uleb128 .LVU1578
	.uleb128 .LVU1599
	.uleb128 .LVU1607
	.uleb128 .LVU1607
	.uleb128 .LVU1641
	.uleb128 .LVU1651
	.uleb128 .LVU1666
	.uleb128 .LVU1693
	.uleb128 .LVU1701
	.uleb128 .LVU1701
	.uleb128 .LVU1731
	.uleb128 .LVU1748
	.uleb128 .LVU1764
	.uleb128 .LVU1785
	.uleb128 .LVU1793
	.uleb128 .LVU1793
	.uleb128 .LVU1827
	.uleb128 .LVU1838
	.uleb128 .LVU1853
	.uleb128 .LVU1881
	.uleb128 .LVU1889
	.uleb128 .LVU1889
	.uleb128 .LVU1919
	.uleb128 .LVU1936
	.uleb128 .LVU1952
	.uleb128 .LVU1973
	.uleb128 .LVU1981
	.uleb128 .LVU1981
	.uleb128 .LVU1995
	.uleb128 .LVU2005
	.uleb128 .LVU2009
	.uleb128 .LVU2063
	.uleb128 .LVU2071
	.uleb128 .LVU2071
	.uleb128 .LVU2102
	.uleb128 .LVU2123
	.uleb128 .LVU2137
	.uleb128 .LVU2160
	.uleb128 .LVU2168
	.uleb128 .LVU2168
	.uleb128 .LVU2191
	.uleb128 .LVU2191
	.uleb128 .LVU2197
	.uleb128 .LVU2197
	.uleb128 .LVU2216
	.uleb128 .LVU2216
	.uleb128 0
.LLST82:
	.4byte	.LVL395-.Ltext0
	.4byte	.LVL411-.Ltext0
	.2byte	0x1
	.byte	0x5d
	.4byte	.LVL411-.Ltext0
	.4byte	.LVL425-.Ltext0
	.2byte	0x5
	.byte	0x91
	.sleb128 -52
	.byte	0x6
	.byte	0x23
	.uleb128 0x1c
	.4byte	.LVL425-.Ltext0
	.4byte	.LVL425-.Ltext0
	.2byte	0x2
	.byte	0x91
	.sleb128 -48
	.4byte	.LVL425-.Ltext0
	.4byte	.LVL439-.Ltext0
	.2byte	0x1
	.byte	0x5f
	.4byte	.LVL439-.Ltext0
	.4byte	.LVL442-.Ltext0
	.2byte	0x50
	.byte	0x72
	.sleb128 0
	.byte	0x74
	.sleb128 0
	.byte	0x27
	.byte	0x91
	.sleb128 -72
	.byte	0x6
	.byte	0x1a
	.byte	0x91
	.sleb128 -52
	.byte	0x6
	.byte	0x23
	.uleb128 0x4
	.byte	0x6
	.byte	0x91
	.sleb128 -52
	.byte	0x6
	.byte	0x23
	.uleb128 0x14
	.byte	0x6
	.byte	0x27
	.byte	0x91
	.sleb128 -52
	.byte	0x6
	.byte	0x23
	.uleb128 0x24
	.byte	0x6
	.byte	0x27
	.byte	0x35
	.byte	0x14
	.byte	0x14
	.byte	0x24
	.byte	0x17
	.byte	0x1f
	.byte	0x23
	.uleb128 0x20
	.byte	0x25
	.byte	0x21
	.byte	0x27
	.byte	0x91
	.sleb128 -52
	.byte	0x6
	.byte	0x23
	.uleb128 0x4
	.byte	0x6
	.byte	0x91
	.sleb128 -52
	.byte	0x6
	.byte	0x23
	.uleb128 0x14
	.byte	0x6
	.byte	0x27
	.byte	0x91
	.sleb128 -52
	.byte	0x6
	.byte	0x23
	.uleb128 0x24
	.byte	0x6
	.byte	0x27
	.byte	0x3e
	.byte	0x14
	.byte	0x14
	.byte	0x24
	.byte	0x17
	.byte	0x1f
	.byte	0x23
	.uleb128 0x20
	.byte	0x25
	.byte	0x21
	.byte	0x27
	.byte	0x91
	.sleb128 -52
	.byte	0x6
	.byte	0x23
	.uleb128 0x18
	.byte	0x6
	.byte	0x27
	.byte	0x9f
	.4byte	.LVL442-.Ltext0
	.4byte	.LVL444-.Ltext0
	.2byte	0x9c
	.byte	0x91
	.sleb128 -52
	.byte	0x6
	.byte	0x23
	.uleb128 0x8
	.byte	0x6
	.byte	0x91
	.sleb128 -52
	.byte	0x6
	.byte	0x23
	.uleb128 0x18
	.byte	0x6
	.byte	0x27
	.byte	0x91
	.sleb128 -52
	.byte	0x6
	.byte	0x23
	.uleb128 0x28
	.byte	0x6
	.byte	0x27
	.byte	0x35
	.byte	0x14
	.byte	0x14
	.byte	0x24
	.byte	0x17
	.byte	0x1f
	.byte	0x23
	.uleb128 0x20
	.byte	0x25
	.byte	0x21
	.byte	0x91
	.sleb128 -52
	.byte	0x6
	.byte	0x23
	.uleb128 0x8
	.byte	0x6
	.byte	0x91
	.sleb128 -52
	.byte	0x6
	.byte	0x23
	.uleb128 0x18
	.byte	0x6
	.byte	0x27
	.byte	0x91
	.sleb128 -52
	.byte	0x6
	.byte	0x23
	.uleb128 0x28
	.byte	0x6
	.byte	0x27
	.byte	0x3e
	.byte	0x14
	.byte	0x14
	.byte	0x24
	.byte	0x17
	.byte	0x1f
	.byte	0x23
	.uleb128 0x20
	.byte	0x25
	.byte	0x21
	.byte	0x27
	.byte	0x91
	.sleb128 -52
	.byte	0x6
	.byte	0x23
	.uleb128 0x2c
	.byte	0x6
	.byte	0x27
	.byte	0x3b
	.byte	0x14
	.byte	0x14
	.byte	0x24
	.byte	0x17
	.byte	0x1f
	.byte	0x23
	.uleb128 0x20
	.byte	0x25
	.byte	0x21
	.byte	0x72
	.sleb128 0
	.byte	0x27
	.byte	0x91
	.sleb128 -72
	.byte	0x6
	.byte	0x1a
	.byte	0x91
	.sleb128 -52
	.byte	0x6
	.byte	0x23
	.uleb128 0x4
	.byte	0x6
	.byte	0x91
	.sleb128 -52
	.byte	0x6
	.byte	0x23
	.uleb128 0x14
	.byte	0x6
	.byte	0x27
	.byte	0x91
	.sleb128 -52
	.byte	0x6
	.byte	0x23
	.uleb128 0x24
	.byte	0x6
	.byte	0x27
	.byte	0x35
	.byte	0x14
	.byte	0x14
	.byte	0x24
	.byte	0x17
	.byte	0x1f
	.byte	0x23
	.uleb128 0x20
	.byte	0x25
	.byte	0x21
	.byte	0x27
	.byte	0x91
	.sleb128 -52
	.byte	0x6
	.byte	0x23
	.uleb128 0x4
	.byte	0x6
	.byte	0x91
	.sleb128 -52
	.byte	0x6
	.byte	0x23
	.uleb128 0x14
	.byte	0x6
	.byte	0x27
	.byte	0x91
	.sleb128 -52
	.byte	0x6
	.byte	0x23
	.uleb128 0x24
	.byte	0x6
	.byte	0x27
	.byte	0x3e
	.byte	0x14
	.byte	0x14
	.byte	0x24
	.byte	0x17
	.byte	0x1f
	.byte	0x23
	.uleb128 0x20
	.byte	0x25
	.byte	0x21
	.byte	0x27
	.byte	0x91
	.sleb128 -52
	.byte	0x6
	.byte	0x23
	.uleb128 0x18
	.byte	0x6
	.byte	0x27
	.byte	0x9f
	.4byte	.LVL444-.Ltext0
	.4byte	.LVL452-.Ltext0
	.2byte	0x1
	.byte	0x5c
	.4byte	.LVL452-.Ltext0
	.4byte	.LVL464-.Ltext0
	.2byte	0xa6
	.byte	0x91
	.sleb128 -52
	.byte	0x6
	.byte	0x23
	.uleb128 0x8
	.byte	0x6
	.byte	0x91
	.sleb128 -52
	.byte	0x6
	.byte	0x23
	.uleb128 0x18
	.byte	0x6
	.byte	0x27
	.byte	0x91
	.sleb128 -52
	.byte	0x6
	.byte	0x23
	.uleb128 0x28
	.byte	0x6
	.byte	0x27
	.byte	0x35
	.byte	0x14
	.byte	0x14
	.byte	0x24
	.byte	0x17
	.byte	0x1f
	.byte	0x23
	.uleb128 0x20
	.byte	0x25
	.byte	0x21
	.byte	0x91
	.sleb128 -52
	.byte	0x6
	.byte	0x23
	.uleb128 0x8
	.byte	0x6
	.byte	0x91
	.sleb128 -52
	.byte	0x6
	.byte	0x23
	.uleb128 0x18
	.byte	0x6
	.byte	0x27
	.byte	0x91
	.sleb128 -52
	.byte	0x6
	.byte	0x23
	.uleb128 0x28
	.byte	0x6
	.byte	0x27
	.byte	0x3e
	.byte	0x14
	.byte	0x14
	.byte	0x24
	.byte	0x17
	.byte	0x1f
	.byte	0x23
	.uleb128 0x20
	.byte	0x25
	.byte	0x21
	.byte	0x27
	.byte	0x91
	.sleb128 -52
	.byte	0x6
	.byte	0x23
	.uleb128 0x2c
	.byte	0x6
	.byte	0x27
	.byte	0x3b
	.byte	0x14
	.byte	0x14
	.byte	0x24
	.byte	0x17
	.byte	0x1f
	.byte	0x23
	.uleb128 0x20
	.byte	0x25
	.byte	0x21
	.byte	0x72
	.sleb128 0
	.byte	0x27
	.byte	0x91
	.sleb128 -72
	.byte	0x6
	.byte	0x1a
	.byte	0x91
	.sleb128 -52
	.byte	0x6
	.byte	0x23
	.uleb128 0x4
	.byte	0x6
	.byte	0x91
	.sleb128 -52
	.byte	0x6
	.byte	0x23
	.uleb128 0x14
	.byte	0x6
	.byte	0x27
	.byte	0x91
	.sleb128 -52
	.byte	0x6
	.byte	0x23
	.uleb128 0x24
	.byte	0x6
	.byte	0x27
	.byte	0x35
	.byte	0x14
	.byte	0x14
	.byte	0x24
	.byte	0x17
	.byte	0x1f
	.byte	0x23
	.uleb128 0x20
	.byte	0x25
	.byte	0x21
	.byte	0x27
	.byte	0x91
	.sleb128 -52
	.byte	0x6
	.byte	0x23
	.uleb128 0x4
	.byte	0x6
	.byte	0x91
	.sleb128 -52
	.byte	0x6
	.byte	0x23
	.uleb128 0x14
	.byte	0x6
	.byte	0x27
	.byte	0x91
	.sleb128 -52
	.byte	0x6
	.byte	0x23
	.uleb128 0x24
	.byte	0x6
	.byte	0x27
	.byte	0x3e
	.byte	0x14
	.byte	0x14
	.byte	0x24
	.byte	0x17
	.byte	0x1f
	.byte	0x23
	.uleb128 0x20
	.byte	0x25
	.byte	0x21
	.byte	0x27
	.byte	0x91
	.sleb128 -52
	.byte	0x6
	.byte	0x23
	.uleb128 0x18
	.byte	0x6
	.byte	0x27
	.byte	0x31
	.byte	0x14
	.byte	0x14
	.byte	0x24
	.byte	0x17
	.byte	0x1f
	.byte	0x23
	.uleb128 0x20
	.byte	0x25
	.byte	0x21
	.byte	0x9f
	.4byte	.LVL464-.Ltext0
	.4byte	.LVL464-.Ltext0
	.2byte	0x2
	.byte	0x91
	.sleb128 -56
	.4byte	.LVL464-.Ltext0
	.4byte	.LVL474-.Ltext0
	.2byte	0x1
	.byte	0x5d
	.4byte	.LVL481-.Ltext0
	.4byte	.LVL489-.Ltext0
	.2byte	0x2
	.byte	0x91
	.sleb128 -60
	.4byte	.LVL500-.Ltext0
	.4byte	.LVL500-.Ltext0
	.2byte	0x2
	.byte	0x91
	.sleb128 -60
	.4byte	.LVL500-.Ltext0
	.4byte	.LVL514-.Ltext0
	.2byte	0x1
	.byte	0x5e
	.4byte	.LVL520-.Ltext0
	.4byte	.LVL526-.Ltext0
	.2byte	0x1
	.byte	0x5c
	.4byte	.LVL536-.Ltext0
	.4byte	.LVL536-.Ltext0
	.2byte	0x2
	.byte	0x91
	.sleb128 -56
	.4byte	.LVL536-.Ltext0
	.4byte	.LVL549-.Ltext0
	.2byte	0x1
	.byte	0x5f
	.4byte	.LVL552-.Ltext0
	.4byte	.LVL558-.Ltext0
	.2byte	0x1
	.byte	0x5a
	.4byte	.LVL573-.Ltext0
	.4byte	.LVL573-.Ltext0
	.2byte	0x2
	.byte	0x91
	.sleb128 -56
	.4byte	.LVL573-.Ltext0
	.4byte	.LVL587-.Ltext0
	.2byte	0x1
	.byte	0x5e
	.4byte	.LVL593-.Ltext0
	.4byte	.LVL599-.Ltext0
	.2byte	0x1
	.byte	0x5c
	.4byte	.LVL608-.Ltext0
	.4byte	.LVL608-.Ltext0
	.2byte	0x2
	.byte	0x91
	.sleb128 -56
	.4byte	.LVL608-.Ltext0
	.4byte	.LVL622-.Ltext0
	.2byte	0x1
	.byte	0x5f
	.4byte	.LVL625-.Ltext0
	.4byte	.LVL630-.Ltext0
	.2byte	0x1
	.byte	0x5a
	.4byte	.LVL644-.Ltext0
	.4byte	.LVL644-.Ltext0
	.2byte	0x2
	.byte	0x91
	.sleb128 -56
	.4byte	.LVL644-.Ltext0
	.4byte	.LVL658-.Ltext0
	.2byte	0x1
	.byte	0x5e
	.4byte	.LVL664-.Ltext0
	.4byte	.LVL670-.Ltext0
	.2byte	0x1
	.byte	0x5c
	.4byte	.LVL679-.Ltext0
	.4byte	.LVL679-.Ltext0
	.2byte	0x2
	.byte	0x91
	.sleb128 -56
	.4byte	.LVL679-.Ltext0
	.4byte	.LVL693-.Ltext0
	.2byte	0x1
	.byte	0x5f
	.4byte	.LVL696-.Ltext0
	.4byte	.LVL702-.Ltext0
	.2byte	0x1
	.byte	0x5a
	.4byte	.LVL717-.Ltext0
	.4byte	.LVL717-.Ltext0
	.2byte	0x2
	.byte	0x91
	.sleb128 -56
	.4byte	.LVL717-.Ltext0
	.4byte	.LVL731-.Ltext0
	.2byte	0x1
	.byte	0x5e
	.4byte	.LVL737-.Ltext0
	.4byte	.LVL743-.Ltext0
	.2byte	0x1
	.byte	0x5c
	.4byte	.LVL752-.Ltext0
	.4byte	.LVL752-.Ltext0
	.2byte	0x2
	.byte	0x91
	.sleb128 -56
	.4byte	.LVL752-.Ltext0
	.4byte	.LVL758-.Ltext0
	.2byte	0x1
	.byte	0x5f
	.4byte	.LVL760-.Ltext0
	.4byte	.LVL762-.Ltext0
	.2byte	0x1
	.byte	0x5f
	.4byte	.LVL776-.Ltext0
	.4byte	.LVL776-.Ltext0
	.2byte	0x2
	.byte	0x91
	.sleb128 -56
	.4byte	.LVL776-.Ltext0
	.4byte	.LVL791-.Ltext0
	.2byte	0x1
	.byte	0x54
	.4byte	.LVL796-.Ltext0
	.4byte	.LVL801-.Ltext0
	.2byte	0x1
	.byte	0x5c
	.4byte	.LVL811-.Ltext0
	.4byte	.LVL811-.Ltext0
	.2byte	0x2
	.byte	0x91
	.sleb128 -44
	.4byte	.LVL811-.Ltext0
	.4byte	.LVL821-.Ltext0
	.2byte	0x2
	.byte	0x91
	.sleb128 -48
	.4byte	.LVL821-.Ltext0
	.4byte	.LVL821-.Ltext0
	.2byte	0x1
	.byte	0x55
	.4byte	.LVL821-.Ltext0
	.4byte	.LVL828-.Ltext0
	.2byte	0xd
	.byte	0x75
	.sleb128 0
	.byte	0x31
	.byte	0x14
	.byte	0x14
	.byte	0x24
	.byte	0x17
	.byte	0x1f
	.byte	0x23
	.uleb128 0x20
	.byte	0x25
	.byte	0x21
	.byte	0x9f
	.4byte	.LVL828-.Ltext0
	.4byte	.LFE11-.Ltext0
	.2byte	0x1
	.byte	0x55
	.4byte	0
	.4byte	0
.LVUS83:
	.uleb128 .LVU1087
	.uleb128 .LVU1100
	.uleb128 .LVU1100
	.uleb128 .LVU1106
	.uleb128 .LVU1106
	.uleb128 .LVU1109
	.uleb128 .LVU1109
	.uleb128 .LVU1131
	.uleb128 .LVU1131
	.uleb128 .LVU1147
	.uleb128 .LVU1147
	.uleb128 .LVU1164
	.uleb128 .LVU1164
	.uleb128 .LVU1166
	.uleb128 .LVU1166
	.uleb128 .LVU1170
	.uleb128 .LVU1170
	.uleb128 .LVU1182
	.uleb128 .LVU1182
	.uleb128 .LVU1189
	.uleb128 .LVU1189
	.uleb128 .LVU1192
	.uleb128 .LVU1192
	.uleb128 .LVU1199
	.uleb128 .LVU1225
	.uleb128 .LVU1245
	.uleb128 .LVU1245
	.uleb128 .LVU1264
	.uleb128 .LVU1264
	.uleb128 .LVU1269
	.uleb128 .LVU1269
	.uleb128 .LVU1271
	.uleb128 .LVU1271
	.uleb128 .LVU1273
	.uleb128 .LVU1273
	.uleb128 .LVU1274
	.uleb128 .LVU1274
	.uleb128 .LVU1283
	.uleb128 .LVU1283
	.uleb128 .LVU1291
	.uleb128 .LVU1321
	.uleb128 .LVU1337
	.uleb128 .LVU1337
	.uleb128 .LVU1353
	.uleb128 .LVU1353
	.uleb128 .LVU1358
	.uleb128 .LVU1358
	.uleb128 .LVU1363
	.uleb128 .LVU1363
	.uleb128 .LVU1365
	.uleb128 .LVU1365
	.uleb128 .LVU1378
	.uleb128 .LVU1378
	.uleb128 .LVU1382
	.uleb128 .LVU1415
	.uleb128 .LVU1434
	.uleb128 .LVU1434
	.uleb128 .LVU1446
	.uleb128 .LVU1446
	.uleb128 .LVU1450
	.uleb128 .LVU1450
	.uleb128 .LVU1451
	.uleb128 .LVU1451
	.uleb128 .LVU1455
	.uleb128 .LVU1455
	.uleb128 .LVU1466
	.uleb128 .LVU1466
	.uleb128 .LVU1473
	.uleb128 .LVU1473
	.uleb128 .LVU1478
	.uleb128 .LVU1510
	.uleb128 .LVU1528
	.uleb128 .LVU1528
	.uleb128 .LVU1543
	.uleb128 .LVU1543
	.uleb128 .LVU1548
	.uleb128 .LVU1548
	.uleb128 .LVU1553
	.uleb128 .LVU1553
	.uleb128 .LVU1555
	.uleb128 .LVU1555
	.uleb128 .LVU1568
	.uleb128 .LVU1568
	.uleb128 .LVU1572
	.uleb128 .LVU1602
	.uleb128 .LVU1622
	.uleb128 .LVU1622
	.uleb128 .LVU1634
	.uleb128 .LVU1634
	.uleb128 .LVU1638
	.uleb128 .LVU1638
	.uleb128 .LVU1640
	.uleb128 .LVU1640
	.uleb128 .LVU1645
	.uleb128 .LVU1645
	.uleb128 .LVU1653
	.uleb128 .LVU1653
	.uleb128 .LVU1661
	.uleb128 .LVU1661
	.uleb128 .LVU1667
	.uleb128 .LVU1696
	.uleb128 .LVU1714
	.uleb128 .LVU1714
	.uleb128 .LVU1729
	.uleb128 .LVU1729
	.uleb128 .LVU1734
	.uleb128 .LVU1734
	.uleb128 .LVU1739
	.uleb128 .LVU1739
	.uleb128 .LVU1741
	.uleb128 .LVU1741
	.uleb128 .LVU1754
	.uleb128 .LVU1754
	.uleb128 .LVU1758
	.uleb128 .LVU1788
	.uleb128 .LVU1808
	.uleb128 .LVU1808
	.uleb128 .LVU1820
	.uleb128 .LVU1820
	.uleb128 .LVU1824
	.uleb128 .LVU1824
	.uleb128 .LVU1825
	.uleb128 .LVU1825
	.uleb128 .LVU1829
	.uleb128 .LVU1829
	.uleb128 .LVU1840
	.uleb128 .LVU1840
	.uleb128 .LVU1847
	.uleb128 .LVU1847
	.uleb128 .LVU1852
	.uleb128 .LVU1884
	.uleb128 .LVU1902
	.uleb128 .LVU1902
	.uleb128 .LVU1917
	.uleb128 .LVU1917
	.uleb128 .LVU1922
	.uleb128 .LVU1922
	.uleb128 .LVU1927
	.uleb128 .LVU1927
	.uleb128 .LVU1929
	.uleb128 .LVU1929
	.uleb128 .LVU1942
	.uleb128 .LVU1942
	.uleb128 .LVU1946
	.uleb128 .LVU1976
	.uleb128 .LVU1997
	.uleb128 .LVU2033
	.uleb128 .LVU2036
	.uleb128 .LVU2066
	.uleb128 .LVU2084
	.uleb128 .LVU2084
	.uleb128 .LVU2095
	.uleb128 .LVU2095
	.uleb128 .LVU2101
	.uleb128 .LVU2101
	.uleb128 .LVU2105
	.uleb128 .LVU2105
	.uleb128 .LVU2118
	.uleb128 .LVU2118
	.uleb128 .LVU2120
	.uleb128 .LVU2120
	.uleb128 .LVU2129
	.uleb128 .LVU2129
	.uleb128 .LVU2135
	.uleb128 .LVU2163
	.uleb128 .LVU2176
	.uleb128 .LVU2176
	.uleb128 .LVU2183
	.uleb128 .LVU2183
	.uleb128 .LVU2203
	.uleb128 .LVU2203
	.uleb128 .LVU2208
.LLST83:
	.4byte	.LVL401-.Ltext0
	.4byte	.LVL410-.Ltext0
	.2byte	0x1
	.byte	0x5c
	.4byte	.LVL410-.Ltext0
	.4byte	.LVL413-.Ltext0
	.2byte	0x5
	.byte	0x91
	.sleb128 -52
	.byte	0x6
	.byte	0x23
	.uleb128 0x20
	.4byte	.LVL413-.Ltext0
	.4byte	.LVL414-.Ltext0
	.2byte	0xa
	.byte	0x91
	.sleb128 -52
	.byte	0x6
	.byte	0x23
	.uleb128 0x20
	.byte	0x6
	.byte	0x73
	.sleb128 0
	.byte	0x27
	.byte	0x9f
	.4byte	.LVL414-.Ltext0
	.4byte	.LVL425-.Ltext0
	.2byte	0x45
	.byte	0x91
	.sleb128 -52
	.byte	0x6
	.byte	0x23
	.uleb128 0xc
	.byte	0x6
	.byte	0x91
	.sleb128 -52
	.byte	0x6
	.byte	0x23
	.uleb128 0x1c
	.byte	0x6
	.byte	0x27
	.byte	0x91
	.sleb128 -52
	.byte	0x6
	.byte	0x23
	.uleb128 0x2c
	.byte	0x6
	.byte	0x27
	.byte	0x35
	.byte	0x14
	.byte	0x14
	.byte	0x24
	.byte	0x17
	.byte	0x1f
	.byte	0x23
	.uleb128 0x20
	.byte	0x25
	.byte	0x21
	.byte	0x91
	.sleb128 -52
	.byte	0x6
	.byte	0x23
	.uleb128 0xc
	.byte	0x6
	.byte	0x91
	.sleb128 -52
	.byte	0x6
	.byte	0x23
	.uleb128 0x1c
	.byte	0x6
	.byte	0x27
	.byte	0x91
	.sleb128 -52
	.byte	0x6
	.byte	0x23
	.uleb128 0x2c
	.byte	0x6
	.byte	0x27
	.byte	0x3e
	.byte	0x14
	.byte	0x14
	.byte	0x24
	.byte	0x17
	.byte	0x1f
	.byte	0x23
	.uleb128 0x20
	.byte	0x25
	.byte	0x21
	.byte	0x27
	.byte	0x91
	.sleb128 -52
	.byte	0x6
	.byte	0x23
	.uleb128 0x20
	.byte	0x6
	.byte	0x27
	.byte	0x9f
	.4byte	.LVL425-.Ltext0
	.4byte	.LVL428-.Ltext0
	.2byte	0x3
	.byte	0x91
	.sleb128 -68
	.4byte	.LVL428-.Ltext0
	.4byte	.LVL437-.Ltext0
	.2byte	0xe
	.byte	0x73
	.sleb128 0
	.byte	0x9
	.byte	0xa7
	.byte	0x27
	.byte	0x77
	.sleb128 0
	.byte	0x1a
	.byte	0x91
	.sleb128 -68
	.byte	0x6
	.byte	0x27
	.byte	0x9f
	.4byte	.LVL437-.Ltext0
	.4byte	.LVL438-.Ltext0
	.2byte	0xb
	.byte	0x73
	.sleb128 0
	.byte	0x77
	.sleb128 0
	.byte	0x1a
	.byte	0x91
	.sleb128 -68
	.byte	0x6
	.byte	0x27
	.byte	0x9f
	.4byte	.LVL438-.Ltext0
	.4byte	.LVL441-.Ltext0
	.2byte	0xd
	.byte	0x91
	.sleb128 -64
	.byte	0x6
	.byte	0x20
	.byte	0x77
	.sleb128 0
	.byte	0x1a
	.byte	0x91
	.sleb128 -68
	.byte	0x6
	.byte	0x27
	.byte	0x9f
	.4byte	.LVL441-.Ltext0
	.4byte	.LVL445-.Ltext0
	.2byte	0x1
	.byte	0x53
	.4byte	.LVL445-.Ltext0
	.4byte	.LVL447-.Ltext0
	.2byte	0x1a
	.byte	0x72
	.sleb128 0
	.byte	0x91
	.sleb128 -68
	.byte	0x6
	.byte	0x27
	.byte	0x91
	.sleb128 -64
	.byte	0x6
	.byte	0x1a
	.byte	0x91
	.sleb128 -48
	.byte	0x6
	.byte	0x27
	.byte	0x91
	.sleb128 -64
	.byte	0x6
	.byte	0x20
	.byte	0x1a
	.byte	0x91
	.sleb128 -68
	.byte	0x6
	.byte	0x27
	.byte	0x9f
	.4byte	.LVL447-.Ltext0
	.4byte	.LVL448-.Ltext0
	.2byte	0x1
	.byte	0x5a
	.4byte	.LVL448-.Ltext0
	.4byte	.LVL453-.Ltext0
	.2byte	0xf9
	.byte	0x72
	.sleb128 0
	.byte	0x91
	.sleb128 -76
	.byte	0x6
	.byte	0x27
	.byte	0x91
	.sleb128 -52
	.byte	0x6
	.byte	0x23
	.uleb128 0x4
	.byte	0x6
	.byte	0x91
	.sleb128 -52
	.byte	0x6
	.byte	0x23
	.uleb128 0x14
	.byte	0x6
	.byte	0x27
	.byte	0x91
	.sleb128 -52
	.byte	0x6
	.byte	0x23
	.uleb128 0x24
	.byte	0x6
	.byte	0x27
	.byte	0x35
	.byte	0x14
	.byte	0x14
	.byte	0x24
	.byte	0x17
	.byte	0x1f
	.byte	0x23
	.uleb128 0x20
	.byte	0x25
	.byte	0x21
	.byte	0x91
	.sleb128 -52
	.byte	0x6
	.byte	0x23
	.uleb128 0x4
	.byte	0x6
	.byte	0x91
	.sleb128 -52
	.byte	0x6
	.byte	0x23
	.uleb128 0x14
	.byte	0x6
	.byte	0x27
	.byte	0x91
	.sleb128 -52
	.byte	0x6
	.byte	0x23
	.uleb128 0x24
	.byte	0x6
	.byte	0x27
	.byte	0x3e
	.byte	0x14
	.byte	0x14
	.byte	0x24
	.byte	0x17
	.byte	0x1f
	.byte	0x23
	.uleb128 0x20
	.byte	0x25
	.byte	0x21
	.byte	0x27
	.byte	0x91
	.sleb128 -52
	.byte	0x6
	.byte	0x23
	.uleb128 0x28
	.byte	0x6
	.byte	0x27
	.byte	0x3b
	.byte	0x14
	.byte	0x14
	.byte	0x24
	.byte	0x17
	.byte	0x1f
	.byte	0x23
	.uleb128 0x20
	.byte	0x25
	.byte	0x21
	.byte	0x72
	.sleb128 0
	.byte	0x27
	.byte	0x91
	.sleb128 -76
	.byte	0x6
	.byte	0x1a
	.byte	0x91
	.sleb128 -52
	.byte	0x6
	.byte	0x6
	.byte	0x91
	.sleb128 -52
	.byte	0x6
	.byte	0x23
	.uleb128 0x10
	.byte	0x6
	.byte	0x27
	.byte	0x91
	.sleb128 -52
	.byte	0x6
	.byte	0x23
	.uleb128 0x20
	.byte	0x6
	.byte	0x27
	.byte	0x35
	.byte	0x14
	.byte	0x14
	.byte	0x24
	.byte	0x17
	.byte	0x1f
	.byte	0x23
	.uleb128 0x20
	.byte	0x25
	.byte	0x21
	.byte	0x27
	.byte	0x91
	.sleb128 -52
	.byte	0x6
	.byte	0x6
	.byte	0x91
	.sleb128 -52
	.byte	0x6
	.byte	0x23
	.uleb128 0x10
	.byte	0x6
	.byte	0x27
	.byte	0x91
	.sleb128 -52
	.byte	0x6
	.byte	0x23
	.uleb128 0x20
	.byte	0x6
	.byte	0x27
	.byte	0x3e
	.byte	0x14
	.byte	0x14
	.byte	0x24
	.byte	0x17
	.byte	0x1f
	.byte	0x23
	.uleb128 0x20
	.byte	0x25
	.byte	0x21
	.byte	0x27
	.byte	0x91
	.sleb128 -52
	.byte	0x6
	.byte	0x23
	.uleb128 0x14
	.byte	0x6
	.byte	0x27
	.byte	0x1a
	.byte	0x91
	.sleb128 -52
	.byte	0x6
	.byte	0x23
	.uleb128 0x4
	.byte	0x6
	.byte	0x91
	.sleb128 -52
	.byte	0x6
	.byte	0x23
	.uleb128 0x14
	.byte	0x6
	.byte	0x27
	.byte	0x91
	.sleb128 -52
	.byte	0x6
	.byte	0x23
	.uleb128 0x24
	.byte	0x6
	.byte	0x27
	.byte	0x35
	.byte	0x14
	.byte	0x14
	.byte	0x24
	.byte	0x17
	.byte	0x1f
	.byte	0x23
	.uleb128 0x20
	.byte	0x25
	.byte	0x21
	.byte	0x91
	.sleb128 -52
	.byte	0x6
	.byte	0x23
	.uleb128 0x4
	.byte	0x6
	.byte	0x91
	.sleb128 -52
	.byte	0x6
	.byte	0x23
	.uleb128 0x14
	.byte	0x6
	.byte	0x27
	.byte	0x91
	.sleb128 -52
	.byte	0x6
	.byte	0x23
	.uleb128 0x24
	.byte	0x6
	.byte	0x27
	.byte	0x3e
	.byte	0x14
	.byte	0x14
	.byte	0x24
	.byte	0x17
	.byte	0x1f
	.byte	0x23
	.uleb128 0x20
	.byte	0x25
	.byte	0x21
	.byte	0x27
	.byte	0x91
	.sleb128 -52
	.byte	0x6
	.byte	0x23
	.uleb128 0x28
	.byte	0x6
	.byte	0x27
	.byte	0x3b
	.byte	0x14
	.byte	0x14
	.byte	0x24
	.byte	0x17
	.byte	0x1f
	.byte	0x23
	.uleb128 0x20
	.byte	0x25
	.byte	0x21
	.byte	0x27
	.byte	0x38
	.byte	0x14
	.byte	0x14
	.byte	0x24
	.byte	0x17
	.byte	0x1f
	.byte	0x23
	.uleb128 0x20
	.byte	0x25
	.byte	0x21
	.byte	0x9f
	.4byte	.LVL464-.Ltext0
	.4byte	.LVL468-.Ltext0
	.2byte	0x3
	.byte	0x91
	.sleb128 -68
	.4byte	.LVL468-.Ltext0
	.4byte	.LVL476-.Ltext0
	.2byte	0xe
	.byte	0x7f
	.sleb128 0
	.byte	0x9
	.byte	0xc7
	.byte	0x27
	.byte	0x7a
	.sleb128 0
	.byte	0x1a
	.byte	0x91
	.sleb128 -68
	.byte	0x6
	.byte	0x27
	.byte	0x9f
	.4byte	.LVL476-.Ltext0
	.4byte	.LVL478-.Ltext0
	.2byte	0xb
	.byte	0x7f
	.sleb128 0
	.byte	0x7a
	.sleb128 0
	.byte	0x1a
	.byte	0x91
	.sleb128 -68
	.byte	0x6
	.byte	0x27
	.byte	0x9f
	.4byte	.LVL478-.Ltext0
	.4byte	.LVL479-.Ltext0
	.2byte	0xd
	.byte	0x91
	.sleb128 -64
	.byte	0x6
	.byte	0x20
	.byte	0x7a
	.sleb128 0
	.byte	0x1a
	.byte	0x91
	.sleb128 -68
	.byte	0x6
	.byte	0x27
	.byte	0x9f
	.4byte	.LVL479-.Ltext0
	.4byte	.LVL480-.Ltext0
	.2byte	0x1
	.byte	0x5f
	.4byte	.LVL480-.Ltext0
	.4byte	.LVL481-.Ltext0
	.2byte	0xd
	.byte	0x91
	.sleb128 -64
	.byte	0x6
	.byte	0x20
	.byte	0x7a
	.sleb128 0
	.byte	0x1a
	.byte	0x91
	.sleb128 -68
	.byte	0x6
	.byte	0x27
	.byte	0x9f
	.4byte	.LVL481-.Ltext0
	.4byte	.LVL482-.Ltext0
	.2byte	0x1a
	.byte	0x72
	.sleb128 0
	.byte	0x91
	.sleb128 -68
	.byte	0x6
	.byte	0x27
	.byte	0x91
	.sleb128 -64
	.byte	0x6
	.byte	0x1a
	.byte	0x91
	.sleb128 -56
	.byte	0x6
	.byte	0x27
	.byte	0x91
	.sleb128 -64
	.byte	0x6
	.byte	0x20
	.byte	0x1a
	.byte	0x91
	.sleb128 -68
	.byte	0x6
	.byte	0x27
	.byte	0x9f
	.4byte	.LVL482-.Ltext0
	.4byte	.LVL488-.Ltext0
	.2byte	0x1
	.byte	0x55
	.4byte	.LVL500-.Ltext0
	.4byte	.LVL503-.Ltext0
	.2byte	0x3
	.byte	0x91
	.sleb128 -68
	.4byte	.LVL503-.Ltext0
	.4byte	.LVL512-.Ltext0
	.2byte	0xf
	.byte	0x7d
	.sleb128 0
	.byte	0xb
	.2byte	0xfc3f
	.byte	0x27
	.byte	0x79
	.sleb128 0
	.byte	0x1a
	.byte	0x91
	.sleb128 -68
	.byte	0x6
	.byte	0x27
	.byte	0x9f
	.4byte	.LVL512-.Ltext0
	.4byte	.LVL515-.Ltext0
	.2byte	0xb
	.byte	0x7d
	.sleb128 0
	.byte	0x79
	.sleb128 0
	.byte	0x1a
	.byte	0x91
	.sleb128 -68
	.byte	0x6
	.byte	0x27
	.byte	0x9f
	.4byte	.LVL515-.Ltext0
	.4byte	.LVL518-.Ltext0
	.2byte	0xd
	.byte	0x91
	.sleb128 -64
	.byte	0x6
	.byte	0x20
	.byte	0x79
	.sleb128 0
	.byte	0x1a
	.byte	0x91
	.sleb128 -68
	.byte	0x6
	.byte	0x27
	.byte	0x9f
	.4byte	.LVL518-.Ltext0
	.4byte	.LVL519-.Ltext0
	.2byte	0x1
	.byte	0x5d
	.4byte	.LVL519-.Ltext0
	.4byte	.LVL520-.Ltext0
	.2byte	0xd
	.byte	0x91
	.sleb128 -64
	.byte	0x6
	.byte	0x20
	.byte	0x79
	.sleb128 0
	.byte	0x1a
	.byte	0x91
	.sleb128 -68
	.byte	0x6
	.byte	0x27
	.byte	0x9f
	.4byte	.LVL520-.Ltext0
	.4byte	.LVL522-.Ltext0
	.2byte	0x1
	.byte	0x53
	.4byte	.LVL536-.Ltext0
	.4byte	.LVL541-.Ltext0
	.2byte	0x3
	.byte	0x91
	.sleb128 -68
	.4byte	.LVL541-.Ltext0
	.4byte	.LVL544-.Ltext0
	.2byte	0xf
	.byte	0x7d
	.sleb128 0
	.byte	0xb
	.2byte	0xff2f
	.byte	0x27
	.byte	0x79
	.sleb128 0
	.byte	0x1a
	.byte	0x91
	.sleb128 -68
	.byte	0x6
	.byte	0x27
	.byte	0x9f
	.4byte	.LVL544-.Ltext0
	.4byte	.LVL546-.Ltext0
	.2byte	0xb
	.byte	0x7d
	.sleb128 0
	.byte	0x79
	.sleb128 0
	.byte	0x1a
	.byte	0x91
	.sleb128 -68
	.byte	0x6
	.byte	0x27
	.byte	0x9f
	.4byte	.LVL546-.Ltext0
	.4byte	.LVL547-.Ltext0
	.2byte	0xd
	.byte	0x91
	.sleb128 -64
	.byte	0x6
	.byte	0x20
	.byte	0x79
	.sleb128 0
	.byte	0x1a
	.byte	0x91
	.sleb128 -68
	.byte	0x6
	.byte	0x27
	.byte	0x9f
	.4byte	.LVL547-.Ltext0
	.4byte	.LVL550-.Ltext0
	.2byte	0x1
	.byte	0x5d
	.4byte	.LVL550-.Ltext0
	.4byte	.LVL553-.Ltext0
	.2byte	0xd
	.byte	0x91
	.sleb128 -64
	.byte	0x6
	.byte	0x20
	.byte	0x79
	.sleb128 0
	.byte	0x1a
	.byte	0x91
	.sleb128 -68
	.byte	0x6
	.byte	0x27
	.byte	0x9f
	.4byte	.LVL553-.Ltext0
	.4byte	.LVL554-.Ltext0
	.2byte	0x1a
	.byte	0x72
	.sleb128 0
	.byte	0x91
	.sleb128 -68
	.byte	0x6
	.byte	0x27
	.byte	0x91
	.sleb128 -64
	.byte	0x6
	.byte	0x1a
	.byte	0x91
	.sleb128 -56
	.byte	0x6
	.byte	0x27
	.byte	0x91
	.sleb128 -64
	.byte	0x6
	.byte	0x20
	.byte	0x1a
	.byte	0x91
	.sleb128 -68
	.byte	0x6
	.byte	0x27
	.byte	0x9f
	.4byte	.LVL554-.Ltext0
	.4byte	.LVL557-.Ltext0
	.2byte	0x1
	.byte	0x5e
	.4byte	.LVL573-.Ltext0
	.4byte	.LVL577-.Ltext0
	.2byte	0x3
	.byte	0x91
	.sleb128 -68
	.4byte	.LVL577-.Ltext0
	.4byte	.LVL585-.Ltext0
	.2byte	0xf
	.byte	0x7d
	.sleb128 0
	.byte	0xb
	.2byte	0xfedf
	.byte	0x27
	.byte	0x79
	.sleb128 0
	.byte	0x1a
	.byte	0x91
	.sleb128 -68
	.byte	0x6
	.byte	0x27
	.byte	0x9f
	.4byte	.LVL585-.Ltext0
	.4byte	.LVL588-.Ltext0
	.2byte	0xb
	.byte	0x7d
	.sleb128 0
	.byte	0x79
	.sleb128 0
	.byte	0x1a
	.byte	0x91
	.sleb128 -68
	.byte	0x6
	.byte	0x27
	.byte	0x9f
	.4byte	.LVL588-.Ltext0
	.4byte	.LVL591-.Ltext0
	.2byte	0xd
	.byte	0x91
	.sleb128 -64
	.byte	0x6
	.byte	0x20
	.byte	0x79
	.sleb128 0
	.byte	0x1a
	.byte	0x91
	.sleb128 -68
	.byte	0x6
	.byte	0x27
	.byte	0x9f
	.4byte	.LVL591-.Ltext0
	.4byte	.LVL592-.Ltext0
	.2byte	0x1
	.byte	0x5d
	.4byte	.LVL592-.Ltext0
	.4byte	.LVL593-.Ltext0
	.2byte	0xd
	.byte	0x91
	.sleb128 -64
	.byte	0x6
	.byte	0x20
	.byte	0x79
	.sleb128 0
	.byte	0x1a
	.byte	0x91
	.sleb128 -68
	.byte	0x6
	.byte	0x27
	.byte	0x9f
	.4byte	.LVL593-.Ltext0
	.4byte	.LVL595-.Ltext0
	.2byte	0x1
	.byte	0x53
	.4byte	.LVL608-.Ltext0
	.4byte	.LVL614-.Ltext0
	.2byte	0x3
	.byte	0x91
	.sleb128 -68
	.4byte	.LVL614-.Ltext0
	.4byte	.LVL617-.Ltext0
	.2byte	0xe
	.byte	0x7d
	.sleb128 0
	.byte	0x9
	.byte	0xeb
	.byte	0x27
	.byte	0x79
	.sleb128 0
	.byte	0x1a
	.byte	0x91
	.sleb128 -68
	.byte	0x6
	.byte	0x27
	.byte	0x9f
	.4byte	.LVL617-.Ltext0
	.4byte	.LVL619-.Ltext0
	.2byte	0xb
	.byte	0x7d
	.sleb128 0
	.byte	0x79
	.sleb128 0
	.byte	0x1a
	.byte	0x91
	.sleb128 -68
	.byte	0x6
	.byte	0x27
	.byte	0x9f
	.4byte	.LVL619-.Ltext0
	.4byte	.LVL621-.Ltext0
	.2byte	0xd
	.byte	0x91
	.sleb128 -64
	.byte	0x6
	.byte	0x20
	.byte	0x79
	.sleb128 0
	.byte	0x1a
	.byte	0x91
	.sleb128 -68
	.byte	0x6
	.byte	0x27
	.byte	0x9f
	.4byte	.LVL621-.Ltext0
	.4byte	.LVL624-.Ltext0
	.2byte	0x1
	.byte	0x5d
	.4byte	.LVL624-.Ltext0
	.4byte	.LVL626-.Ltext0
	.2byte	0xd
	.byte	0x91
	.sleb128 -64
	.byte	0x6
	.byte	0x20
	.byte	0x79
	.sleb128 0
	.byte	0x1a
	.byte	0x91
	.sleb128 -68
	.byte	0x6
	.byte	0x27
	.byte	0x9f
	.4byte	.LVL626-.Ltext0
	.4byte	.LVL627-.Ltext0
	.2byte	0x1a
	.byte	0x72
	.sleb128 0
	.byte	0x91
	.sleb128 -68
	.byte	0x6
	.byte	0x27
	.byte	0x91
	.sleb128 -64
	.byte	0x6
	.byte	0x1a
	.byte	0x91
	.sleb128 -56
	.byte	0x6
	.byte	0x27
	.byte	0x91
	.sleb128 -64
	.byte	0x6
	.byte	0x20
	.byte	0x1a
	.byte	0x91
	.sleb128 -68
	.byte	0x6
	.byte	0x27
	.byte	0x9f
	.4byte	.LVL627-.Ltext0
	.4byte	.LVL631-.Ltext0
	.2byte	0x1
	.byte	0x5e
	.4byte	.LVL644-.Ltext0
	.4byte	.LVL648-.Ltext0
	.2byte	0x3
	.byte	0x91
	.sleb128 -68
	.4byte	.LVL648-.Ltext0
	.4byte	.LVL656-.Ltext0
	.2byte	0xe
	.byte	0x7d
	.sleb128 0
	.byte	0x9
	.byte	0x9f
	.byte	0x27
	.byte	0x79
	.sleb128 0
	.byte	0x1a
	.byte	0x91
	.sleb128 -68
	.byte	0x6
	.byte	0x27
	.byte	0x9f
	.4byte	.LVL656-.Ltext0
	.4byte	.LVL659-.Ltext0
	.2byte	0xb
	.byte	0x7d
	.sleb128 0
	.byte	0x79
	.sleb128 0
	.byte	0x1a
	.byte	0x91
	.sleb128 -68
	.byte	0x6
	.byte	0x27
	.byte	0x9f
	.4byte	.LVL659-.Ltext0
	.4byte	.LVL662-.Ltext0
	.2byte	0xd
	.byte	0x91
	.sleb128 -64
	.byte	0x6
	.byte	0x20
	.byte	0x79
	.sleb128 0
	.byte	0x1a
	.byte	0x91
	.sleb128 -68
	.byte	0x6
	.byte	0x27
	.byte	0x9f
	.4byte	.LVL662-.Ltext0
	.4byte	.LVL663-.Ltext0
	.2byte	0x1
	.byte	0x5d
	.4byte	.LVL663-.Ltext0
	.4byte	.LVL664-.Ltext0
	.2byte	0xd
	.byte	0x91
	.sleb128 -64
	.byte	0x6
	.byte	0x20
	.byte	0x79
	.sleb128 0
	.byte	0x1a
	.byte	0x91
	.sleb128 -68
	.byte	0x6
	.byte	0x27
	.byte	0x9f
	.4byte	.LVL664-.Ltext0
	.4byte	.LVL666-.Ltext0
	.2byte	0x1
	.byte	0x53
	.4byte	.LVL679-.Ltext0
	.4byte	.LVL685-.Ltext0
	.2byte	0x3
	.byte	0x91
	.sleb128 -68
	.4byte	.LVL685-.Ltext0
	.4byte	.LVL688-.Ltext0
	.2byte	0xe
	.byte	0x7d
	.sleb128 0
	.byte	0x9
	.byte	0xd3
	.byte	0x27
	.byte	0x79
	.sleb128 0
	.byte	0x1a
	.byte	0x91
	.sleb128 -68
	.byte	0x6
	.byte	0x27
	.byte	0x9f
	.4byte	.LVL688-.Ltext0
	.4byte	.LVL690-.Ltext0
	.2byte	0xb
	.byte	0x7d
	.sleb128 0
	.byte	0x79
	.sleb128 0
	.byte	0x1a
	.byte	0x91
	.sleb128 -68
	.byte	0x6
	.byte	0x27
	.byte	0x9f
	.4byte	.LVL690-.Ltext0
	.4byte	.LVL691-.Ltext0
	.2byte	0xd
	.byte	0x91
	.sleb128 -64
	.byte	0x6
	.byte	0x20
	.byte	0x79
	.sleb128 0
	.byte	0x1a
	.byte	0x91
	.sleb128 -68
	.byte	0x6
	.byte	0x27
	.byte	0x9f
	.4byte	.LVL691-.Ltext0
	.4byte	.LVL694-.Ltext0
	.2byte	0x1
	.byte	0x5d
	.4byte	.LVL694-.Ltext0
	.4byte	.LVL697-.Ltext0
	.2byte	0xd
	.byte	0x91
	.sleb128 -64
	.byte	0x6
	.byte	0x20
	.byte	0x79
	.sleb128 0
	.byte	0x1a
	.byte	0x91
	.sleb128 -68
	.byte	0x6
	.byte	0x27
	.byte	0x9f
	.4byte	.LVL697-.Ltext0
	.4byte	.LVL698-.Ltext0
	.2byte	0x1a
	.byte	0x72
	.sleb128 0
	.byte	0x91
	.sleb128 -68
	.byte	0x6
	.byte	0x27
	.byte	0x91
	.sleb128 -64
	.byte	0x6
	.byte	0x1a
	.byte	0x91
	.sleb128 -56
	.byte	0x6
	.byte	0x27
	.byte	0x91
	.sleb128 -64
	.byte	0x6
	.byte	0x20
	.byte	0x1a
	.byte	0x91
	.sleb128 -68
	.byte	0x6
	.byte	0x27
	.byte	0x9f
	.4byte	.LVL698-.Ltext0
	.4byte	.LVL701-.Ltext0
	.2byte	0x1
	.byte	0x5e
	.4byte	.LVL717-.Ltext0
	.4byte	.LVL721-.Ltext0
	.2byte	0x3
	.byte	0x91
	.sleb128 -68
	.4byte	.LVL721-.Ltext0
	.4byte	.LVL729-.Ltext0
	.2byte	0xf
	.byte	0x7d
	.sleb128 0
	.byte	0xb
	.2byte	0xfc7f
	.byte	0x27
	.byte	0x79
	.sleb128 0
	.byte	0x1a
	.byte	0x91
	.sleb128 -68
	.byte	0x6
	.byte	0x27
	.byte	0x9f
	.4byte	.LVL729-.Ltext0
	.4byte	.LVL732-.Ltext0
	.2byte	0xb
	.byte	0x7d
	.sleb128 0
	.byte	0x79
	.sleb128 0
	.byte	0x1a
	.byte	0x91
	.sleb128 -68
	.byte	0x6
	.byte	0x27
	.byte	0x9f
	.4byte	.LVL732-.Ltext0
	.4byte	.LVL735-.Ltext0
	.2byte	0xd
	.byte	0x91
	.sleb128 -64
	.byte	0x6
	.byte	0x20
	.byte	0x79
	.sleb128 0
	.byte	0x1a
	.byte	0x91
	.sleb128 -68
	.byte	0x6
	.byte	0x27
	.byte	0x9f
	.4byte	.LVL735-.Ltext0
	.4byte	.LVL736-.Ltext0
	.2byte	0x1
	.byte	0x5d
	.4byte	.LVL736-.Ltext0
	.4byte	.LVL737-.Ltext0
	.2byte	0xd
	.byte	0x91
	.sleb128 -64
	.byte	0x6
	.byte	0x20
	.byte	0x79
	.sleb128 0
	.byte	0x1a
	.byte	0x91
	.sleb128 -68
	.byte	0x6
	.byte	0x27
	.byte	0x9f
	.4byte	.LVL737-.Ltext0
	.4byte	.LVL739-.Ltext0
	.2byte	0x1
	.byte	0x53
	.4byte	.LVL752-.Ltext0
	.4byte	.LVL759-.Ltext0
	.2byte	0x3
	.byte	0x91
	.sleb128 -68
	.4byte	.LVL764-.Ltext0
	.4byte	.LVL765-.Ltext0
	.2byte	0x1
	.byte	0x54
	.4byte	.LVL776-.Ltext0
	.4byte	.LVL781-.Ltext0
	.2byte	0x3
	.byte	0x91
	.sleb128 -68
	.4byte	.LVL781-.Ltext0
	.4byte	.LVL786-.Ltext0
	.2byte	0xf
	.byte	0x77
	.sleb128 0
	.byte	0xb
	.2byte	0xfe5f
	.byte	0x27
	.byte	0x7a
	.sleb128 0
	.byte	0x1a
	.byte	0x91
	.sleb128 -68
	.byte	0x6
	.byte	0x27
	.byte	0x9f
	.4byte	.LVL786-.Ltext0
	.4byte	.LVL790-.Ltext0
	.2byte	0xb
	.byte	0x77
	.sleb128 0
	.byte	0x7a
	.sleb128 0
	.byte	0x1a
	.byte	0x91
	.sleb128 -68
	.byte	0x6
	.byte	0x27
	.byte	0x9f
	.4byte	.LVL790-.Ltext0
	.4byte	.LVL792-.Ltext0
	.2byte	0xd
	.byte	0x91
	.sleb128 -64
	.byte	0x6
	.byte	0x20
	.byte	0x7a
	.sleb128 0
	.byte	0x1a
	.byte	0x91
	.sleb128 -68
	.byte	0x6
	.byte	0x27
	.byte	0x9f
	.4byte	.LVL792-.Ltext0
	.4byte	.LVL795-.Ltext0
	.2byte	0x1
	.byte	0x53
	.4byte	.LVL795-.Ltext0
	.4byte	.LVL796-.Ltext0
	.2byte	0xd
	.byte	0x91
	.sleb128 -64
	.byte	0x6
	.byte	0x20
	.byte	0x7a
	.sleb128 0
	.byte	0x1a
	.byte	0x91
	.sleb128 -68
	.byte	0x6
	.byte	0x27
	.byte	0x9f
	.4byte	.LVL796-.Ltext0
	.4byte	.LVL796-.Ltext0
	.2byte	0x1a
	.byte	0x72
	.sleb128 0
	.byte	0x91
	.sleb128 -68
	.byte	0x6
	.byte	0x27
	.byte	0x91
	.sleb128 -64
	.byte	0x6
	.byte	0x1a
	.byte	0x91
	.sleb128 -56
	.byte	0x6
	.byte	0x27
	.byte	0x91
	.sleb128 -64
	.byte	0x6
	.byte	0x20
	.byte	0x1a
	.byte	0x91
	.sleb128 -68
	.byte	0x6
	.byte	0x27
	.byte	0x9f
	.4byte	.LVL796-.Ltext0
	.4byte	.LVL799-.Ltext0
	.2byte	0x1
	.byte	0x59
	.4byte	.LVL811-.Ltext0
	.4byte	.LVL813-.Ltext0
	.2byte	0x1
	.byte	0x54
	.4byte	.LVL813-.Ltext0
	.4byte	.LVL819-.Ltext0
	.2byte	0x3
	.byte	0x91
	.sleb128 -68
	.4byte	.LVL819-.Ltext0
	.4byte	.LVL821-.Ltext0
	.2byte	0xe
	.byte	0x7e
	.sleb128 0
	.byte	0x9
	.byte	0xed
	.byte	0x27
	.byte	0x78
	.sleb128 0
	.byte	0x1a
	.byte	0x91
	.sleb128 -68
	.byte	0x6
	.byte	0x27
	.byte	0x9f
	.4byte	.LVL821-.Ltext0
	.4byte	.LVL823-.Ltext0
	.2byte	0x14
	.byte	0x7c
	.sleb128 0
	.byte	0x20
	.byte	0x76
	.sleb128 0
	.byte	0x1a
	.byte	0x73
	.sleb128 0
	.byte	0x27
	.byte	0x38
	.byte	0x14
	.byte	0x14
	.byte	0x24
	.byte	0x17
	.byte	0x1f
	.byte	0x23
	.uleb128 0x20
	.byte	0x25
	.byte	0x21
	.byte	0x9f
	.4byte	0
	.4byte	0
.LVUS84:
	.uleb128 .LVU1087
	.uleb128 .LVU1112
	.uleb128 .LVU1112
	.uleb128 .LVU1117
	.uleb128 .LVU1117
	.uleb128 .LVU1132
	.uleb128 .LVU1132
	.uleb128 .LVU1152
	.uleb128 .LVU1152
	.uleb128 .LVU1158
	.uleb128 .LVU1158
	.uleb128 .LVU1168
	.uleb128 .LVU1168
	.uleb128 .LVU1175
	.uleb128 .LVU1175
	.uleb128 .LVU1186
	.uleb128 .LVU1186
	.uleb128 .LVU1205
	.uleb128 .LVU1205
	.uleb128 .LVU1212
	.uleb128 .LVU1226
	.uleb128 .LVU1248
	.uleb128 .LVU1248
	.uleb128 .LVU1265
	.uleb128 .LVU1280
	.uleb128 .LVU1298
	.uleb128 .LVU1322
	.uleb128 .LVU1340
	.uleb128 .LVU1340
	.uleb128 .LVU1346
	.uleb128 .LVU1346
	.uleb128 .LVU1354
	.uleb128 .LVU1375
	.uleb128 .LVU1396
	.uleb128 .LVU1416
	.uleb128 .LVU1437
	.uleb128 .LVU1437
	.uleb128 .LVU1447
	.uleb128 .LVU1470
	.uleb128 .LVU1491
	.uleb128 .LVU1511
	.uleb128 .LVU1531
	.uleb128 .LVU1531
	.uleb128 .LVU1537
	.uleb128 .LVU1537
	.uleb128 .LVU1544
	.uleb128 .LVU1565
	.uleb128 .LVU1585
	.uleb128 .LVU1603
	.uleb128 .LVU1625
	.uleb128 .LVU1625
	.uleb128 .LVU1635
	.uleb128 .LVU1658
	.uleb128 .LVU1677
	.uleb128 .LVU1697
	.uleb128 .LVU1717
	.uleb128 .LVU1717
	.uleb128 .LVU1723
	.uleb128 .LVU1723
	.uleb128 .LVU1730
	.uleb128 .LVU1751
	.uleb128 .LVU1771
	.uleb128 .LVU1789
	.uleb128 .LVU1811
	.uleb128 .LVU1811
	.uleb128 .LVU1821
	.uleb128 .LVU1844
	.uleb128 .LVU1865
	.uleb128 .LVU1885
	.uleb128 .LVU1905
	.uleb128 .LVU1905
	.uleb128 .LVU1911
	.uleb128 .LVU1911
	.uleb128 .LVU1918
	.uleb128 .LVU1939
	.uleb128 .LVU1959
	.uleb128 .LVU1977
	.uleb128 .LVU2000
	.uleb128 .LVU2030
	.uleb128 .LVU2047
	.uleb128 .LVU2067
	.uleb128 .LVU2088
	.uleb128 .LVU2088
	.uleb128 .LVU2094
	.uleb128 .LVU2094
	.uleb128 .LVU2108
	.uleb128 .LVU2126
	.uleb128 .LVU2138
	.uleb128 .LVU2164
	.uleb128 .LVU2186
	.uleb128 .LVU2186
	.uleb128 .LVU2200
	.uleb128 .LVU2200
	.uleb128 .LVU2216
	.uleb128 .LVU2216
	.uleb128 .LVU2231
	.uleb128 .LVU2231
	.uleb128 0
.LLST84:
	.4byte	.LVL401-.Ltext0
	.4byte	.LVL417-.Ltext0
	.2byte	0x1
	.byte	0x56
	.4byte	.LVL417-.Ltext0
	.4byte	.LVL420-.Ltext0
	.2byte	0x5
	.byte	0x91
	.sleb128 -52
	.byte	0x6
	.byte	0x23
	.uleb128 0x24
	.4byte	.LVL420-.Ltext0
	.4byte	.LVL425-.Ltext0
	.2byte	0x41
	.byte	0x91
	.sleb128 -52
	.byte	0x6
	.byte	0x6
	.byte	0x91
	.sleb128 -52
	.byte	0x6
	.byte	0x23
	.uleb128 0x10
	.byte	0x6
	.byte	0x27
	.byte	0x91
	.sleb128 -52
	.byte	0x6
	.byte	0x23
	.uleb128 0x20
	.byte	0x6
	.byte	0x27
	.byte	0x35
	.byte	0x14
	.byte	0x14
	.byte	0x24
	.byte	0x17
	.byte	0x1f
	.byte	0x23
	.uleb128 0x20
	.byte	0x25
	.byte	0x21
	.byte	0x91
	.sleb128 -52
	.byte	0x6
	.byte	0x6
	.byte	0x91
	.sleb128 -52
	.byte	0x6
	.byte	0x23
	.uleb128 0x10
	.byte	0x6
	.byte	0x27
	.byte	0x91
	.sleb128 -52
	.byte	0x6
	.byte	0x23
	.uleb128 0x20
	.byte	0x6
	.byte	0x27
	.byte	0x3e
	.byte	0x14
	.byte	0x14
	.byte	0x24
	.byte	0x17
	.byte	0x1f
	.byte	0x23
	.uleb128 0x20
	.byte	0x25
	.byte	0x21
	.byte	0x27
	.byte	0x91
	.sleb128 -52
	.byte	0x6
	.byte	0x23
	.uleb128 0x24
	.byte	0x6
	.byte	0x27
	.byte	0x9f
	.4byte	.LVL425-.Ltext0
	.4byte	.LVL431-.Ltext0
	.2byte	0x1
	.byte	0x56
	.4byte	.LVL431-.Ltext0
	.4byte	.LVL433-.Ltext0
	.2byte	0xa
	.byte	0x7c
	.sleb128 0
	.byte	0x20
	.byte	0x7b
	.sleb128 0
	.byte	0x1a
	.byte	0x76
	.sleb128 0
	.byte	0x27
	.byte	0x9f
	.4byte	.LVL433-.Ltext0
	.4byte	.LVL440-.Ltext0
	.2byte	0xb
	.byte	0x71
	.sleb128 0
	.byte	0x6
	.byte	0x20
	.byte	0x7b
	.sleb128 0
	.byte	0x1a
	.byte	0x76
	.sleb128 0
	.byte	0x27
	.byte	0x9f
	.4byte	.LVL440-.Ltext0
	.4byte	.LVL443-.Ltext0
	.2byte	0x53
	.byte	0x71
	.sleb128 0
	.byte	0x6
	.byte	0x20
	.byte	0x7b
	.sleb128 0
	.byte	0x1a
	.byte	0x91
	.sleb128 -52
	.byte	0x6
	.byte	0x6
	.byte	0x91
	.sleb128 -52
	.byte	0x6
	.byte	0x23
	.uleb128 0x10
	.byte	0x6
	.byte	0x27
	.byte	0x91
	.sleb128 -52
	.byte	0x6
	.byte	0x23
	.uleb128 0x20
	.byte	0x6
	.byte	0x27
	.byte	0x35
	.byte	0x14
	.byte	0x14
	.byte	0x24
	.byte	0x17
	.byte	0x1f
	.byte	0x23
	.uleb128 0x20
	.byte	0x25
	.byte	0x21
	.byte	0x91
	.sleb128 -52
	.byte	0x6
	.byte	0x6
	.byte	0x91
	.sleb128 -52
	.byte	0x6
	.byte	0x23
	.uleb128 0x10
	.byte	0x6
	.byte	0x27
	.byte	0x91
	.sleb128 -52
	.byte	0x6
	.byte	0x23
	.uleb128 0x20
	.byte	0x6
	.byte	0x27
	.byte	0x3e
	.byte	0x14
	.byte	0x14
	.byte	0x24
	.byte	0x17
	.byte	0x1f
	.byte	0x23
	.uleb128 0x20
	.byte	0x25
	.byte	0x21
	.byte	0x27
	.byte	0x91
	.sleb128 -52
	.byte	0x6
	.byte	0x23
	.uleb128 0x24
	.byte	0x6
	.byte	0x27
	.byte	0x3b
	.byte	0x14
	.byte	0x14
	.byte	0x24
	.byte	0x17
	.byte	0x1f
	.byte	0x23
	.uleb128 0x20
	.byte	0x25
	.byte	0x21
	.byte	0x27
	.byte	0x9f
	.4byte	.LVL443-.Ltext0
	.4byte	.LVL447-.Ltext0
	.2byte	0xe7
	.byte	0x91
	.sleb128 -52
	.byte	0x6
	.byte	0x6
	.byte	0x91
	.sleb128 -52
	.byte	0x6
	.byte	0x23
	.uleb128 0x10
	.byte	0x6
	.byte	0x27
	.byte	0x91
	.sleb128 -52
	.byte	0x6
	.byte	0x23
	.uleb128 0x20
	.byte	0x6
	.byte	0x27
	.byte	0x35
	.byte	0x14
	.byte	0x14
	.byte	0x24
	.byte	0x17
	.byte	0x1f
	.byte	0x23
	.uleb128 0x20
	.byte	0x25
	.byte	0x21
	.byte	0x91
	.sleb128 -52
	.byte	0x6
	.byte	0x6
	.byte	0x91
	.sleb128 -52
	.byte	0x6
	.byte	0x23
	.uleb128 0x10
	.byte	0x6
	.byte	0x27
	.byte	0x91
	.sleb128 -52
	.byte	0x6
	.byte	0x23
	.uleb128 0x20
	.byte	0x6
	.byte	0x27
	.byte	0x3e
	.byte	0x14
	.byte	0x14
	.byte	0x24
	.byte	0x17
	.byte	0x1f
	.byte	0x23
	.uleb128 0x20
	.byte	0x25
	.byte	0x21
	.byte	0x27
	.byte	0x91
	.sleb128 -52
	.byte	0x6
	.byte	0x23
	.uleb128 0x24
	.byte	0x6
	.byte	0x27
	.byte	0x3b
	.byte	0x14
	.byte	0x14
	.byte	0x24
	.byte	0x17
	.byte	0x1f
	.byte	0x23
	.uleb128 0x20
	.byte	0x25
	.byte	0x21
	.byte	0x72
	.sleb128 0
	.byte	0x27
	.byte	0x71
	.sleb128 0
	.byte	0x6
	.byte	0x1a
	.byte	0x91
	.sleb128 -52
	.byte	0x6
	.byte	0x23
	.uleb128 0xc
	.byte	0x6
	.byte	0x91
	.sleb128 -52
	.byte	0x6
	.byte	0x23
	.uleb128 0x1c
	.byte	0x6
	.byte	0x27
	.byte	0x91
	.sleb128 -52
	.byte	0x6
	.byte	0x23
	.uleb128 0x2c
	.byte	0x6
	.byte	0x27
	.byte	0x35
	.byte	0x14
	.byte	0x14
	.byte	0x24
	.byte	0x17
	.byte	0x1f
	.byte	0x23
	.uleb128 0x20
	.byte	0x25
	.byte	0x21
	.byte	0x27
	.byte	0x91
	.sleb128 -52
	.byte	0x6
	.byte	0x23
	.uleb128 0xc
	.byte	0x6
	.byte	0x91
	.sleb128 -52
	.byte	0x6
	.byte	0x23
	.uleb128 0x1c
	.byte	0x6
	.byte	0x27
	.byte	0x91
	.sleb128 -52
	.byte	0x6
	.byte	0x23
	.uleb128 0x2c
	.byte	0x6
	.byte	0x27
	.byte	0x3e
	.byte	0x14
	.byte	0x14
	.byte	0x24
	.byte	0x17
	.byte	0x1f
	.byte	0x23
	.uleb128 0x20
	.byte	0x25
	.byte	0x21
	.byte	0x27
	.byte	0x91
	.sleb128 -52
	.byte	0x6
	.byte	0x23
	.uleb128 0x10
	.byte	0x6
	.byte	0x27
	.byte	0x71
	.sleb128 0
	.byte	0x6
	.byte	0x20
	.byte	0x1a
	.byte	0x91
	.sleb128 -52
	.byte	0x6
	.byte	0x6
	.byte	0x91
	.sleb128 -52
	.byte	0x6
	.byte	0x23
	.uleb128 0x10
	.byte	0x6
	.byte	0x27
	.byte	0x91
	.sleb128 -52
	.byte	0x6
	.byte	0x23
	.uleb128 0x20
	.byte	0x6
	.byte	0x27
	.byte	0x35
	.byte	0x14
	.byte	0x14
	.byte	0x24
	.byte	0x17
	.byte	0x1f
	.byte	0x23
	.uleb128 0x20
	.byte	0x25
	.byte	0x21
	.byte	0x91
	.sleb128 -52
	.byte	0x6
	.byte	0x6
	.byte	0x91
	.sleb128 -52
	.byte	0x6
	.byte	0x23
	.uleb128 0x10
	.byte	0x6
	.byte	0x27
	.byte	0x91
	.sleb128 -52
	.byte	0x6
	.byte	0x23
	.uleb128 0x20
	.byte	0x6
	.byte	0x27
	.byte	0x3e
	.byte	0x14
	.byte	0x14
	.byte	0x24
	.byte	0x17
	.byte	0x1f
	.byte	0x23
	.uleb128 0x20
	.byte	0x25
	.byte	0x21
	.byte	0x27
	.byte	0x91
	.sleb128 -52
	.byte	0x6
	.byte	0x23
	.uleb128 0x24
	.byte	0x6
	.byte	0x27
	.byte	0x3b
	.byte	0x14
	.byte	0x14
	.byte	0x24
	.byte	0x17
	.byte	0x1f
	.byte	0x23
	.uleb128 0x20
	.byte	0x25
	.byte	0x21
	.byte	0x27
	.byte	0x9f
	.4byte	.LVL447-.Ltext0
	.4byte	.LVL457-.Ltext0
	.2byte	0x1
	.byte	0x54
	.4byte	.LVL457-.Ltext0
	.4byte	.LVL462-.Ltext0
	.2byte	0xfd
	.byte	0x72
	.sleb128 0
	.byte	0x91
	.sleb128 -72
	.byte	0x6
	.byte	0x27
	.byte	0x91
	.sleb128 -52
	.byte	0x6
	.byte	0x23
	.uleb128 0x8
	.byte	0x6
	.byte	0x91
	.sleb128 -52
	.byte	0x6
	.byte	0x23
	.uleb128 0x18
	.byte	0x6
	.byte	0x27
	.byte	0x91
	.sleb128 -52
	.byte	0x6
	.byte	0x23
	.uleb128 0x28
	.byte	0x6
	.byte	0x27
	.byte	0x35
	.byte	0x14
	.byte	0x14
	.byte	0x24
	.byte	0x17
	.byte	0x1f
	.byte	0x23
	.uleb128 0x20
	.byte	0x25
	.byte	0x21
	.byte	0x91
	.sleb128 -52
	.byte	0x6
	.byte	0x23
	.uleb128 0x8
	.byte	0x6
	.byte	0x91
	.sleb128 -52
	.byte	0x6
	.byte	0x23
	.uleb128 0x18
	.byte	0x6
	.byte	0x27
	.byte	0x91
	.sleb128 -52
	.byte	0x6
	.byte	0x23
	.uleb128 0x28
	.byte	0x6
	.byte	0x27
	.byte	0x3e
	.byte	0x14
	.byte	0x14
	.byte	0x24
	.byte	0x17
	.byte	0x1f
	.byte	0x23
	.uleb128 0x20
	.byte	0x25
	.byte	0x21
	.byte	0x27
	.byte	0x91
	.sleb128 -52
	.byte	0x6
	.byte	0x23
	.uleb128 0x2c
	.byte	0x6
	.byte	0x27
	.byte	0x3b
	.byte	0x14
	.byte	0x14
	.byte	0x24
	.byte	0x17
	.byte	0x1f
	.byte	0x23
	.uleb128 0x20
	.byte	0x25
	.byte	0x21
	.byte	0x72
	.sleb128 0
	.byte	0x27
	.byte	0x91
	.sleb128 -72
	.byte	0x6
	.byte	0x1a
	.byte	0x91
	.sleb128 -52
	.byte	0x6
	.byte	0x23
	.uleb128 0x4
	.byte	0x6
	.byte	0x91
	.sleb128 -52
	.byte	0x6
	.byte	0x23
	.uleb128 0x14
	.byte	0x6
	.byte	0x27
	.byte	0x91
	.sleb128 -52
	.byte	0x6
	.byte	0x23
	.uleb128 0x24
	.byte	0x6
	.byte	0x27
	.byte	0x35
	.byte	0x14
	.byte	0x14
	.byte	0x24
	.byte	0x17
	.byte	0x1f
	.byte	0x23
	.uleb128 0x20
	.byte	0x25
	.byte	0x21
	.byte	0x27
	.byte	0x91
	.sleb128 -52
	.byte	0x6
	.byte	0x23
	.uleb128 0x4
	.byte	0x6
	.byte	0x91
	.sleb128 -52
	.byte	0x6
	.byte	0x23
	.uleb128 0x14
	.byte	0x6
	.byte	0x27
	.byte	0x91
	.sleb128 -52
	.byte	0x6
	.byte	0x23
	.uleb128 0x24
	.byte	0x6
	.byte	0x27
	.byte	0x3e
	.byte	0x14
	.byte	0x14
	.byte	0x24
	.byte	0x17
	.byte	0x1f
	.byte	0x23
	.uleb128 0x20
	.byte	0x25
	.byte	0x21
	.byte	0x27
	.byte	0x91
	.sleb128 -52
	.byte	0x6
	.byte	0x23
	.uleb128 0x18
	.byte	0x6
	.byte	0x27
	.byte	0x1a
	.byte	0x91
	.sleb128 -52
	.byte	0x6
	.byte	0x23
	.uleb128 0x8
	.byte	0x6
	.byte	0x91
	.sleb128 -52
	.byte	0x6
	.byte	0x23
	.uleb128 0x18
	.byte	0x6
	.byte	0x27
	.byte	0x91
	.sleb128 -52
	.byte	0x6
	.byte	0x23
	.uleb128 0x28
	.byte	0x6
	.byte	0x27
	.byte	0x35
	.byte	0x14
	.byte	0x14
	.byte	0x24
	.byte	0x17
	.byte	0x1f
	.byte	0x23
	.uleb128 0x20
	.byte	0x25
	.byte	0x21
	.byte	0x91
	.sleb128 -52
	.byte	0x6
	.byte	0x23
	.uleb128 0x8
	.byte	0x6
	.byte	0x91
	.sleb128 -52
	.byte	0x6
	.byte	0x23
	.uleb128 0x18
	.byte	0x6
	.byte	0x27
	.byte	0x91
	.sleb128 -52
	.byte	0x6
	.byte	0x23
	.uleb128 0x28
	.byte	0x6
	.byte	0x27
	.byte	0x3e
	.byte	0x14
	.byte	0x14
	.byte	0x24
	.byte	0x17
	.byte	0x1f
	.byte	0x23
	.uleb128 0x20
	.byte	0x25
	.byte	0x21
	.byte	0x27
	.byte	0x91
	.sleb128 -52
	.byte	0x6
	.byte	0x23
	.uleb128 0x2c
	.byte	0x6
	.byte	0x27
	.byte	0x3b
	.byte	0x14
	.byte	0x14
	.byte	0x24
	.byte	0x17
	.byte	0x1f
	.byte	0x23
	.uleb128 0x20
	.byte	0x25
	.byte	0x21
	.byte	0x27
	.byte	0x38
	.byte	0x14
	.byte	0x14
	.byte	0x24
	.byte	0x17
	.byte	0x1f
	.byte	0x23
	.uleb128 0x20
	.byte	0x25
	.byte	0x21
	.byte	0x9f
	.4byte	.LVL464-.Ltext0
	.4byte	.LVL468-.Ltext0
	.2byte	0x1
	.byte	0x54
	.4byte	.LVL468-.Ltext0
	.4byte	.LVL477-.Ltext0
	.2byte	0xb
	.byte	0x71
	.sleb128 0
	.byte	0x6
	.byte	0x20
	.byte	0x79
	.sleb128 0
	.byte	0x1a
	.byte	0x74
	.sleb128 0
	.byte	0x27
	.byte	0x9f
	.4byte	.LVL482-.Ltext0
	.4byte	.LVL492-.Ltext0
	.2byte	0x1
	.byte	0x56
	.4byte	.LVL500-.Ltext0
	.4byte	.LVL504-.Ltext0
	.2byte	0x1
	.byte	0x56
	.4byte	.LVL504-.Ltext0
	.4byte	.LVL507-.Ltext0
	.2byte	0xa
	.byte	0x7c
	.sleb128 0
	.byte	0x20
	.byte	0x78
	.sleb128 0
	.byte	0x1a
	.byte	0x76
	.sleb128 0
	.byte	0x27
	.byte	0x9f
	.4byte	.LVL507-.Ltext0
	.4byte	.LVL513-.Ltext0
	.2byte	0xb
	.byte	0x71
	.sleb128 0
	.byte	0x6
	.byte	0x20
	.byte	0x78
	.sleb128 0
	.byte	0x1a
	.byte	0x76
	.sleb128 0
	.byte	0x27
	.byte	0x9f
	.4byte	.LVL520-.Ltext0
	.4byte	.LVL530-.Ltext0
	.2byte	0x1
	.byte	0x54
	.4byte	.LVL536-.Ltext0
	.4byte	.LVL541-.Ltext0
	.2byte	0x1
	.byte	0x54
	.4byte	.LVL541-.Ltext0
	.4byte	.LVL545-.Ltext0
	.2byte	0xb
	.byte	0x71
	.sleb128 0
	.byte	0x6
	.byte	0x20
	.byte	0x78
	.sleb128 0
	.byte	0x1a
	.byte	0x74
	.sleb128 0
	.byte	0x27
	.byte	0x9f
	.4byte	.LVL554-.Ltext0
	.4byte	.LVL566-.Ltext0
	.2byte	0x1
	.byte	0x56
	.4byte	.LVL573-.Ltext0
	.4byte	.LVL578-.Ltext0
	.2byte	0x1
	.byte	0x56
	.4byte	.LVL578-.Ltext0
	.4byte	.LVL581-.Ltext0
	.2byte	0xa
	.byte	0x7c
	.sleb128 0
	.byte	0x20
	.byte	0x78
	.sleb128 0
	.byte	0x1a
	.byte	0x76
	.sleb128 0
	.byte	0x27
	.byte	0x9f
	.4byte	.LVL581-.Ltext0
	.4byte	.LVL586-.Ltext0
	.2byte	0xb
	.byte	0x71
	.sleb128 0
	.byte	0x6
	.byte	0x20
	.byte	0x78
	.sleb128 0
	.byte	0x1a
	.byte	0x76
	.sleb128 0
	.byte	0x27
	.byte	0x9f
	.4byte	.LVL593-.Ltext0
	.4byte	.LVL603-.Ltext0
	.2byte	0x1
	.byte	0x54
	.4byte	.LVL608-.Ltext0
	.4byte	.LVL614-.Ltext0
	.2byte	0x1
	.byte	0x54
	.4byte	.LVL614-.Ltext0
	.4byte	.LVL618-.Ltext0
	.2byte	0xb
	.byte	0x71
	.sleb128 0
	.byte	0x6
	.byte	0x20
	.byte	0x78
	.sleb128 0
	.byte	0x1a
	.byte	0x74
	.sleb128 0
	.byte	0x27
	.byte	0x9f
	.4byte	.LVL627-.Ltext0
	.4byte	.LVL637-.Ltext0
	.2byte	0x1
	.byte	0x56
	.4byte	.LVL644-.Ltext0
	.4byte	.LVL649-.Ltext0
	.2byte	0x1
	.byte	0x56
	.4byte	.LVL649-.Ltext0
	.4byte	.LVL652-.Ltext0
	.2byte	0xa
	.byte	0x7c
	.sleb128 0
	.byte	0x20
	.byte	0x78
	.sleb128 0
	.byte	0x1a
	.byte	0x76
	.sleb128 0
	.byte	0x27
	.byte	0x9f
	.4byte	.LVL652-.Ltext0
	.4byte	.LVL657-.Ltext0
	.2byte	0xb
	.byte	0x71
	.sleb128 0
	.byte	0x6
	.byte	0x20
	.byte	0x78
	.sleb128 0
	.byte	0x1a
	.byte	0x76
	.sleb128 0
	.byte	0x27
	.byte	0x9f
	.4byte	.LVL664-.Ltext0
	.4byte	.LVL674-.Ltext0
	.2byte	0x1
	.byte	0x54
	.4byte	.LVL679-.Ltext0
	.4byte	.LVL685-.Ltext0
	.2byte	0x1
	.byte	0x54
	.4byte	.LVL685-.Ltext0
	.4byte	.LVL689-.Ltext0
	.2byte	0xb
	.byte	0x71
	.sleb128 0
	.byte	0x6
	.byte	0x20
	.byte	0x78
	.sleb128 0
	.byte	0x1a
	.byte	0x74
	.sleb128 0
	.byte	0x27
	.byte	0x9f
	.4byte	.LVL698-.Ltext0
	.4byte	.LVL710-.Ltext0
	.2byte	0x1
	.byte	0x56
	.4byte	.LVL717-.Ltext0
	.4byte	.LVL722-.Ltext0
	.2byte	0x1
	.byte	0x56
	.4byte	.LVL722-.Ltext0
	.4byte	.LVL725-.Ltext0
	.2byte	0xa
	.byte	0x7c
	.sleb128 0
	.byte	0x20
	.byte	0x78
	.sleb128 0
	.byte	0x1a
	.byte	0x76
	.sleb128 0
	.byte	0x27
	.byte	0x9f
	.4byte	.LVL725-.Ltext0
	.4byte	.LVL730-.Ltext0
	.2byte	0xb
	.byte	0x71
	.sleb128 0
	.byte	0x6
	.byte	0x20
	.byte	0x78
	.sleb128 0
	.byte	0x1a
	.byte	0x76
	.sleb128 0
	.byte	0x27
	.byte	0x9f
	.4byte	.LVL737-.Ltext0
	.4byte	.LVL747-.Ltext0
	.2byte	0x1
	.byte	0x54
	.4byte	.LVL752-.Ltext0
	.4byte	.LVL760-.Ltext0
	.2byte	0x1
	.byte	0x54
	.4byte	.LVL764-.Ltext0
	.4byte	.LVL771-.Ltext0
	.2byte	0x1
	.byte	0x5f
	.4byte	.LVL776-.Ltext0
	.4byte	.LVL783-.Ltext0
	.2byte	0x1
	.byte	0x5f
	.4byte	.LVL783-.Ltext0
	.4byte	.LVL785-.Ltext0
	.2byte	0xa
	.byte	0x76
	.sleb128 0
	.byte	0x20
	.byte	0x79
	.sleb128 0
	.byte	0x1a
	.byte	0x7f
	.sleb128 0
	.byte	0x27
	.byte	0x9f
	.4byte	.LVL785-.Ltext0
	.4byte	.LVL793-.Ltext0
	.2byte	0xb
	.byte	0x71
	.sleb128 0
	.byte	0x6
	.byte	0x20
	.byte	0x79
	.sleb128 0
	.byte	0x1a
	.byte	0x7f
	.sleb128 0
	.byte	0x27
	.byte	0x9f
	.4byte	.LVL796-.Ltext0
	.4byte	.LVL802-.Ltext0
	.2byte	0x1
	.byte	0x58
	.4byte	.LVL811-.Ltext0
	.4byte	.LVL820-.Ltext0
	.2byte	0x2
	.byte	0x91
	.sleb128 -60
	.4byte	.LVL820-.Ltext0
	.4byte	.LVL821-.Ltext0
	.2byte	0xb
	.byte	0x7d
	.sleb128 0
	.byte	0x20
	.byte	0x77
	.sleb128 0
	.byte	0x1a
	.byte	0x91
	.sleb128 -60
	.byte	0x6
	.byte	0x27
	.byte	0x9f
	.4byte	.LVL821-.Ltext0
	.4byte	.LVL828-.Ltext0
	.2byte	0x15
	.byte	0x7b
	.sleb128 0
	.byte	0x20
	.byte	0x75
	.sleb128 0
	.byte	0x1a
	.byte	0x91
	.sleb128 -56
	.byte	0x6
	.byte	0x27
	.byte	0x38
	.byte	0x14
	.byte	0x14
	.byte	0x24
	.byte	0x17
	.byte	0x1f
	.byte	0x23
	.uleb128 0x20
	.byte	0x25
	.byte	0x21
	.byte	0x9f
	.4byte	.LVL828-.Ltext0
	.4byte	.LVL833-.Ltext0
	.2byte	0x1e
	.byte	0x91
	.sleb128 -56
	.byte	0x6
	.byte	0x20
	.byte	0x7b
	.sleb128 0
	.byte	0x1a
	.byte	0x91
	.sleb128 -48
	.byte	0x6
	.byte	0x27
	.byte	0x7b
	.sleb128 0
	.byte	0x20
	.byte	0x1a
	.byte	0x91
	.sleb128 -56
	.byte	0x6
	.byte	0x27
	.byte	0x38
	.byte	0x14
	.byte	0x14
	.byte	0x24
	.byte	0x17
	.byte	0x1f
	.byte	0x23
	.uleb128 0x20
	.byte	0x25
	.byte	0x21
	.byte	0x9f
	.4byte	.LVL833-.Ltext0
	.4byte	.LFE11-.Ltext0
	.2byte	0x1e
	.byte	0x71
	.sleb128 -56
	.byte	0x6
	.byte	0x20
	.byte	0x7b
	.sleb128 0
	.byte	0x1a
	.byte	0x71
	.sleb128 -48
	.byte	0x6
	.byte	0x27
	.byte	0x7b
	.sleb128 0
	.byte	0x20
	.byte	0x1a
	.byte	0x71
	.sleb128 -56
	.byte	0x6
	.byte	0x27
	.byte	0x38
	.byte	0x14
	.byte	0x14
	.byte	0x24
	.byte	0x17
	.byte	0x1f
	.byte	0x23
	.uleb128 0x20
	.byte	0x25
	.byte	0x21
	.byte	0x9f
	.4byte	0
	.4byte	0
.LVUS85:
	.uleb128 .LVU1087
	.uleb128 .LVU1113
	.uleb128 .LVU1113
	.uleb128 .LVU1122
	.uleb128 .LVU1133
	.uleb128 .LVU1155
	.uleb128 .LVU1155
	.uleb128 .LVU1159
	.uleb128 .LVU1159
	.uleb128 .LVU1160
	.uleb128 .LVU1160
	.uleb128 .LVU1176
	.uleb128 .LVU1176
	.uleb128 .LVU1188
	.uleb128 .LVU1188
	.uleb128 .LVU1206
	.uleb128 .LVU1206
	.uleb128 .LVU1217
	.uleb128 .LVU1227
	.uleb128 .LVU1252
	.uleb128 .LVU1252
	.uleb128 .LVU1258
	.uleb128 .LVU1282
	.uleb128 .LVU1303
	.uleb128 .LVU1323
	.uleb128 .LVU1344
	.uleb128 .LVU1344
	.uleb128 .LVU1350
	.uleb128 .LVU1350
	.uleb128 .LVU1360
	.uleb128 .LVU1377
	.uleb128 .LVU1386
	.uleb128 .LVU1417
	.uleb128 .LVU1440
	.uleb128 .LVU1440
	.uleb128 .LVU1442
	.uleb128 .LVU1442
	.uleb128 .LVU1452
	.uleb128 .LVU1472
	.uleb128 .LVU1492
	.uleb128 .LVU1512
	.uleb128 .LVU1535
	.uleb128 .LVU1535
	.uleb128 .LVU1541
	.uleb128 .LVU1541
	.uleb128 .LVU1550
	.uleb128 .LVU1567
	.uleb128 .LVU1576
	.uleb128 .LVU1604
	.uleb128 .LVU1628
	.uleb128 .LVU1628
	.uleb128 .LVU1633
	.uleb128 .LVU1633
	.uleb128 .LVU1639
	.uleb128 .LVU1660
	.uleb128 .LVU1678
	.uleb128 .LVU1698
	.uleb128 .LVU1721
	.uleb128 .LVU1721
	.uleb128 .LVU1727
	.uleb128 .LVU1727
	.uleb128 .LVU1736
	.uleb128 .LVU1753
	.uleb128 .LVU1762
	.uleb128 .LVU1790
	.uleb128 .LVU1814
	.uleb128 .LVU1814
	.uleb128 .LVU1816
	.uleb128 .LVU1816
	.uleb128 .LVU1826
	.uleb128 .LVU1846
	.uleb128 .LVU1866
	.uleb128 .LVU1886
	.uleb128 .LVU1909
	.uleb128 .LVU1909
	.uleb128 .LVU1915
	.uleb128 .LVU1915
	.uleb128 .LVU1924
	.uleb128 .LVU1941
	.uleb128 .LVU1950
	.uleb128 .LVU1978
	.uleb128 .LVU2003
	.uleb128 .LVU2032
	.uleb128 .LVU2050
	.uleb128 .LVU2068
	.uleb128 .LVU2091
	.uleb128 .LVU2091
	.uleb128 .LVU2096
	.uleb128 .LVU2128
	.uleb128 .LVU2149
	.uleb128 .LVU2165
	.uleb128 .LVU2189
	.uleb128 .LVU2189
	.uleb128 .LVU2202
	.uleb128 .LVU2202
	.uleb128 .LVU2207
	.uleb128 .LVU2207
	.uleb128 .LVU2210
	.uleb128 .LVU2220
	.uleb128 0
.LLST85:
	.4byte	.LVL401-.Ltext0
	.4byte	.LVL418-.Ltext0
	.2byte	0x1
	.byte	0x55
	.4byte	.LVL418-.Ltext0
	.4byte	.LVL421-.Ltext0
	.2byte	0x5
	.byte	0x91
	.sleb128 -52
	.byte	0x6
	.byte	0x23
	.uleb128 0x28
	.4byte	.LVL425-.Ltext0
	.4byte	.LVL431-.Ltext0
	.2byte	0x1
	.byte	0x55
	.4byte	.LVL431-.Ltext0
	.4byte	.LVL434-.Ltext0
	.2byte	0xa
	.byte	0x7e
	.sleb128 0
	.byte	0x20
	.byte	0x7d
	.sleb128 0
	.byte	0x1a
	.byte	0x75
	.sleb128 0
	.byte	0x27
	.byte	0x9f
	.4byte	.LVL434-.Ltext0
	.4byte	.LVL435-.Ltext0
	.2byte	0xc
	.byte	0x91
	.sleb128 -76
	.byte	0x6
	.byte	0x20
	.byte	0x7d
	.sleb128 0
	.byte	0x1a
	.byte	0x75
	.sleb128 0
	.byte	0x27
	.byte	0x9f
	.4byte	.LVL435-.Ltext0
	.4byte	.LVL444-.Ltext0
	.2byte	0x55
	.byte	0x72
	.sleb128 0
	.byte	0x75
	.sleb128 0
	.byte	0x27
	.byte	0x91
	.sleb128 -76
	.byte	0x6
	.byte	0x1a
	.byte	0x91
	.sleb128 -52
	.byte	0x6
	.byte	0x6
	.byte	0x91
	.sleb128 -52
	.byte	0x6
	.byte	0x23
	.uleb128 0x10
	.byte	0x6
	.byte	0x27
	.byte	0x91
	.sleb128 -52
	.byte	0x6
	.byte	0x23
	.uleb128 0x20
	.byte	0x6
	.byte	0x27
	.byte	0x35
	.byte	0x14
	.byte	0x14
	.byte	0x24
	.byte	0x17
	.byte	0x1f
	.byte	0x23
	.uleb128 0x20
	.byte	0x25
	.byte	0x21
	.byte	0x27
	.byte	0x91
	.sleb128 -52
	.byte	0x6
	.byte	0x6
	.byte	0x91
	.sleb128 -52
	.byte	0x6
	.byte	0x23
	.uleb128 0x10
	.byte	0x6
	.byte	0x27
	.byte	0x91
	.sleb128 -52
	.byte	0x6
	.byte	0x23
	.uleb128 0x20
	.byte	0x6
	.byte	0x27
	.byte	0x3e
	.byte	0x14
	.byte	0x14
	.byte	0x24
	.byte	0x17
	.byte	0x1f
	.byte	0x23
	.uleb128 0x20
	.byte	0x25
	.byte	0x21
	.byte	0x27
	.byte	0x91
	.sleb128 -52
	.byte	0x6
	.byte	0x23
	.uleb128 0x14
	.byte	0x6
	.byte	0x27
	.byte	0x91
	.sleb128 -76
	.byte	0x6
	.byte	0x20
	.byte	0x1a
	.byte	0x75
	.sleb128 0
	.byte	0x27
	.byte	0x9f
	.4byte	.LVL444-.Ltext0
	.4byte	.LVL447-.Ltext0
	.2byte	0xed
	.byte	0x91
	.sleb128 -52
	.byte	0x6
	.byte	0x23
	.uleb128 0x4
	.byte	0x6
	.byte	0x91
	.sleb128 -52
	.byte	0x6
	.byte	0x23
	.uleb128 0x14
	.byte	0x6
	.byte	0x27
	.byte	0x91
	.sleb128 -52
	.byte	0x6
	.byte	0x23
	.uleb128 0x24
	.byte	0x6
	.byte	0x27
	.byte	0x35
	.byte	0x14
	.byte	0x14
	.byte	0x24
	.byte	0x17
	.byte	0x1f
	.byte	0x23
	.uleb128 0x20
	.byte	0x25
	.byte	0x21
	.byte	0x91
	.sleb128 -52
	.byte	0x6
	.byte	0x23
	.uleb128 0x4
	.byte	0x6
	.byte	0x91
	.sleb128 -52
	.byte	0x6
	.byte	0x23
	.uleb128 0x14
	.byte	0x6
	.byte	0x27
	.byte	0x91
	.sleb128 -52
	.byte	0x6
	.byte	0x23
	.uleb128 0x24
	.byte	0x6
	.byte	0x27
	.byte	0x3e
	.byte	0x14
	.byte	0x14
	.byte	0x24
	.byte	0x17
	.byte	0x1f
	.byte	0x23
	.uleb128 0x20
	.byte	0x25
	.byte	0x21
	.byte	0x27
	.byte	0x91
	.sleb128 -52
	.byte	0x6
	.byte	0x23
	.uleb128 0x28
	.byte	0x6
	.byte	0x27
	.byte	0x3b
	.byte	0x14
	.byte	0x14
	.byte	0x24
	.byte	0x17
	.byte	0x1f
	.byte	0x23
	.uleb128 0x20
	.byte	0x25
	.byte	0x21
	.byte	0x72
	.sleb128 0
	.byte	0x27
	.byte	0x91
	.sleb128 -76
	.byte	0x6
	.byte	0x1a
	.byte	0x91
	.sleb128 -52
	.byte	0x6
	.byte	0x6
	.byte	0x91
	.sleb128 -52
	.byte	0x6
	.byte	0x23
	.uleb128 0x10
	.byte	0x6
	.byte	0x27
	.byte	0x91
	.sleb128 -52
	.byte	0x6
	.byte	0x23
	.uleb128 0x20
	.byte	0x6
	.byte	0x27
	.byte	0x35
	.byte	0x14
	.byte	0x14
	.byte	0x24
	.byte	0x17
	.byte	0x1f
	.byte	0x23
	.uleb128 0x20
	.byte	0x25
	.byte	0x21
	.byte	0x27
	.byte	0x91
	.sleb128 -52
	.byte	0x6
	.byte	0x6
	.byte	0x91
	.sleb128 -52
	.byte	0x6
	.byte	0x23
	.uleb128 0x10
	.byte	0x6
	.byte	0x27
	.byte	0x91
	.sleb128 -52
	.byte	0x6
	.byte	0x23
	.uleb128 0x20
	.byte	0x6
	.byte	0x27
	.byte	0x3e
	.byte	0x14
	.byte	0x14
	.byte	0x24
	.byte	0x17
	.byte	0x1f
	.byte	0x23
	.uleb128 0x20
	.byte	0x25
	.byte	0x21
	.byte	0x27
	.byte	0x91
	.sleb128 -52
	.byte	0x6
	.byte	0x23
	.uleb128 0x14
	.byte	0x6
	.byte	0x27
	.byte	0x91
	.sleb128 -76
	.byte	0x6
	.byte	0x20
	.byte	0x1a
	.byte	0x91
	.sleb128 -52
	.byte	0x6
	.byte	0x23
	.uleb128 0x4
	.byte	0x6
	.byte	0x91
	.sleb128 -52
	.byte	0x6
	.byte	0x23
	.uleb128 0x14
	.byte	0x6
	.byte	0x27
	.byte	0x91
	.sleb128 -52
	.byte	0x6
	.byte	0x23
	.uleb128 0x24
	.byte	0x6
	.byte	0x27
	.byte	0x35
	.byte	0x14
	.byte	0x14
	.byte	0x24
	.byte	0x17
	.byte	0x1f
	.byte	0x23
	.uleb128 0x20
	.byte	0x25
	.byte	0x21
	.byte	0x91
	.sleb128 -52
	.byte	0x6
	.byte	0x23
	.uleb128 0x4
	.byte	0x6
	.byte	0x91
	.sleb128 -52
	.byte	0x6
	.byte	0x23
	.uleb128 0x14
	.byte	0x6
	.byte	0x27
	.byte	0x91
	.sleb128 -52
	.byte	0x6
	.byte	0x23
	.uleb128 0x24
	.byte	0x6
	.byte	0x27
	.byte	0x3e
	.byte	0x14
	.byte	0x14
	.byte	0x24
	.byte	0x17
	.byte	0x1f
	.byte	0x23
	.uleb128 0x20
	.byte	0x25
	.byte	0x21
	.byte	0x27
	.byte	0x91
	.sleb128 -52
	.byte	0x6
	.byte	0x23
	.uleb128 0x28
	.byte	0x6
	.byte	0x27
	.byte	0x3b
	.byte	0x14
	.byte	0x14
	.byte	0x24
	.byte	0x17
	.byte	0x1f
	.byte	0x23
	.uleb128 0x20
	.byte	0x25
	.byte	0x21
	.byte	0x27
	.byte	0x9f
	.4byte	.LVL447-.Ltext0
	.4byte	.LVL458-.Ltext0
	.2byte	0x1
	.byte	0x53
	.4byte	.LVL458-.Ltext0
	.4byte	.LVL462-.Ltext0
	.2byte	0xb8
	.byte	0x91
	.sleb128 -52
	.byte	0x6
	.byte	0x23
	.uleb128 0xc
	.byte	0x6
	.byte	0x91
	.sleb128 -52
	.byte	0x6
	.byte	0x23
	.uleb128 0x1c
	.byte	0x6
	.byte	0x27
	.byte	0x91
	.sleb128 -52
	.byte	0x6
	.byte	0x23
	.uleb128 0x2c
	.byte	0x6
	.byte	0x27
	.byte	0x35
	.byte	0x14
	.byte	0x14
	.byte	0x24
	.byte	0x17
	.byte	0x1f
	.byte	0x23
	.uleb128 0x20
	.byte	0x25
	.byte	0x21
	.byte	0x91
	.sleb128 -52
	.byte	0x6
	.byte	0x23
	.uleb128 0xc
	.byte	0x6
	.byte	0x91
	.sleb128 -52
	.byte	0x6
	.byte	0x23
	.uleb128 0x1c
	.byte	0x6
	.byte	0x27
	.byte	0x91
	.sleb128 -52
	.byte	0x6
	.byte	0x23
	.uleb128 0x2c
	.byte	0x6
	.byte	0x27
	.byte	0x3e
	.byte	0x14
	.byte	0x14
	.byte	0x24
	.byte	0x17
	.byte	0x1f
	.byte	0x23
	.uleb128 0x20
	.byte	0x25
	.byte	0x21
	.byte	0x27
	.byte	0x91
	.sleb128 -52
	.byte	0x6
	.byte	0x23
	.uleb128 0x20
	.byte	0x6
	.byte	0x27
	.byte	0x3b
	.byte	0x14
	.byte	0x14
	.byte	0x24
	.byte	0x17
	.byte	0x1f
	.byte	0x23
	.uleb128 0x20
	.byte	0x25
	.byte	0x21
	.byte	0x72
	.sleb128 0
	.byte	0x27
	.byte	0x91
	.sleb128 -64
	.byte	0x6
	.byte	0x1a
	.byte	0x91
	.sleb128 -48
	.byte	0x6
	.byte	0x27
	.byte	0x91
	.sleb128 -64
	.byte	0x6
	.byte	0x20
	.byte	0x1a
	.byte	0x91
	.sleb128 -52
	.byte	0x6
	.byte	0x23
	.uleb128 0xc
	.byte	0x6
	.byte	0x91
	.sleb128 -52
	.byte	0x6
	.byte	0x23
	.uleb128 0x1c
	.byte	0x6
	.byte	0x27
	.byte	0x91
	.sleb128 -52
	.byte	0x6
	.byte	0x23
	.uleb128 0x2c
	.byte	0x6
	.byte	0x27
	.byte	0x35
	.byte	0x14
	.byte	0x14
	.byte	0x24
	.byte	0x17
	.byte	0x1f
	.byte	0x23
	.uleb128 0x20
	.byte	0x25
	.byte	0x21
	.byte	0x91
	.sleb128 -52
	.byte	0x6
	.byte	0x23
	.uleb128 0xc
	.byte	0x6
	.byte	0x91
	.sleb128 -52
	.byte	0x6
	.byte	0x23
	.uleb128 0x1c
	.byte	0x6
	.byte	0x27
	.byte	0x91
	.sleb128 -52
	.byte	0x6
	.byte	0x23
	.uleb128 0x2c
	.byte	0x6
	.byte	0x27
	.byte	0x3e
	.byte	0x14
	.byte	0x14
	.byte	0x24
	.byte	0x17
	.byte	0x1f
	.byte	0x23
	.uleb128 0x20
	.byte	0x25
	.byte	0x21
	.byte	0x27
	.byte	0x91
	.sleb128 -52
	.byte	0x6
	.byte	0x23
	.uleb128 0x20
	.byte	0x6
	.byte	0x27
	.byte	0x3b
	.byte	0x14
	.byte	0x14
	.byte	0x24
	.byte	0x17
	.byte	0x1f
	.byte	0x23
	.uleb128 0x20
	.byte	0x25
	.byte	0x21
	.byte	0x27
	.byte	0x38
	.byte	0x14
	.byte	0x14
	.byte	0x24
	.byte	0x17
	.byte	0x1f
	.byte	0x23
	.uleb128 0x20
	.byte	0x25
	.byte	0x21
	.byte	0x9f
	.4byte	.LVL464-.Ltext0
	.4byte	.LVL470-.Ltext0
	.2byte	0x1
	.byte	0x53
	.4byte	.LVL470-.Ltext0
	.4byte	.LVL473-.Ltext0
	.2byte	0xa
	.byte	0x7c
	.sleb128 0
	.byte	0x20
	.byte	0x78
	.sleb128 0
	.byte	0x1a
	.byte	0x73
	.sleb128 0
	.byte	0x27
	.byte	0x9f
	.4byte	.LVL482-.Ltext0
	.4byte	.LVL497-.Ltext0
	.2byte	0x1
	.byte	0x5f
	.4byte	.LVL500-.Ltext0
	.4byte	.LVL506-.Ltext0
	.2byte	0x1
	.byte	0x53
	.4byte	.LVL506-.Ltext0
	.4byte	.LVL509-.Ltext0
	.2byte	0xa
	.byte	0x7a
	.sleb128 0
	.byte	0x20
	.byte	0x7f
	.sleb128 0
	.byte	0x1a
	.byte	0x73
	.sleb128 0
	.byte	0x27
	.byte	0x9f
	.4byte	.LVL509-.Ltext0
	.4byte	.LVL516-.Ltext0
	.2byte	0xc
	.byte	0x91
	.sleb128 -76
	.byte	0x6
	.byte	0x20
	.byte	0x7f
	.sleb128 0
	.byte	0x1a
	.byte	0x73
	.sleb128 0
	.byte	0x27
	.byte	0x9f
	.4byte	.LVL520-.Ltext0
	.4byte	.LVL524-.Ltext0
	.2byte	0x1
	.byte	0x5a
	.4byte	.LVL536-.Ltext0
	.4byte	.LVL541-.Ltext0
	.2byte	0x1
	.byte	0x53
	.4byte	.LVL541-.Ltext0
	.4byte	.LVL542-.Ltext0
	.2byte	0xa
	.byte	0x7c
	.sleb128 0
	.byte	0x20
	.byte	0x7e
	.sleb128 0
	.byte	0x1a
	.byte	0x73
	.sleb128 0
	.byte	0x27
	.byte	0x9f
	.4byte	.LVL542-.Ltext0
	.4byte	.LVL548-.Ltext0
	.2byte	0xc
	.byte	0x91
	.sleb128 -76
	.byte	0x6
	.byte	0x20
	.byte	0x7e
	.sleb128 0
	.byte	0x1a
	.byte	0x73
	.sleb128 0
	.byte	0x27
	.byte	0x9f
	.4byte	.LVL554-.Ltext0
	.4byte	.LVL567-.Ltext0
	.2byte	0x1
	.byte	0x53
	.4byte	.LVL573-.Ltext0
	.4byte	.LVL580-.Ltext0
	.2byte	0x1
	.byte	0x53
	.4byte	.LVL580-.Ltext0
	.4byte	.LVL583-.Ltext0
	.2byte	0xa
	.byte	0x7a
	.sleb128 0
	.byte	0x20
	.byte	0x7f
	.sleb128 0
	.byte	0x1a
	.byte	0x73
	.sleb128 0
	.byte	0x27
	.byte	0x9f
	.4byte	.LVL583-.Ltext0
	.4byte	.LVL589-.Ltext0
	.2byte	0xc
	.byte	0x91
	.sleb128 -76
	.byte	0x6
	.byte	0x20
	.byte	0x7f
	.sleb128 0
	.byte	0x1a
	.byte	0x73
	.sleb128 0
	.byte	0x27
	.byte	0x9f
	.4byte	.LVL593-.Ltext0
	.4byte	.LVL597-.Ltext0
	.2byte	0x1
	.byte	0x5a
	.4byte	.LVL608-.Ltext0
	.4byte	.LVL614-.Ltext0
	.2byte	0x1
	.byte	0x53
	.4byte	.LVL614-.Ltext0
	.4byte	.LVL616-.Ltext0
	.2byte	0xa
	.byte	0x7c
	.sleb128 0
	.byte	0x20
	.byte	0x7e
	.sleb128 0
	.byte	0x1a
	.byte	0x73
	.sleb128 0
	.byte	0x27
	.byte	0x9f
	.4byte	.LVL616-.Ltext0
	.4byte	.LVL620-.Ltext0
	.2byte	0xc
	.byte	0x91
	.sleb128 -76
	.byte	0x6
	.byte	0x20
	.byte	0x7e
	.sleb128 0
	.byte	0x1a
	.byte	0x73
	.sleb128 0
	.byte	0x27
	.byte	0x9f
	.4byte	.LVL627-.Ltext0
	.4byte	.LVL638-.Ltext0
	.2byte	0x1
	.byte	0x53
	.4byte	.LVL644-.Ltext0
	.4byte	.LVL651-.Ltext0
	.2byte	0x1
	.byte	0x53
	.4byte	.LVL651-.Ltext0
	.4byte	.LVL654-.Ltext0
	.2byte	0xa
	.byte	0x7a
	.sleb128 0
	.byte	0x20
	.byte	0x7f
	.sleb128 0
	.byte	0x1a
	.byte	0x73
	.sleb128 0
	.byte	0x27
	.byte	0x9f
	.4byte	.LVL654-.Ltext0
	.4byte	.LVL660-.Ltext0
	.2byte	0xc
	.byte	0x91
	.sleb128 -76
	.byte	0x6
	.byte	0x20
	.byte	0x7f
	.sleb128 0
	.byte	0x1a
	.byte	0x73
	.sleb128 0
	.byte	0x27
	.byte	0x9f
	.4byte	.LVL664-.Ltext0
	.4byte	.LVL668-.Ltext0
	.2byte	0x1
	.byte	0x5a
	.4byte	.LVL679-.Ltext0
	.4byte	.LVL685-.Ltext0
	.2byte	0x1
	.byte	0x53
	.4byte	.LVL685-.Ltext0
	.4byte	.LVL686-.Ltext0
	.2byte	0xa
	.byte	0x7c
	.sleb128 0
	.byte	0x20
	.byte	0x7e
	.sleb128 0
	.byte	0x1a
	.byte	0x73
	.sleb128 0
	.byte	0x27
	.byte	0x9f
	.4byte	.LVL686-.Ltext0
	.4byte	.LVL692-.Ltext0
	.2byte	0xc
	.byte	0x91
	.sleb128 -76
	.byte	0x6
	.byte	0x20
	.byte	0x7e
	.sleb128 0
	.byte	0x1a
	.byte	0x73
	.sleb128 0
	.byte	0x27
	.byte	0x9f
	.4byte	.LVL698-.Ltext0
	.4byte	.LVL711-.Ltext0
	.2byte	0x1
	.byte	0x53
	.4byte	.LVL717-.Ltext0
	.4byte	.LVL724-.Ltext0
	.2byte	0x1
	.byte	0x53
	.4byte	.LVL724-.Ltext0
	.4byte	.LVL727-.Ltext0
	.2byte	0xa
	.byte	0x7a
	.sleb128 0
	.byte	0x20
	.byte	0x7f
	.sleb128 0
	.byte	0x1a
	.byte	0x73
	.sleb128 0
	.byte	0x27
	.byte	0x9f
	.4byte	.LVL727-.Ltext0
	.4byte	.LVL733-.Ltext0
	.2byte	0xc
	.byte	0x91
	.sleb128 -76
	.byte	0x6
	.byte	0x20
	.byte	0x7f
	.sleb128 0
	.byte	0x1a
	.byte	0x73
	.sleb128 0
	.byte	0x27
	.byte	0x9f
	.4byte	.LVL737-.Ltext0
	.4byte	.LVL741-.Ltext0
	.2byte	0x1
	.byte	0x5a
	.4byte	.LVL752-.Ltext0
	.4byte	.LVL760-.Ltext0
	.2byte	0x1
	.byte	0x53
	.4byte	.LVL764-.Ltext0
	.4byte	.LVL774-.Ltext0
	.2byte	0x1
	.byte	0x53
	.4byte	.LVL776-.Ltext0
	.4byte	.LVL783-.Ltext0
	.2byte	0x1
	.byte	0x53
	.4byte	.LVL783-.Ltext0
	.4byte	.LVL787-.Ltext0
	.2byte	0xa
	.byte	0x7d
	.sleb128 0
	.byte	0x20
	.byte	0x78
	.sleb128 0
	.byte	0x1a
	.byte	0x73
	.sleb128 0
	.byte	0x27
	.byte	0x9f
	.4byte	.LVL796-.Ltext0
	.4byte	.LVL809-.Ltext0
	.2byte	0x1
	.byte	0x53
	.4byte	.LVL811-.Ltext0
	.4byte	.LVL820-.Ltext0
	.2byte	0x1
	.byte	0x53
	.4byte	.LVL820-.Ltext0
	.4byte	.LVL821-.Ltext0
	.2byte	0xa
	.byte	0x7c
	.sleb128 0
	.byte	0x20
	.byte	0x76
	.sleb128 0
	.byte	0x1a
	.byte	0x73
	.sleb128 0
	.byte	0x27
	.byte	0x9f
	.4byte	.LVL821-.Ltext0
	.4byte	.LVL822-.Ltext0
	.2byte	0x18
	.byte	0x7e
	.sleb128 0
	.byte	0x9
	.byte	0xed
	.byte	0x27
	.byte	0x78
	.sleb128 0
	.byte	0x1a
	.byte	0x91
	.sleb128 -68
	.byte	0x6
	.byte	0x27
	.byte	0x38
	.byte	0x14
	.byte	0x14
	.byte	0x24
	.byte	0x17
	.byte	0x1f
	.byte	0x23
	.uleb128 0x20
	.byte	0x25
	.byte	0x21
	.byte	0x9f
	.4byte	.LVL822-.Ltext0
	.4byte	.LVL824-.Ltext0
	.2byte	0x15
	.byte	0x74
	.sleb128 0
	.byte	0x78
	.sleb128 0
	.byte	0x1a
	.byte	0x91
	.sleb128 -68
	.byte	0x6
	.byte	0x27
	.byte	0x38
	.byte	0x14
	.byte	0x14
	.byte	0x24
	.byte	0x17
	.byte	0x1f
	.byte	0x23
	.uleb128 0x20
	.byte	0x25
	.byte	0x21
	.byte	0x9f
	.4byte	.LVL829-.Ltext0
	.4byte	.LFE11-.Ltext0
	.2byte	0x1
	.byte	0x54
	.4byte	0
	.4byte	0
.LVUS86:
	.uleb128 .LVU1087
	.uleb128 .LVU1094
	.uleb128 .LVU1129
	.uleb128 .LVU1134
	.uleb128 .LVU1134
	.uleb128 .LVU1162
	.uleb128 .LVU1162
	.uleb128 .LVU1167
	.uleb128 .LVU1167
	.uleb128 .LVU1173
	.uleb128 .LVU1173
	.uleb128 .LVU1185
	.uleb128 .LVU1185
	.uleb128 .LVU1209
	.uleb128 .LVU1209
	.uleb128 .LVU1223
	.uleb128 .LVU1228
	.uleb128 .LVU1255
	.uleb128 .LVU1255
	.uleb128 .LVU1257
	.uleb128 .LVU1257
	.uleb128 .LVU1259
	.uleb128 .LVU1279
	.uleb128 .LVU1306
	.uleb128 .LVU1324
	.uleb128 .LVU1348
	.uleb128 .LVU1348
	.uleb128 .LVU1351
	.uleb128 .LVU1351
	.uleb128 .LVU1355
	.uleb128 .LVU1374
	.uleb128 .LVU1400
	.uleb128 .LVU1418
	.uleb128 .LVU1444
	.uleb128 .LVU1444
	.uleb128 .LVU1453
	.uleb128 .LVU1469
	.uleb128 .LVU1495
	.uleb128 .LVU1513
	.uleb128 .LVU1539
	.uleb128 .LVU1539
	.uleb128 .LVU1542
	.uleb128 .LVU1542
	.uleb128 .LVU1545
	.uleb128 .LVU1564
	.uleb128 .LVU1589
	.uleb128 .LVU1605
	.uleb128 .LVU1631
	.uleb128 .LVU1631
	.uleb128 .LVU1641
	.uleb128 .LVU1657
	.uleb128 .LVU1681
	.uleb128 .LVU1699
	.uleb128 .LVU1725
	.uleb128 .LVU1725
	.uleb128 .LVU1728
	.uleb128 .LVU1728
	.uleb128 .LVU1731
	.uleb128 .LVU1750
	.uleb128 .LVU1775
	.uleb128 .LVU1791
	.uleb128 .LVU1818
	.uleb128 .LVU1818
	.uleb128 .LVU1827
	.uleb128 .LVU1843
	.uleb128 .LVU1869
	.uleb128 .LVU1887
	.uleb128 .LVU1913
	.uleb128 .LVU1913
	.uleb128 .LVU1916
	.uleb128 .LVU1916
	.uleb128 .LVU1919
	.uleb128 .LVU1938
	.uleb128 .LVU1963
	.uleb128 .LVU1979
	.uleb128 .LVU2006
	.uleb128 .LVU2029
	.uleb128 .LVU2052
	.uleb128 .LVU2069
	.uleb128 .LVU2098
	.uleb128 .LVU2098
	.uleb128 .LVU2102
	.uleb128 .LVU2125
	.uleb128 .LVU2146
	.uleb128 .LVU2161
	.uleb128 .LVU2166
	.uleb128 .LVU2166
	.uleb128 .LVU2179
	.uleb128 .LVU2179
	.uleb128 .LVU2180
	.uleb128 .LVU2180
	.uleb128 .LVU2192
	.uleb128 .LVU2192
	.uleb128 .LVU2199
	.uleb128 .LVU2199
	.uleb128 .LVU2214
.LLST86:
	.4byte	.LVL401-.Ltext0
	.4byte	.LVL406-.Ltext0
	.2byte	0x2
	.byte	0x91
	.sleb128 -20
	.4byte	.LVL425-.Ltext0
	.4byte	.LVL425-.Ltext0
	.2byte	0xa
	.byte	0x91
	.sleb128 -52
	.byte	0x6
	.byte	0x23
	.uleb128 0x2c
	.byte	0x6
	.byte	0x77
	.sleb128 0
	.byte	0x27
	.byte	0x9f
	.4byte	.LVL425-.Ltext0
	.4byte	.LVL436-.Ltext0
	.2byte	0x1
	.byte	0x54
	.4byte	.LVL436-.Ltext0
	.4byte	.LVL439-.Ltext0
	.2byte	0xc
	.byte	0x91
	.sleb128 -72
	.byte	0x6
	.byte	0x20
	.byte	0x7f
	.sleb128 0
	.byte	0x1a
	.byte	0x74
	.sleb128 0
	.byte	0x27
	.byte	0x9f
	.4byte	.LVL439-.Ltext0
	.4byte	.LVL442-.Ltext0
	.2byte	0x59
	.byte	0x72
	.sleb128 0
	.byte	0x74
	.sleb128 0
	.byte	0x27
	.byte	0x91
	.sleb128 -72
	.byte	0x6
	.byte	0x1a
	.byte	0x91
	.sleb128 -52
	.byte	0x6
	.byte	0x23
	.uleb128 0x4
	.byte	0x6
	.byte	0x91
	.sleb128 -52
	.byte	0x6
	.byte	0x23
	.uleb128 0x14
	.byte	0x6
	.byte	0x27
	.byte	0x91
	.sleb128 -52
	.byte	0x6
	.byte	0x23
	.uleb128 0x24
	.byte	0x6
	.byte	0x27
	.byte	0x35
	.byte	0x14
	.byte	0x14
	.byte	0x24
	.byte	0x17
	.byte	0x1f
	.byte	0x23
	.uleb128 0x20
	.byte	0x25
	.byte	0x21
	.byte	0x27
	.byte	0x91
	.sleb128 -52
	.byte	0x6
	.byte	0x23
	.uleb128 0x4
	.byte	0x6
	.byte	0x91
	.sleb128 -52
	.byte	0x6
	.byte	0x23
	.uleb128 0x14
	.byte	0x6
	.byte	0x27
	.byte	0x91
	.sleb128 -52
	.byte	0x6
	.byte	0x23
	.uleb128 0x24
	.byte	0x6
	.byte	0x27
	.byte	0x3e
	.byte	0x14
	.byte	0x14
	.byte	0x24
	.byte	0x17
	.byte	0x1f
	.byte	0x23
	.uleb128 0x20
	.byte	0x25
	.byte	0x21
	.byte	0x27
	.byte	0x91
	.sleb128 -52
	.byte	0x6
	.byte	0x23
	.uleb128 0x18
	.byte	0x6
	.byte	0x27
	.byte	0x91
	.sleb128 -72
	.byte	0x6
	.byte	0x20
	.byte	0x1a
	.byte	0x74
	.sleb128 0
	.byte	0x27
	.byte	0x9f
	.4byte	.LVL442-.Ltext0
	.4byte	.LVL447-.Ltext0
	.2byte	0xf1
	.byte	0x91
	.sleb128 -52
	.byte	0x6
	.byte	0x23
	.uleb128 0x8
	.byte	0x6
	.byte	0x91
	.sleb128 -52
	.byte	0x6
	.byte	0x23
	.uleb128 0x18
	.byte	0x6
	.byte	0x27
	.byte	0x91
	.sleb128 -52
	.byte	0x6
	.byte	0x23
	.uleb128 0x28
	.byte	0x6
	.byte	0x27
	.byte	0x35
	.byte	0x14
	.byte	0x14
	.byte	0x24
	.byte	0x17
	.byte	0x1f
	.byte	0x23
	.uleb128 0x20
	.byte	0x25
	.byte	0x21
	.byte	0x91
	.sleb128 -52
	.byte	0x6
	.byte	0x23
	.uleb128 0x8
	.byte	0x6
	.byte	0x91
	.sleb128 -52
	.byte	0x6
	.byte	0x23
	.uleb128 0x18
	.byte	0x6
	.byte	0x27
	.byte	0x91
	.sleb128 -52
	.byte	0x6
	.byte	0x23
	.uleb128 0x28
	.byte	0x6
	.byte	0x27
	.byte	0x3e
	.byte	0x14
	.byte	0x14
	.byte	0x24
	.byte	0x17
	.byte	0x1f
	.byte	0x23
	.uleb128 0x20
	.byte	0x25
	.byte	0x21
	.byte	0x27
	.byte	0x91
	.sleb128 -52
	.byte	0x6
	.byte	0x23
	.uleb128 0x2c
	.byte	0x6
	.byte	0x27
	.byte	0x3b
	.byte	0x14
	.byte	0x14
	.byte	0x24
	.byte	0x17
	.byte	0x1f
	.byte	0x23
	.uleb128 0x20
	.byte	0x25
	.byte	0x21
	.byte	0x72
	.sleb128 0
	.byte	0x27
	.byte	0x91
	.sleb128 -72
	.byte	0x6
	.byte	0x1a
	.byte	0x91
	.sleb128 -52
	.byte	0x6
	.byte	0x23
	.uleb128 0x4
	.byte	0x6
	.byte	0x91
	.sleb128 -52
	.byte	0x6
	.byte	0x23
	.uleb128 0x14
	.byte	0x6
	.byte	0x27
	.byte	0x91
	.sleb128 -52
	.byte	0x6
	.byte	0x23
	.uleb128 0x24
	.byte	0x6
	.byte	0x27
	.byte	0x35
	.byte	0x14
	.byte	0x14
	.byte	0x24
	.byte	0x17
	.byte	0x1f
	.byte	0x23
	.uleb128 0x20
	.byte	0x25
	.byte	0x21
	.byte	0x27
	.byte	0x91
	.sleb128 -52
	.byte	0x6
	.byte	0x23
	.uleb128 0x4
	.byte	0x6
	.byte	0x91
	.sleb128 -52
	.byte	0x6
	.byte	0x23
	.uleb128 0x14
	.byte	0x6
	.byte	0x27
	.byte	0x91
	.sleb128 -52
	.byte	0x6
	.byte	0x23
	.uleb128 0x24
	.byte	0x6
	.byte	0x27
	.byte	0x3e
	.byte	0x14
	.byte	0x14
	.byte	0x24
	.byte	0x17
	.byte	0x1f
	.byte	0x23
	.uleb128 0x20
	.byte	0x25
	.byte	0x21
	.byte	0x27
	.byte	0x91
	.sleb128 -52
	.byte	0x6
	.byte	0x23
	.uleb128 0x18
	.byte	0x6
	.byte	0x27
	.byte	0x91
	.sleb128 -72
	.byte	0x6
	.byte	0x20
	.byte	0x1a
	.byte	0x91
	.sleb128 -52
	.byte	0x6
	.byte	0x23
	.uleb128 0x8
	.byte	0x6
	.byte	0x91
	.sleb128 -52
	.byte	0x6
	.byte	0x23
	.uleb128 0x18
	.byte	0x6
	.byte	0x27
	.byte	0x91
	.sleb128 -52
	.byte	0x6
	.byte	0x23
	.uleb128 0x28
	.byte	0x6
	.byte	0x27
	.byte	0x35
	.byte	0x14
	.byte	0x14
	.byte	0x24
	.byte	0x17
	.byte	0x1f
	.byte	0x23
	.uleb128 0x20
	.byte	0x25
	.byte	0x21
	.byte	0x91
	.sleb128 -52
	.byte	0x6
	.byte	0x23
	.uleb128 0x8
	.byte	0x6
	.byte	0x91
	.sleb128 -52
	.byte	0x6
	.byte	0x23
	.uleb128 0x18
	.byte	0x6
	.byte	0x27
	.byte	0x91
	.sleb128 -52
	.byte	0x6
	.byte	0x23
	.uleb128 0x28
	.byte	0x6
	.byte	0x27
	.byte	0x3e
	.byte	0x14
	.byte	0x14
	.byte	0x24
	.byte	0x17
	.byte	0x1f
	.byte	0x23
	.uleb128 0x20
	.byte	0x25
	.byte	0x21
	.byte	0x27
	.byte	0x91
	.sleb128 -52
	.byte	0x6
	.byte	0x23
	.uleb128 0x2c
	.byte	0x6
	.byte	0x27
	.byte	0x3b
	.byte	0x14
	.byte	0x14
	.byte	0x24
	.byte	0x17
	.byte	0x1f
	.byte	0x23
	.uleb128 0x20
	.byte	0x25
	.byte	0x21
	.byte	0x27
	.byte	0x9f
	.4byte	.LVL447-.Ltext0
	.4byte	.LVL461-.Ltext0
	.2byte	0x1
	.byte	0x56
	.4byte	.LVL461-.Ltext0
	.4byte	.LVL464-.Ltext0
	.2byte	0xf3
	.byte	0x72
	.sleb128 0
	.byte	0x71
	.sleb128 0
	.byte	0x6
	.byte	0x27
	.byte	0x91
	.sleb128 -52
	.byte	0x6
	.byte	0x6
	.byte	0x91
	.sleb128 -52
	.byte	0x6
	.byte	0x23
	.uleb128 0x10
	.byte	0x6
	.byte	0x27
	.byte	0x91
	.sleb128 -52
	.byte	0x6
	.byte	0x23
	.uleb128 0x20
	.byte	0x6
	.byte	0x27
	.byte	0x35
	.byte	0x14
	.byte	0x14
	.byte	0x24
	.byte	0x17
	.byte	0x1f
	.byte	0x23
	.uleb128 0x20
	.byte	0x25
	.byte	0x21
	.byte	0x91
	.sleb128 -52
	.byte	0x6
	.byte	0x6
	.byte	0x91
	.sleb128 -52
	.byte	0x6
	.byte	0x23
	.uleb128 0x10
	.byte	0x6
	.byte	0x27
	.byte	0x91
	.sleb128 -52
	.byte	0x6
	.byte	0x23
	.uleb128 0x20
	.byte	0x6
	.byte	0x27
	.byte	0x3e
	.byte	0x14
	.byte	0x14
	.byte	0x24
	.byte	0x17
	.byte	0x1f
	.byte	0x23
	.uleb128 0x20
	.byte	0x25
	.byte	0x21
	.byte	0x27
	.byte	0x91
	.sleb128 -52
	.byte	0x6
	.byte	0x23
	.uleb128 0x24
	.byte	0x6
	.byte	0x27
	.byte	0x3b
	.byte	0x14
	.byte	0x14
	.byte	0x24
	.byte	0x17
	.byte	0x1f
	.byte	0x23
	.uleb128 0x20
	.byte	0x25
	.byte	0x21
	.byte	0x72
	.sleb128 0
	.byte	0x27
	.byte	0x71
	.sleb128 0
	.byte	0x6
	.byte	0x1a
	.byte	0x91
	.sleb128 -52
	.byte	0x6
	.byte	0x23
	.uleb128 0xc
	.byte	0x6
	.byte	0x91
	.sleb128 -52
	.byte	0x6
	.byte	0x23
	.uleb128 0x1c
	.byte	0x6
	.byte	0x27
	.byte	0x91
	.sleb128 -52
	.byte	0x6
	.byte	0x23
	.uleb128 0x2c
	.byte	0x6
	.byte	0x27
	.byte	0x35
	.byte	0x14
	.byte	0x14
	.byte	0x24
	.byte	0x17
	.byte	0x1f
	.byte	0x23
	.uleb128 0x20
	.byte	0x25
	.byte	0x21
	.byte	0x27
	.byte	0x91
	.sleb128 -52
	.byte	0x6
	.byte	0x23
	.uleb128 0xc
	.byte	0x6
	.byte	0x91
	.sleb128 -52
	.byte	0x6
	.byte	0x23
	.uleb128 0x1c
	.byte	0x6
	.byte	0x27
	.byte	0x91
	.sleb128 -52
	.byte	0x6
	.byte	0x23
	.uleb128 0x2c
	.byte	0x6
	.byte	0x27
	.byte	0x3e
	.byte	0x14
	.byte	0x14
	.byte	0x24
	.byte	0x17
	.byte	0x1f
	.byte	0x23
	.uleb128 0x20
	.byte	0x25
	.byte	0x21
	.byte	0x27
	.byte	0x91
	.sleb128 -52
	.byte	0x6
	.byte	0x23
	.uleb128 0x10
	.byte	0x6
	.byte	0x27
	.byte	0x1a
	.byte	0x91
	.sleb128 -52
	.byte	0x6
	.byte	0x6
	.byte	0x91
	.sleb128 -52
	.byte	0x6
	.byte	0x23
	.uleb128 0x10
	.byte	0x6
	.byte	0x27
	.byte	0x91
	.sleb128 -52
	.byte	0x6
	.byte	0x23
	.uleb128 0x20
	.byte	0x6
	.byte	0x27
	.byte	0x35
	.byte	0x14
	.byte	0x14
	.byte	0x24
	.byte	0x17
	.byte	0x1f
	.byte	0x23
	.uleb128 0x20
	.byte	0x25
	.byte	0x21
	.byte	0x91
	.sleb128 -52
	.byte	0x6
	.byte	0x6
	.byte	0x91
	.sleb128 -52
	.byte	0x6
	.byte	0x23
	.uleb128 0x10
	.byte	0x6
	.byte	0x27
	.byte	0x91
	.sleb128 -52
	.byte	0x6
	.byte	0x23
	.uleb128 0x20
	.byte	0x6
	.byte	0x27
	.byte	0x3e
	.byte	0x14
	.byte	0x14
	.byte	0x24
	.byte	0x17
	.byte	0x1f
	.byte	0x23
	.uleb128 0x20
	.byte	0x25
	.byte	0x21
	.byte	0x27
	.byte	0x91
	.sleb128 -52
	.byte	0x6
	.byte	0x23
	.uleb128 0x24
	.byte	0x6
	.byte	0x27
	.byte	0x3b
	.byte	0x14
	.byte	0x14
	.byte	0x24
	.byte	0x17
	.byte	0x1f
	.byte	0x23
	.uleb128 0x20
	.byte	0x25
	.byte	0x21
	.byte	0x27
	.byte	0x38
	.byte	0x14
	.byte	0x14
	.byte	0x24
	.byte	0x17
	.byte	0x1f
	.byte	0x23
	.uleb128 0x20
	.byte	0x25
	.byte	0x21
	.byte	0x9f
	.4byte	.LVL464-.Ltext0
	.4byte	.LVL471-.Ltext0
	.2byte	0x1
	.byte	0x56
	.4byte	.LVL471-.Ltext0
	.4byte	.LVL472-.Ltext0
	.2byte	0xa
	.byte	0x7e
	.sleb128 0
	.byte	0x20
	.byte	0x7d
	.sleb128 0
	.byte	0x1a
	.byte	0x76
	.sleb128 0
	.byte	0x27
	.byte	0x9f
	.4byte	.LVL472-.Ltext0
	.4byte	.LVL474-.Ltext0
	.2byte	0xc
	.byte	0x91
	.sleb128 -72
	.byte	0x6
	.byte	0x20
	.byte	0x7d
	.sleb128 0
	.byte	0x1a
	.byte	0x76
	.sleb128 0
	.byte	0x27
	.byte	0x9f
	.4byte	.LVL482-.Ltext0
	.4byte	.LVL499-.Ltext0
	.2byte	0x1
	.byte	0x54
	.4byte	.LVL500-.Ltext0
	.4byte	.LVL508-.Ltext0
	.2byte	0x1
	.byte	0x54
	.4byte	.LVL508-.Ltext0
	.4byte	.LVL510-.Ltext0
	.2byte	0xa
	.byte	0x7b
	.sleb128 0
	.byte	0x20
	.byte	0x7e
	.sleb128 0
	.byte	0x1a
	.byte	0x74
	.sleb128 0
	.byte	0x27
	.byte	0x9f
	.4byte	.LVL510-.Ltext0
	.4byte	.LVL514-.Ltext0
	.2byte	0xc
	.byte	0x91
	.sleb128 -72
	.byte	0x6
	.byte	0x20
	.byte	0x7e
	.sleb128 0
	.byte	0x1a
	.byte	0x74
	.sleb128 0
	.byte	0x27
	.byte	0x9f
	.4byte	.LVL520-.Ltext0
	.4byte	.LVL534-.Ltext0
	.2byte	0x1
	.byte	0x56
	.4byte	.LVL536-.Ltext0
	.4byte	.LVL543-.Ltext0
	.2byte	0x1
	.byte	0x56
	.4byte	.LVL543-.Ltext0
	.4byte	.LVL549-.Ltext0
	.2byte	0xc
	.byte	0x91
	.sleb128 -72
	.byte	0x6
	.byte	0x20
	.byte	0x7f
	.sleb128 0
	.byte	0x1a
	.byte	0x76
	.sleb128 0
	.byte	0x27
	.byte	0x9f
	.4byte	.LVL554-.Ltext0
	.4byte	.LVL570-.Ltext0
	.2byte	0x1
	.byte	0x54
	.4byte	.LVL573-.Ltext0
	.4byte	.LVL582-.Ltext0
	.2byte	0x1
	.byte	0x54
	.4byte	.LVL582-.Ltext0
	.4byte	.LVL584-.Ltext0
	.2byte	0xa
	.byte	0x7b
	.sleb128 0
	.byte	0x20
	.byte	0x7e
	.sleb128 0
	.byte	0x1a
	.byte	0x74
	.sleb128 0
	.byte	0x27
	.byte	0x9f
	.4byte	.LVL584-.Ltext0
	.4byte	.LVL587-.Ltext0
	.2byte	0xc
	.byte	0x91
	.sleb128 -72
	.byte	0x6
	.byte	0x20
	.byte	0x7e
	.sleb128 0
	.byte	0x1a
	.byte	0x74
	.sleb128 0
	.byte	0x27
	.byte	0x9f
	.4byte	.LVL593-.Ltext0
	.4byte	.LVL607-.Ltext0
	.2byte	0x1
	.byte	0x56
	.4byte	.LVL608-.Ltext0
	.4byte	.LVL615-.Ltext0
	.2byte	0x1
	.byte	0x56
	.4byte	.LVL615-.Ltext0
	.4byte	.LVL622-.Ltext0
	.2byte	0xc
	.byte	0x91
	.sleb128 -72
	.byte	0x6
	.byte	0x20
	.byte	0x7f
	.sleb128 0
	.byte	0x1a
	.byte	0x76
	.sleb128 0
	.byte	0x27
	.byte	0x9f
	.4byte	.LVL627-.Ltext0
	.4byte	.LVL641-.Ltext0
	.2byte	0x1
	.byte	0x54
	.4byte	.LVL644-.Ltext0
	.4byte	.LVL653-.Ltext0
	.2byte	0x1
	.byte	0x54
	.4byte	.LVL653-.Ltext0
	.4byte	.LVL655-.Ltext0
	.2byte	0xa
	.byte	0x7b
	.sleb128 0
	.byte	0x20
	.byte	0x7e
	.sleb128 0
	.byte	0x1a
	.byte	0x74
	.sleb128 0
	.byte	0x27
	.byte	0x9f
	.4byte	.LVL655-.Ltext0
	.4byte	.LVL658-.Ltext0
	.2byte	0xc
	.byte	0x91
	.sleb128 -72
	.byte	0x6
	.byte	0x20
	.byte	0x7e
	.sleb128 0
	.byte	0x1a
	.byte	0x74
	.sleb128 0
	.byte	0x27
	.byte	0x9f
	.4byte	.LVL664-.Ltext0
	.4byte	.LVL678-.Ltext0
	.2byte	0x1
	.byte	0x56
	.4byte	.LVL679-.Ltext0
	.4byte	.LVL687-.Ltext0
	.2byte	0x1
	.byte	0x56
	.4byte	.LVL687-.Ltext0
	.4byte	.LVL693-.Ltext0
	.2byte	0xc
	.byte	0x91
	.sleb128 -72
	.byte	0x6
	.byte	0x20
	.byte	0x7f
	.sleb128 0
	.byte	0x1a
	.byte	0x76
	.sleb128 0
	.byte	0x27
	.byte	0x9f
	.4byte	.LVL698-.Ltext0
	.4byte	.LVL714-.Ltext0
	.2byte	0x1
	.byte	0x54
	.4byte	.LVL717-.Ltext0
	.4byte	.LVL726-.Ltext0
	.2byte	0x1
	.byte	0x54
	.4byte	.LVL726-.Ltext0
	.4byte	.LVL728-.Ltext0
	.2byte	0xa
	.byte	0x7b
	.sleb128 0
	.byte	0x20
	.byte	0x7e
	.sleb128 0
	.byte	0x1a
	.byte	0x74
	.sleb128 0
	.byte	0x27
	.byte	0x9f
	.4byte	.LVL728-.Ltext0
	.4byte	.LVL731-.Ltext0
	.2byte	0xc
	.byte	0x91
	.sleb128 -72
	.byte	0x6
	.byte	0x20
	.byte	0x7e
	.sleb128 0
	.byte	0x1a
	.byte	0x74
	.sleb128 0
	.byte	0x27
	.byte	0x9f
	.4byte	.LVL737-.Ltext0
	.4byte	.LVL751-.Ltext0
	.2byte	0x1
	.byte	0x56
	.4byte	.LVL752-.Ltext0
	.4byte	.LVL760-.Ltext0
	.2byte	0x1
	.byte	0x56
	.4byte	.LVL764-.Ltext0
	.4byte	.LVL775-.Ltext0
	.2byte	0x1
	.byte	0x5e
	.4byte	.LVL776-.Ltext0
	.4byte	.LVL788-.Ltext0
	.2byte	0x1
	.byte	0x5e
	.4byte	.LVL788-.Ltext0
	.4byte	.LVL791-.Ltext0
	.2byte	0xc
	.byte	0x91
	.sleb128 -72
	.byte	0x6
	.byte	0x20
	.byte	0x74
	.sleb128 0
	.byte	0x1a
	.byte	0x7e
	.sleb128 0
	.byte	0x27
	.byte	0x9f
	.4byte	.LVL796-.Ltext0
	.4byte	.LVL807-.Ltext0
	.2byte	0x1
	.byte	0x5f
	.4byte	.LVL811-.Ltext0
	.4byte	.LVL811-.Ltext0
	.2byte	0x1
	.byte	0x5f
	.4byte	.LVL811-.Ltext0
	.4byte	.LVL816-.Ltext0
	.2byte	0x1
	.byte	0x57
	.4byte	.LVL816-.Ltext0
	.4byte	.LVL817-.Ltext0
	.2byte	0x1
	.byte	0x54
	.4byte	.LVL817-.Ltext0
	.4byte	.LVL821-.Ltext0
	.2byte	0x2
	.byte	0x91
	.sleb128 -56
	.4byte	.LVL821-.Ltext0
	.4byte	.LVL821-.Ltext0
	.2byte	0xb
	.byte	0x7b
	.sleb128 0
	.byte	0x20
	.byte	0x75
	.sleb128 0
	.byte	0x1a
	.byte	0x91
	.sleb128 -56
	.byte	0x6
	.byte	0x27
	.byte	0x9f
	.4byte	.LVL821-.Ltext0
	.4byte	.LVL826-.Ltext0
	.2byte	0x15
	.byte	0x7d
	.sleb128 0
	.byte	0x20
	.byte	0x77
	.sleb128 0
	.byte	0x1a
	.byte	0x91
	.sleb128 -60
	.byte	0x6
	.byte	0x27
	.byte	0x38
	.byte	0x14
	.byte	0x14
	.byte	0x24
	.byte	0x17
	.byte	0x1f
	.byte	0x23
	.uleb128 0x20
	.byte	0x25
	.byte	0x21
	.byte	0x9f
	.4byte	0
	.4byte	0
.LVUS87:
	.uleb128 .LVU1088
	.uleb128 .LVU1091
	.uleb128 .LVU1091
	.uleb128 .LVU1095
	.uleb128 .LVU1095
	.uleb128 .LVU1098
	.uleb128 .LVU1098
	.uleb128 .LVU1107
	.uleb128 .LVU1107
	.uleb128 .LVU1111
	.uleb128 .LVU1111
	.uleb128 .LVU1112
	.uleb128 .LVU1112
	.uleb128 .LVU1119
	.uleb128 .LVU1119
	.uleb128 .LVU1120
	.uleb128 .LVU1120
	.uleb128 .LVU1135
	.uleb128 .LVU1135
	.uleb128 .LVU1184
	.uleb128 .LVU1184
	.uleb128 .LVU1187
	.uleb128 .LVU1187
	.uleb128 .LVU1191
	.uleb128 .LVU1194
	.uleb128 .LVU1200
	.uleb128 .LVU1200
	.uleb128 .LVU1204
	.uleb128 .LVU1204
	.uleb128 .LVU1205
	.uleb128 .LVU1205
	.uleb128 .LVU1214
	.uleb128 .LVU1229
	.uleb128 .LVU1278
	.uleb128 .LVU1278
	.uleb128 .LVU1281
	.uleb128 .LVU1281
	.uleb128 .LVU1285
	.uleb128 .LVU1285
	.uleb128 .LVU1287
	.uleb128 .LVU1287
	.uleb128 .LVU1288
	.uleb128 .LVU1288
	.uleb128 .LVU1296
	.uleb128 .LVU1325
	.uleb128 .LVU1352
	.uleb128 .LVU1373
	.uleb128 .LVU1376
	.uleb128 .LVU1376
	.uleb128 .LVU1380
	.uleb128 .LVU1380
	.uleb128 .LVU1381
	.uleb128 .LVU1381
	.uleb128 .LVU1384
	.uleb128 .LVU1384
	.uleb128 .LVU1392
	.uleb128 .LVU1419
	.uleb128 .LVU1468
	.uleb128 .LVU1468
	.uleb128 .LVU1471
	.uleb128 .LVU1471
	.uleb128 .LVU1475
	.uleb128 .LVU1475
	.uleb128 .LVU1477
	.uleb128 .LVU1477
	.uleb128 .LVU1479
	.uleb128 .LVU1481
	.uleb128 .LVU1485
	.uleb128 .LVU1514
	.uleb128 .LVU1563
	.uleb128 .LVU1563
	.uleb128 .LVU1566
	.uleb128 .LVU1566
	.uleb128 .LVU1570
	.uleb128 .LVU1570
	.uleb128 .LVU1571
	.uleb128 .LVU1571
	.uleb128 .LVU1574
	.uleb128 .LVU1574
	.uleb128 .LVU1581
	.uleb128 .LVU1606
	.uleb128 .LVU1656
	.uleb128 .LVU1656
	.uleb128 .LVU1659
	.uleb128 .LVU1659
	.uleb128 .LVU1663
	.uleb128 .LVU1663
	.uleb128 .LVU1665
	.uleb128 .LVU1665
	.uleb128 .LVU1666
	.uleb128 .LVU1669
	.uleb128 .LVU1673
	.uleb128 .LVU1700
	.uleb128 .LVU1749
	.uleb128 .LVU1749
	.uleb128 .LVU1752
	.uleb128 .LVU1752
	.uleb128 .LVU1756
	.uleb128 .LVU1756
	.uleb128 .LVU1757
	.uleb128 .LVU1757
	.uleb128 .LVU1760
	.uleb128 .LVU1760
	.uleb128 .LVU1767
	.uleb128 .LVU1792
	.uleb128 .LVU1842
	.uleb128 .LVU1842
	.uleb128 .LVU1845
	.uleb128 .LVU1845
	.uleb128 .LVU1849
	.uleb128 .LVU1849
	.uleb128 .LVU1851
	.uleb128 .LVU1851
	.uleb128 .LVU1853
	.uleb128 .LVU1855
	.uleb128 .LVU1859
	.uleb128 .LVU1888
	.uleb128 .LVU1937
	.uleb128 .LVU1937
	.uleb128 .LVU1940
	.uleb128 .LVU1940
	.uleb128 .LVU1944
	.uleb128 .LVU1944
	.uleb128 .LVU1945
	.uleb128 .LVU1945
	.uleb128 .LVU1948
	.uleb128 .LVU1948
	.uleb128 .LVU1955
	.uleb128 .LVU1980
	.uleb128 .LVU2028
	.uleb128 .LVU2028
	.uleb128 .LVU2031
	.uleb128 .LVU2031
	.uleb128 .LVU2035
	.uleb128 .LVU2038
	.uleb128 .LVU2043
	.uleb128 .LVU2070
	.uleb128 .LVU2124
	.uleb128 .LVU2124
	.uleb128 .LVU2127
	.uleb128 .LVU2127
	.uleb128 .LVU2131
	.uleb128 .LVU2133
	.uleb128 .LVU2142
	.uleb128 .LVU2154
	.uleb128 .LVU2155
	.uleb128 .LVU2167
	.uleb128 .LVU2198
	.uleb128 .LVU2198
	.uleb128 .LVU2201
	.uleb128 .LVU2201
	.uleb128 .LVU2208
.LLST87:
	.4byte	.LVL401-.Ltext0
	.4byte	.LVL404-.Ltext0
	.2byte	0x1
	.byte	0x53
	.4byte	.LVL404-.Ltext0
	.4byte	.LVL407-.Ltext0
	.2byte	0xd
	.byte	0x91
	.sleb128 -52
	.byte	0x6
	.byte	0x23
	.uleb128 0xc
	.byte	0x6
	.byte	0x7d
	.sleb128 0
	.byte	0x27
	.byte	0x78
	.sleb128 0
	.byte	0x27
	.byte	0x9f
	.4byte	.LVL407-.Ltext0
	.4byte	.LVL409-.Ltext0
	.2byte	0x11
	.byte	0x91
	.sleb128 -52
	.byte	0x6
	.byte	0x23
	.uleb128 0xc
	.byte	0x6
	.byte	0x7d
	.sleb128 0
	.byte	0x27
	.byte	0x91
	.sleb128 -52
	.byte	0x6
	.byte	0x23
	.uleb128 0x2c
	.byte	0x6
	.byte	0x27
	.byte	0x9f
	.4byte	.LVL409-.Ltext0
	.4byte	.LVL413-.Ltext0
	.2byte	0x1
	.byte	0x53
	.4byte	.LVL413-.Ltext0
	.4byte	.LVL416-.Ltext0
	.2byte	0xd
	.byte	0x91
	.sleb128 -52
	.byte	0x6
	.byte	0x23
	.uleb128 0x4
	.byte	0x6
	.byte	0x7a
	.sleb128 0
	.byte	0x27
	.byte	0x76
	.sleb128 0
	.byte	0x27
	.byte	0x9f
	.4byte	.LVL416-.Ltext0
	.4byte	.LVL417-.Ltext0
	.2byte	0x11
	.byte	0x91
	.sleb128 -52
	.byte	0x6
	.byte	0x23
	.uleb128 0x4
	.byte	0x6
	.byte	0x91
	.sleb128 -52
	.byte	0x6
	.byte	0x23
	.uleb128 0x14
	.byte	0x6
	.byte	0x27
	.byte	0x76
	.sleb128 0
	.byte	0x27
	.byte	0x9f
	.4byte	.LVL417-.Ltext0
	.4byte	.LVL420-.Ltext0
	.2byte	0x15
	.byte	0x91
	.sleb128 -52
	.byte	0x6
	.byte	0x23
	.uleb128 0x4
	.byte	0x6
	.byte	0x91
	.sleb128 -52
	.byte	0x6
	.byte	0x23
	.uleb128 0x14
	.byte	0x6
	.byte	0x27
	.byte	0x91
	.sleb128 -52
	.byte	0x6
	.byte	0x23
	.uleb128 0x24
	.byte	0x6
	.byte	0x27
	.byte	0x9f
	.4byte	.LVL420-.Ltext0
	.4byte	.LVL421-.Ltext0
	.2byte	0x1
	.byte	0x58
	.4byte	.LVL421-.Ltext0
	.4byte	.LVL425-.Ltext0
	.2byte	0x3e
	.byte	0x91
	.sleb128 -52
	.byte	0x6
	.byte	0x23
	.uleb128 0x4
	.byte	0x6
	.byte	0x91
	.sleb128 -52
	.byte	0x6
	.byte	0x23
	.uleb128 0x14
	.byte	0x6
	.byte	0x27
	.byte	0x91
	.sleb128 -52
	.byte	0x6
	.byte	0x23
	.uleb128 0x24
	.byte	0x6
	.byte	0x27
	.byte	0x35
	.byte	0x14
	.byte	0x14
	.byte	0x24
	.byte	0x17
	.byte	0x1f
	.byte	0x23
	.uleb128 0x20
	.byte	0x25
	.byte	0x21
	.byte	0x91
	.sleb128 -52
	.byte	0x6
	.byte	0x23
	.uleb128 0x4
	.byte	0x6
	.byte	0x91
	.sleb128 -52
	.byte	0x6
	.byte	0x23
	.uleb128 0x14
	.byte	0x6
	.byte	0x27
	.byte	0x91
	.sleb128 -52
	.byte	0x6
	.byte	0x23
	.uleb128 0x24
	.byte	0x6
	.byte	0x27
	.byte	0x3e
	.byte	0x14
	.byte	0x14
	.byte	0x24
	.byte	0x17
	.byte	0x1f
	.byte	0x23
	.uleb128 0x20
	.byte	0x25
	.byte	0x21
	.byte	0x27
	.byte	0x9f
	.4byte	.LVL425-.Ltext0
	.4byte	.LVL447-.Ltext0
	.2byte	0x2
	.byte	0x91
	.sleb128 -48
	.4byte	.LVL447-.Ltext0
	.4byte	.LVL447-.Ltext0
	.2byte	0x1
	.byte	0x54
	.4byte	.LVL447-.Ltext0
	.4byte	.LVL447-.Ltext0
	.2byte	0x1
	.byte	0x5a
	.4byte	.LVL450-.Ltext0
	.4byte	.LVL453-.Ltext0
	.2byte	0x1
	.byte	0x5f
	.4byte	.LVL453-.Ltext0
	.4byte	.LVL456-.Ltext0
	.2byte	0xa
	.byte	0x71
	.sleb128 0
	.byte	0x6
	.byte	0x7b
	.sleb128 0
	.byte	0x27
	.byte	0x74
	.sleb128 0
	.byte	0x27
	.byte	0x9f
	.4byte	.LVL456-.Ltext0
	.4byte	.LVL457-.Ltext0
	.2byte	0xa8
	.byte	0x91
	.sleb128 -52
	.byte	0x6
	.byte	0x6
	.byte	0x91
	.sleb128 -52
	.byte	0x6
	.byte	0x23
	.uleb128 0x10
	.byte	0x6
	.byte	0x27
	.byte	0x91
	.sleb128 -52
	.byte	0x6
	.byte	0x23
	.uleb128 0x20
	.byte	0x6
	.byte	0x27
	.byte	0x35
	.byte	0x14
	.byte	0x14
	.byte	0x24
	.byte	0x17
	.byte	0x1f
	.byte	0x23
	.uleb128 0x20
	.byte	0x25
	.byte	0x21
	.byte	0x91
	.sleb128 -52
	.byte	0x6
	.byte	0x6
	.byte	0x91
	.sleb128 -52
	.byte	0x6
	.byte	0x23
	.uleb128 0x10
	.byte	0x6
	.byte	0x27
	.byte	0x91
	.sleb128 -52
	.byte	0x6
	.byte	0x23
	.uleb128 0x20
	.byte	0x6
	.byte	0x27
	.byte	0x3e
	.byte	0x14
	.byte	0x14
	.byte	0x24
	.byte	0x17
	.byte	0x1f
	.byte	0x23
	.uleb128 0x20
	.byte	0x25
	.byte	0x21
	.byte	0x27
	.byte	0x91
	.sleb128 -52
	.byte	0x6
	.byte	0x23
	.uleb128 0x24
	.byte	0x6
	.byte	0x27
	.byte	0x3b
	.byte	0x14
	.byte	0x14
	.byte	0x24
	.byte	0x17
	.byte	0x1f
	.byte	0x23
	.uleb128 0x20
	.byte	0x25
	.byte	0x21
	.byte	0x72
	.sleb128 0
	.byte	0x27
	.byte	0x71
	.sleb128 0
	.byte	0x6
	.byte	0x1a
	.byte	0x91
	.sleb128 -52
	.byte	0x6
	.byte	0x23
	.uleb128 0xc
	.byte	0x6
	.byte	0x91
	.sleb128 -52
	.byte	0x6
	.byte	0x23
	.uleb128 0x1c
	.byte	0x6
	.byte	0x27
	.byte	0x91
	.sleb128 -52
	.byte	0x6
	.byte	0x23
	.uleb128 0x2c
	.byte	0x6
	.byte	0x27
	.byte	0x35
	.byte	0x14
	.byte	0x14
	.byte	0x24
	.byte	0x17
	.byte	0x1f
	.byte	0x23
	.uleb128 0x20
	.byte	0x25
	.byte	0x21
	.byte	0x27
	.byte	0x91
	.sleb128 -52
	.byte	0x6
	.byte	0x23
	.uleb128 0xc
	.byte	0x6
	.byte	0x91
	.sleb128 -52
	.byte	0x6
	.byte	0x23
	.uleb128 0x1c
	.byte	0x6
	.byte	0x27
	.byte	0x91
	.sleb128 -52
	.byte	0x6
	.byte	0x23
	.uleb128 0x2c
	.byte	0x6
	.byte	0x27
	.byte	0x3e
	.byte	0x14
	.byte	0x14
	.byte	0x24
	.byte	0x17
	.byte	0x1f
	.byte	0x23
	.uleb128 0x20
	.byte	0x25
	.byte	0x21
	.byte	0x27
	.byte	0x91
	.sleb128 -52
	.byte	0x6
	.byte	0x23
	.uleb128 0x10
	.byte	0x6
	.byte	0x27
	.byte	0x31
	.byte	0x14
	.byte	0x14
	.byte	0x24
	.byte	0x17
	.byte	0x1f
	.byte	0x23
	.uleb128 0x20
	.byte	0x25
	.byte	0x21
	.byte	0x71
	.sleb128 0
	.byte	0x6
	.byte	0x27
	.byte	0x74
	.sleb128 0
	.byte	0x27
	.byte	0x9f
	.4byte	.LVL457-.Ltext0
	.4byte	.LVL462-.Ltext0
	.2byte	0x1a2
	.byte	0x91
	.sleb128 -52
	.byte	0x6
	.byte	0x6
	.byte	0x91
	.sleb128 -52
	.byte	0x6
	.byte	0x23
	.uleb128 0x10
	.byte	0x6
	.byte	0x27
	.byte	0x91
	.sleb128 -52
	.byte	0x6
	.byte	0x23
	.uleb128 0x20
	.byte	0x6
	.byte	0x27
	.byte	0x35
	.byte	0x14
	.byte	0x14
	.byte	0x24
	.byte	0x17
	.byte	0x1f
	.byte	0x23
	.uleb128 0x20
	.byte	0x25
	.byte	0x21
	.byte	0x91
	.sleb128 -52
	.byte	0x6
	.byte	0x6
	.byte	0x91
	.sleb128 -52
	.byte	0x6
	.byte	0x23
	.uleb128 0x10
	.byte	0x6
	.byte	0x27
	.byte	0x91
	.sleb128 -52
	.byte	0x6
	.byte	0x23
	.uleb128 0x20
	.byte	0x6
	.byte	0x27
	.byte	0x3e
	.byte	0x14
	.byte	0x14
	.byte	0x24
	.byte	0x17
	.byte	0x1f
	.byte	0x23
	.uleb128 0x20
	.byte	0x25
	.byte	0x21
	.byte	0x27
	.byte	0x91
	.sleb128 -52
	.byte	0x6
	.byte	0x23
	.uleb128 0x24
	.byte	0x6
	.byte	0x27
	.byte	0x3b
	.byte	0x14
	.byte	0x14
	.byte	0x24
	.byte	0x17
	.byte	0x1f
	.byte	0x23
	.uleb128 0x20
	.byte	0x25
	.byte	0x21
	.byte	0x72
	.sleb128 0
	.byte	0x27
	.byte	0x71
	.sleb128 0
	.byte	0x6
	.byte	0x1a
	.byte	0x91
	.sleb128 -52
	.byte	0x6
	.byte	0x23
	.uleb128 0xc
	.byte	0x6
	.byte	0x91
	.sleb128 -52
	.byte	0x6
	.byte	0x23
	.uleb128 0x1c
	.byte	0x6
	.byte	0x27
	.byte	0x91
	.sleb128 -52
	.byte	0x6
	.byte	0x23
	.uleb128 0x2c
	.byte	0x6
	.byte	0x27
	.byte	0x35
	.byte	0x14
	.byte	0x14
	.byte	0x24
	.byte	0x17
	.byte	0x1f
	.byte	0x23
	.uleb128 0x20
	.byte	0x25
	.byte	0x21
	.byte	0x27
	.byte	0x91
	.sleb128 -52
	.byte	0x6
	.byte	0x23
	.uleb128 0xc
	.byte	0x6
	.byte	0x91
	.sleb128 -52
	.byte	0x6
	.byte	0x23
	.uleb128 0x1c
	.byte	0x6
	.byte	0x27
	.byte	0x91
	.sleb128 -52
	.byte	0x6
	.byte	0x23
	.uleb128 0x2c
	.byte	0x6
	.byte	0x27
	.byte	0x3e
	.byte	0x14
	.byte	0x14
	.byte	0x24
	.byte	0x17
	.byte	0x1f
	.byte	0x23
	.uleb128 0x20
	.byte	0x25
	.byte	0x21
	.byte	0x27
	.byte	0x91
	.sleb128 -52
	.byte	0x6
	.byte	0x23
	.uleb128 0x10
	.byte	0x6
	.byte	0x27
	.byte	0x31
	.byte	0x14
	.byte	0x14
	.byte	0x24
	.byte	0x17
	.byte	0x1f
	.byte	0x23
	.uleb128 0x20
	.byte	0x25
	.byte	0x21
	.byte	0x72
	.sleb128 0
	.byte	0x91
	.sleb128 -72
	.byte	0x6
	.byte	0x27
	.byte	0x91
	.sleb128 -52
	.byte	0x6
	.byte	0x23
	.uleb128 0x8
	.byte	0x6
	.byte	0x91
	.sleb128 -52
	.byte	0x6
	.byte	0x23
	.uleb128 0x18
	.byte	0x6
	.byte	0x27
	.byte	0x91
	.sleb128 -52
	.byte	0x6
	.byte	0x23
	.uleb128 0x28
	.byte	0x6
	.byte	0x27
	.byte	0x35
	.byte	0x14
	.byte	0x14
	.byte	0x24
	.byte	0x17
	.byte	0x1f
	.byte	0x23
	.uleb128 0x20
	.byte	0x25
	.byte	0x21
	.byte	0x91
	.sleb128 -52
	.byte	0x6
	.byte	0x23
	.uleb128 0x8
	.byte	0x6
	.byte	0x91
	.sleb128 -52
	.byte	0x6
	.byte	0x23
	.uleb128 0x18
	.byte	0x6
	.byte	0x27
	.byte	0x91
	.sleb128 -52
	.byte	0x6
	.byte	0x23
	.uleb128 0x28
	.byte	0x6
	.byte	0x27
	.byte	0x3e
	.byte	0x14
	.byte	0x14
	.byte	0x24
	.byte	0x17
	.byte	0x1f
	.byte	0x23
	.uleb128 0x20
	.byte	0x25
	.byte	0x21
	.byte	0x27
	.byte	0x91
	.sleb128 -52
	.byte	0x6
	.byte	0x23
	.uleb128 0x2c
	.byte	0x6
	.byte	0x27
	.byte	0x3b
	.byte	0x14
	.byte	0x14
	.byte	0x24
	.byte	0x17
	.byte	0x1f
	.byte	0x23
	.uleb128 0x20
	.byte	0x25
	.byte	0x21
	.byte	0x72
	.sleb128 0
	.byte	0x27
	.byte	0x91
	.sleb128 -72
	.byte	0x6
	.byte	0x1a
	.byte	0x91
	.sleb128 -52
	.byte	0x6
	.byte	0x23
	.uleb128 0x4
	.byte	0x6
	.byte	0x91
	.sleb128 -52
	.byte	0x6
	.byte	0x23
	.uleb128 0x14
	.byte	0x6
	.byte	0x27
	.byte	0x91
	.sleb128 -52
	.byte	0x6
	.byte	0x23
	.uleb128 0x24
	.byte	0x6
	.byte	0x27
	.byte	0x35
	.byte	0x14
	.byte	0x14
	.byte	0x24
	.byte	0x17
	.byte	0x1f
	.byte	0x23
	.uleb128 0x20
	.byte	0x25
	.byte	0x21
	.byte	0x27
	.byte	0x91
	.sleb128 -52
	.byte	0x6
	.byte	0x23
	.uleb128 0x4
	.byte	0x6
	.byte	0x91
	.sleb128 -52
	.byte	0x6
	.byte	0x23
	.uleb128 0x14
	.byte	0x6
	.byte	0x27
	.byte	0x91
	.sleb128 -52
	.byte	0x6
	.byte	0x23
	.uleb128 0x24
	.byte	0x6
	.byte	0x27
	.byte	0x3e
	.byte	0x14
	.byte	0x14
	.byte	0x24
	.byte	0x17
	.byte	0x1f
	.byte	0x23
	.uleb128 0x20
	.byte	0x25
	.byte	0x21
	.byte	0x27
	.byte	0x91
	.sleb128 -52
	.byte	0x6
	.byte	0x23
	.uleb128 0x18
	.byte	0x6
	.byte	0x27
	.byte	0x1a
	.byte	0x91
	.sleb128 -52
	.byte	0x6
	.byte	0x23
	.uleb128 0x8
	.byte	0x6
	.byte	0x91
	.sleb128 -52
	.byte	0x6
	.byte	0x23
	.uleb128 0x18
	.byte	0x6
	.byte	0x27
	.byte	0x91
	.sleb128 -52
	.byte	0x6
	.byte	0x23
	.uleb128 0x28
	.byte	0x6
	.byte	0x27
	.byte	0x35
	.byte	0x14
	.byte	0x14
	.byte	0x24
	.byte	0x17
	.byte	0x1f
	.byte	0x23
	.uleb128 0x20
	.byte	0x25
	.byte	0x21
	.byte	0x91
	.sleb128 -52
	.byte	0x6
	.byte	0x23
	.uleb128 0x8
	.byte	0x6
	.byte	0x91
	.sleb128 -52
	.byte	0x6
	.byte	0x23
	.uleb128 0x18
	.byte	0x6
	.byte	0x27
	.byte	0x91
	.sleb128 -52
	.byte	0x6
	.byte	0x23
	.uleb128 0x28
	.byte	0x6
	.byte	0x27
	.byte	0x3e
	.byte	0x14
	.byte	0x14
	.byte	0x24
	.byte	0x17
	.byte	0x1f
	.byte	0x23
	.uleb128 0x20
	.byte	0x25
	.byte	0x21
	.byte	0x27
	.byte	0x91
	.sleb128 -52
	.byte	0x6
	.byte	0x23
	.uleb128 0x2c
	.byte	0x6
	.byte	0x27
	.byte	0x3b
	.byte	0x14
	.byte	0x14
	.byte	0x24
	.byte	0x17
	.byte	0x1f
	.byte	0x23
	.uleb128 0x20
	.byte	0x25
	.byte	0x21
	.byte	0x27
	.byte	0x38
	.byte	0x14
	.byte	0x14
	.byte	0x24
	.byte	0x17
	.byte	0x1f
	.byte	0x23
	.uleb128 0x20
	.byte	0x25
	.byte	0x21
	.byte	0x27
	.byte	0x71
	.sleb128 0
	.byte	0x6
	.byte	0x27
	.byte	0x9f
	.4byte	.LVL464-.Ltext0
	.4byte	.LVL482-.Ltext0
	.2byte	0x2
	.byte	0x91
	.sleb128 -56
	.4byte	.LVL482-.Ltext0
	.4byte	.LVL482-.Ltext0
	.2byte	0x1
	.byte	0x56
	.4byte	.LVL482-.Ltext0
	.4byte	.LVL483-.Ltext0
	.2byte	0x1
	.byte	0x55
	.4byte	.LVL483-.Ltext0
	.4byte	.LVL485-.Ltext0
	.2byte	0x1
	.byte	0x5d
	.4byte	.LVL485-.Ltext0
	.4byte	.LVL486-.Ltext0
	.2byte	0xc
	.byte	0x91
	.sleb128 -72
	.byte	0x6
	.byte	0x91
	.sleb128 -60
	.byte	0x6
	.byte	0x27
	.byte	0x74
	.sleb128 0
	.byte	0x27
	.byte	0x9f
	.4byte	.LVL486-.Ltext0
	.4byte	.LVL491-.Ltext0
	.2byte	0x1
	.byte	0x5d
	.4byte	.LVL500-.Ltext0
	.4byte	.LVL511-.Ltext0
	.2byte	0x2
	.byte	0x91
	.sleb128 -60
	.4byte	.LVL520-.Ltext0
	.4byte	.LVL520-.Ltext0
	.2byte	0x1
	.byte	0x54
	.4byte	.LVL520-.Ltext0
	.4byte	.LVL520-.Ltext0
	.2byte	0x1
	.byte	0x53
	.4byte	.LVL520-.Ltext0
	.4byte	.LVL521-.Ltext0
	.2byte	0x1
	.byte	0x5d
	.4byte	.LVL521-.Ltext0
	.4byte	.LVL523-.Ltext0
	.2byte	0xb
	.byte	0x91
	.sleb128 -72
	.byte	0x6
	.byte	0x7c
	.sleb128 0
	.byte	0x27
	.byte	0x76
	.sleb128 0
	.byte	0x27
	.byte	0x9f
	.4byte	.LVL523-.Ltext0
	.4byte	.LVL527-.Ltext0
	.2byte	0x1
	.byte	0x5d
	.4byte	.LVL536-.Ltext0
	.4byte	.LVL554-.Ltext0
	.2byte	0x2
	.byte	0x91
	.sleb128 -56
	.4byte	.LVL554-.Ltext0
	.4byte	.LVL554-.Ltext0
	.2byte	0x1
	.byte	0x56
	.4byte	.LVL554-.Ltext0
	.4byte	.LVL554-.Ltext0
	.2byte	0x1
	.byte	0x5e
	.4byte	.LVL554-.Ltext0
	.4byte	.LVL556-.Ltext0
	.2byte	0x1
	.byte	0x5d
	.4byte	.LVL556-.Ltext0
	.4byte	.LVL558-.Ltext0
	.2byte	0xb
	.byte	0x91
	.sleb128 -72
	.byte	0x6
	.byte	0x7a
	.sleb128 0
	.byte	0x27
	.byte	0x74
	.sleb128 0
	.byte	0x27
	.byte	0x9f
	.4byte	.LVL559-.Ltext0
	.4byte	.LVL560-.Ltext0
	.2byte	0x1
	.byte	0x5d
	.4byte	.LVL573-.Ltext0
	.4byte	.LVL593-.Ltext0
	.2byte	0x2
	.byte	0x91
	.sleb128 -56
	.4byte	.LVL593-.Ltext0
	.4byte	.LVL593-.Ltext0
	.2byte	0x1
	.byte	0x54
	.4byte	.LVL593-.Ltext0
	.4byte	.LVL593-.Ltext0
	.2byte	0x1
	.byte	0x53
	.4byte	.LVL593-.Ltext0
	.4byte	.LVL594-.Ltext0
	.2byte	0x1
	.byte	0x5d
	.4byte	.LVL594-.Ltext0
	.4byte	.LVL596-.Ltext0
	.2byte	0xb
	.byte	0x91
	.sleb128 -72
	.byte	0x6
	.byte	0x7c
	.sleb128 0
	.byte	0x27
	.byte	0x76
	.sleb128 0
	.byte	0x27
	.byte	0x9f
	.4byte	.LVL596-.Ltext0
	.4byte	.LVL600-.Ltext0
	.2byte	0x1
	.byte	0x5d
	.4byte	.LVL608-.Ltext0
	.4byte	.LVL627-.Ltext0
	.2byte	0x2
	.byte	0x91
	.sleb128 -56
	.4byte	.LVL627-.Ltext0
	.4byte	.LVL627-.Ltext0
	.2byte	0x1
	.byte	0x56
	.4byte	.LVL627-.Ltext0
	.4byte	.LVL627-.Ltext0
	.2byte	0x1
	.byte	0x5e
	.4byte	.LVL627-.Ltext0
	.4byte	.LVL629-.Ltext0
	.2byte	0x1
	.byte	0x5d
	.4byte	.LVL629-.Ltext0
	.4byte	.LVL630-.Ltext0
	.2byte	0xb
	.byte	0x91
	.sleb128 -72
	.byte	0x6
	.byte	0x7a
	.sleb128 0
	.byte	0x27
	.byte	0x74
	.sleb128 0
	.byte	0x27
	.byte	0x9f
	.4byte	.LVL632-.Ltext0
	.4byte	.LVL633-.Ltext0
	.2byte	0x1
	.byte	0x5d
	.4byte	.LVL644-.Ltext0
	.4byte	.LVL664-.Ltext0
	.2byte	0x2
	.byte	0x91
	.sleb128 -56
	.4byte	.LVL664-.Ltext0
	.4byte	.LVL664-.Ltext0
	.2byte	0x1
	.byte	0x54
	.4byte	.LVL664-.Ltext0
	.4byte	.LVL664-.Ltext0
	.2byte	0x1
	.byte	0x53
	.4byte	.LVL664-.Ltext0
	.4byte	.LVL665-.Ltext0
	.2byte	0x1
	.byte	0x5d
	.4byte	.LVL665-.Ltext0
	.4byte	.LVL667-.Ltext0
	.2byte	0xb
	.byte	0x91
	.sleb128 -72
	.byte	0x6
	.byte	0x7c
	.sleb128 0
	.byte	0x27
	.byte	0x76
	.sleb128 0
	.byte	0x27
	.byte	0x9f
	.4byte	.LVL667-.Ltext0
	.4byte	.LVL671-.Ltext0
	.2byte	0x1
	.byte	0x5d
	.4byte	.LVL679-.Ltext0
	.4byte	.LVL698-.Ltext0
	.2byte	0x2
	.byte	0x91
	.sleb128 -56
	.4byte	.LVL698-.Ltext0
	.4byte	.LVL698-.Ltext0
	.2byte	0x1
	.byte	0x56
	.4byte	.LVL698-.Ltext0
	.4byte	.LVL698-.Ltext0
	.2byte	0x1
	.byte	0x5e
	.4byte	.LVL698-.Ltext0
	.4byte	.LVL700-.Ltext0
	.2byte	0x1
	.byte	0x5d
	.4byte	.LVL700-.Ltext0
	.4byte	.LVL702-.Ltext0
	.2byte	0xb
	.byte	0x91
	.sleb128 -72
	.byte	0x6
	.byte	0x7a
	.sleb128 0
	.byte	0x27
	.byte	0x74
	.sleb128 0
	.byte	0x27
	.byte	0x9f
	.4byte	.LVL703-.Ltext0
	.4byte	.LVL704-.Ltext0
	.2byte	0x1
	.byte	0x5d
	.4byte	.LVL717-.Ltext0
	.4byte	.LVL737-.Ltext0
	.2byte	0x2
	.byte	0x91
	.sleb128 -56
	.4byte	.LVL737-.Ltext0
	.4byte	.LVL737-.Ltext0
	.2byte	0x1
	.byte	0x54
	.4byte	.LVL737-.Ltext0
	.4byte	.LVL737-.Ltext0
	.2byte	0x1
	.byte	0x53
	.4byte	.LVL737-.Ltext0
	.4byte	.LVL738-.Ltext0
	.2byte	0x1
	.byte	0x5d
	.4byte	.LVL738-.Ltext0
	.4byte	.LVL740-.Ltext0
	.2byte	0xb
	.byte	0x91
	.sleb128 -72
	.byte	0x6
	.byte	0x7c
	.sleb128 0
	.byte	0x27
	.byte	0x76
	.sleb128 0
	.byte	0x27
	.byte	0x9f
	.4byte	.LVL740-.Ltext0
	.4byte	.LVL744-.Ltext0
	.2byte	0x1
	.byte	0x5d
	.4byte	.LVL752-.Ltext0
	.4byte	.LVL764-.Ltext0
	.2byte	0x2
	.byte	0x91
	.sleb128 -56
	.4byte	.LVL764-.Ltext0
	.4byte	.LVL764-.Ltext0
	.2byte	0x1
	.byte	0x5f
	.4byte	.LVL764-.Ltext0
	.4byte	.LVL764-.Ltext0
	.2byte	0x1
	.byte	0x54
	.4byte	.LVL766-.Ltext0
	.4byte	.LVL768-.Ltext0
	.2byte	0x1
	.byte	0x57
	.4byte	.LVL776-.Ltext0
	.4byte	.LVL796-.Ltext0
	.2byte	0x2
	.byte	0x91
	.sleb128 -56
	.4byte	.LVL796-.Ltext0
	.4byte	.LVL796-.Ltext0
	.2byte	0x1
	.byte	0x58
	.4byte	.LVL796-.Ltext0
	.4byte	.LVL796-.Ltext0
	.2byte	0x1
	.byte	0x59
	.4byte	.LVL798-.Ltext0
	.4byte	.LVL804-.Ltext0
	.2byte	0x1
	.byte	0x57
	.4byte	.LVL810-.Ltext0
	.4byte	.LVL811-.Ltext0
	.2byte	0x1
	.byte	0x55
	.4byte	.LVL811-.Ltext0
	.4byte	.LVL821-.Ltext0
	.2byte	0x2
	.byte	0x91
	.sleb128 -44
	.4byte	.LVL821-.Ltext0
	.4byte	.LVL821-.Ltext0
	.2byte	0x15
	.byte	0x7b
	.sleb128 0
	.byte	0x20
	.byte	0x75
	.sleb128 0
	.byte	0x1a
	.byte	0x91
	.sleb128 -56
	.byte	0x6
	.byte	0x27
	.byte	0x38
	.byte	0x14
	.byte	0x14
	.byte	0x24
	.byte	0x17
	.byte	0x1f
	.byte	0x23
	.uleb128 0x20
	.byte	0x25
	.byte	0x21
	.byte	0x9f
	.4byte	.LVL821-.Ltext0
	.4byte	.LVL823-.Ltext0
	.2byte	0x14
	.byte	0x7c
	.sleb128 0
	.byte	0x20
	.byte	0x76
	.sleb128 0
	.byte	0x1a
	.byte	0x73
	.sleb128 0
	.byte	0x27
	.byte	0x38
	.byte	0x14
	.byte	0x14
	.byte	0x24
	.byte	0x17
	.byte	0x1f
	.byte	0x23
	.uleb128 0x20
	.byte	0x25
	.byte	0x21
	.byte	0x9f
	.4byte	0
	.4byte	0
.LVUS88:
	.uleb128 .LVU1097
	.uleb128 .LVU1104
	.uleb128 .LVU1104
	.uleb128 .LVU1105
	.uleb128 .LVU1105
	.uleb128 .LVU1108
	.uleb128 .LVU1108
	.uleb128 .LVU1114
	.uleb128 .LVU1114
	.uleb128 .LVU1118
	.uleb128 .LVU1123
	.uleb128 .LVU1144
	.uleb128 .LVU1144
	.uleb128 .LVU1193
	.uleb128 .LVU1193
	.uleb128 .LVU1196
	.uleb128 .LVU1196
	.uleb128 .LVU1198
	.uleb128 .LVU1198
	.uleb128 .LVU1201
	.uleb128 .LVU1201
	.uleb128 .LVU1207
	.uleb128 .LVU1213
	.uleb128 .LVU1218
	.uleb128 .LVU1218
	.uleb128 .LVU1221
	.uleb128 .LVU1221
	.uleb128 .LVU1238
	.uleb128 .LVU1286
	.uleb128 .LVU1290
	.uleb128 .LVU1290
	.uleb128 .LVU1291
	.uleb128 .LVU1297
	.uleb128 .LVU1301
	.uleb128 .LVU1314
	.uleb128 .LVU1317
	.uleb128 .LVU1383
	.uleb128 .LVU1387
	.uleb128 .LVU1393
	.uleb128 .LVU1398
	.uleb128 .LVU1408
	.uleb128 .LVU1411
	.uleb128 .LVU1480
	.uleb128 .LVU1488
	.uleb128 .LVU1489
	.uleb128 .LVU1493
	.uleb128 .LVU1504
	.uleb128 .LVU1506
	.uleb128 .LVU1573
	.uleb128 .LVU1577
	.uleb128 .LVU1582
	.uleb128 .LVU1587
	.uleb128 .LVU1597
	.uleb128 .LVU1598
	.uleb128 .LVU1668
	.uleb128 .LVU1674
	.uleb128 .LVU1675
	.uleb128 .LVU1679
	.uleb128 .LVU1690
	.uleb128 .LVU1692
	.uleb128 .LVU1759
	.uleb128 .LVU1763
	.uleb128 .LVU1768
	.uleb128 .LVU1773
	.uleb128 .LVU1783
	.uleb128 .LVU1784
	.uleb128 .LVU1854
	.uleb128 .LVU1862
	.uleb128 .LVU1863
	.uleb128 .LVU1867
	.uleb128 .LVU1878
	.uleb128 .LVU1880
	.uleb128 .LVU1947
	.uleb128 .LVU1951
	.uleb128 .LVU1956
	.uleb128 .LVU1961
	.uleb128 .LVU1971
	.uleb128 .LVU1972
	.uleb128 .LVU2037
	.uleb128 .LVU2040
	.uleb128 .LVU2044
	.uleb128 .LVU2049
	.uleb128 .LVU2060
	.uleb128 .LVU2079
	.uleb128 .LVU2132
	.uleb128 .LVU2136
	.uleb128 .LVU2143
	.uleb128 .LVU2147
.LLST88:
	.4byte	.LVL409-.Ltext0
	.4byte	.LVL412-.Ltext0
	.2byte	0x1
	.byte	0x59
	.4byte	.LVL412-.Ltext0
	.4byte	.LVL413-.Ltext0
	.2byte	0xf
	.byte	0x91
	.sleb128 -52
	.byte	0x6
	.byte	0x6
	.byte	0x7b
	.sleb128 0
	.byte	0x27
	.byte	0x91
	.sleb128 -52
	.byte	0x6
	.byte	0x23
	.uleb128 0x20
	.byte	0x6
	.byte	0x27
	.byte	0x9f
	.4byte	.LVL413-.Ltext0
	.4byte	.LVL413-.Ltext0
	.2byte	0x13
	.byte	0x91
	.sleb128 -52
	.byte	0x6
	.byte	0x6
	.byte	0x91
	.sleb128 -52
	.byte	0x6
	.byte	0x23
	.uleb128 0x10
	.byte	0x6
	.byte	0x27
	.byte	0x91
	.sleb128 -52
	.byte	0x6
	.byte	0x23
	.uleb128 0x20
	.byte	0x6
	.byte	0x27
	.byte	0x9f
	.4byte	.LVL413-.Ltext0
	.4byte	.LVL419-.Ltext0
	.2byte	0x1
	.byte	0x59
	.4byte	.LVL419-.Ltext0
	.4byte	.LVL420-.Ltext0
	.2byte	0x3a
	.byte	0x91
	.sleb128 -52
	.byte	0x6
	.byte	0x6
	.byte	0x91
	.sleb128 -52
	.byte	0x6
	.byte	0x23
	.uleb128 0x10
	.byte	0x6
	.byte	0x27
	.byte	0x91
	.sleb128 -52
	.byte	0x6
	.byte	0x23
	.uleb128 0x20
	.byte	0x6
	.byte	0x27
	.byte	0x35
	.byte	0x14
	.byte	0x14
	.byte	0x24
	.byte	0x17
	.byte	0x1f
	.byte	0x23
	.uleb128 0x20
	.byte	0x25
	.byte	0x21
	.byte	0x91
	.sleb128 -52
	.byte	0x6
	.byte	0x6
	.byte	0x91
	.sleb128 -52
	.byte	0x6
	.byte	0x23
	.uleb128 0x10
	.byte	0x6
	.byte	0x27
	.byte	0x91
	.sleb128 -52
	.byte	0x6
	.byte	0x23
	.uleb128 0x20
	.byte	0x6
	.byte	0x27
	.byte	0x3e
	.byte	0x14
	.byte	0x14
	.byte	0x24
	.byte	0x17
	.byte	0x1f
	.byte	0x23
	.uleb128 0x20
	.byte	0x25
	.byte	0x21
	.byte	0x27
	.byte	0x9f
	.4byte	.LVL421-.Ltext0
	.4byte	.LVL426-.Ltext0
	.2byte	0x1
	.byte	0x57
	.4byte	.LVL426-.Ltext0
	.4byte	.LVL449-.Ltext0
	.2byte	0x3e
	.byte	0x91
	.sleb128 -52
	.byte	0x6
	.byte	0x23
	.uleb128 0x8
	.byte	0x6
	.byte	0x91
	.sleb128 -52
	.byte	0x6
	.byte	0x23
	.uleb128 0x18
	.byte	0x6
	.byte	0x27
	.byte	0x91
	.sleb128 -52
	.byte	0x6
	.byte	0x23
	.uleb128 0x28
	.byte	0x6
	.byte	0x27
	.byte	0x35
	.byte	0x14
	.byte	0x14
	.byte	0x24
	.byte	0x17
	.byte	0x1f
	.byte	0x23
	.uleb128 0x20
	.byte	0x25
	.byte	0x21
	.byte	0x91
	.sleb128 -52
	.byte	0x6
	.byte	0x23
	.uleb128 0x8
	.byte	0x6
	.byte	0x91
	.sleb128 -52
	.byte	0x6
	.byte	0x23
	.uleb128 0x18
	.byte	0x6
	.byte	0x27
	.byte	0x91
	.sleb128 -52
	.byte	0x6
	.byte	0x23
	.uleb128 0x28
	.byte	0x6
	.byte	0x27
	.byte	0x3e
	.byte	0x14
	.byte	0x14
	.byte	0x24
	.byte	0x17
	.byte	0x1f
	.byte	0x23
	.uleb128 0x20
	.byte	0x25
	.byte	0x21
	.byte	0x27
	.byte	0x9f
	.4byte	.LVL449-.Ltext0
	.4byte	.LVL451-.Ltext0
	.2byte	0x1
	.byte	0x59
	.4byte	.LVL451-.Ltext0
	.4byte	.LVL453-.Ltext0
	.2byte	0x100
	.byte	0x72
	.sleb128 0
	.byte	0x91
	.sleb128 -76
	.byte	0x6
	.byte	0x27
	.byte	0x91
	.sleb128 -52
	.byte	0x6
	.byte	0x23
	.uleb128 0x4
	.byte	0x6
	.byte	0x91
	.sleb128 -52
	.byte	0x6
	.byte	0x23
	.uleb128 0x14
	.byte	0x6
	.byte	0x27
	.byte	0x91
	.sleb128 -52
	.byte	0x6
	.byte	0x23
	.uleb128 0x24
	.byte	0x6
	.byte	0x27
	.byte	0x35
	.byte	0x14
	.byte	0x14
	.byte	0x24
	.byte	0x17
	.byte	0x1f
	.byte	0x23
	.uleb128 0x20
	.byte	0x25
	.byte	0x21
	.byte	0x91
	.sleb128 -52
	.byte	0x6
	.byte	0x23
	.uleb128 0x4
	.byte	0x6
	.byte	0x91
	.sleb128 -52
	.byte	0x6
	.byte	0x23
	.uleb128 0x14
	.byte	0x6
	.byte	0x27
	.byte	0x91
	.sleb128 -52
	.byte	0x6
	.byte	0x23
	.uleb128 0x24
	.byte	0x6
	.byte	0x27
	.byte	0x3e
	.byte	0x14
	.byte	0x14
	.byte	0x24
	.byte	0x17
	.byte	0x1f
	.byte	0x23
	.uleb128 0x20
	.byte	0x25
	.byte	0x21
	.byte	0x27
	.byte	0x91
	.sleb128 -52
	.byte	0x6
	.byte	0x23
	.uleb128 0x28
	.byte	0x6
	.byte	0x27
	.byte	0x3b
	.byte	0x14
	.byte	0x14
	.byte	0x24
	.byte	0x17
	.byte	0x1f
	.byte	0x23
	.uleb128 0x20
	.byte	0x25
	.byte	0x21
	.byte	0x72
	.sleb128 0
	.byte	0x27
	.byte	0x91
	.sleb128 -76
	.byte	0x6
	.byte	0x1a
	.byte	0x91
	.sleb128 -52
	.byte	0x6
	.byte	0x6
	.byte	0x91
	.sleb128 -52
	.byte	0x6
	.byte	0x23
	.uleb128 0x10
	.byte	0x6
	.byte	0x27
	.byte	0x91
	.sleb128 -52
	.byte	0x6
	.byte	0x23
	.uleb128 0x20
	.byte	0x6
	.byte	0x27
	.byte	0x35
	.byte	0x14
	.byte	0x14
	.byte	0x24
	.byte	0x17
	.byte	0x1f
	.byte	0x23
	.uleb128 0x20
	.byte	0x25
	.byte	0x21
	.byte	0x27
	.byte	0x91
	.sleb128 -52
	.byte	0x6
	.byte	0x6
	.byte	0x91
	.sleb128 -52
	.byte	0x6
	.byte	0x23
	.uleb128 0x10
	.byte	0x6
	.byte	0x27
	.byte	0x91
	.sleb128 -52
	.byte	0x6
	.byte	0x23
	.uleb128 0x20
	.byte	0x6
	.byte	0x27
	.byte	0x3e
	.byte	0x14
	.byte	0x14
	.byte	0x24
	.byte	0x17
	.byte	0x1f
	.byte	0x23
	.uleb128 0x20
	.byte	0x25
	.byte	0x21
	.byte	0x27
	.byte	0x91
	.sleb128 -52
	.byte	0x6
	.byte	0x23
	.uleb128 0x14
	.byte	0x6
	.byte	0x27
	.byte	0x1a
	.byte	0x91
	.sleb128 -52
	.byte	0x6
	.byte	0x23
	.uleb128 0x4
	.byte	0x6
	.byte	0x91
	.sleb128 -52
	.byte	0x6
	.byte	0x23
	.uleb128 0x14
	.byte	0x6
	.byte	0x27
	.byte	0x91
	.sleb128 -52
	.byte	0x6
	.byte	0x23
	.uleb128 0x24
	.byte	0x6
	.byte	0x27
	.byte	0x35
	.byte	0x14
	.byte	0x14
	.byte	0x24
	.byte	0x17
	.byte	0x1f
	.byte	0x23
	.uleb128 0x20
	.byte	0x25
	.byte	0x21
	.byte	0x91
	.sleb128 -52
	.byte	0x6
	.byte	0x23
	.uleb128 0x4
	.byte	0x6
	.byte	0x91
	.sleb128 -52
	.byte	0x6
	.byte	0x23
	.uleb128 0x14
	.byte	0x6
	.byte	0x27
	.byte	0x91
	.sleb128 -52
	.byte	0x6
	.byte	0x23
	.uleb128 0x24
	.byte	0x6
	.byte	0x27
	.byte	0x3e
	.byte	0x14
	.byte	0x14
	.byte	0x24
	.byte	0x17
	.byte	0x1f
	.byte	0x23
	.uleb128 0x20
	.byte	0x25
	.byte	0x21
	.byte	0x27
	.byte	0x91
	.sleb128 -52
	.byte	0x6
	.byte	0x23
	.uleb128 0x28
	.byte	0x6
	.byte	0x27
	.byte	0x3b
	.byte	0x14
	.byte	0x14
	.byte	0x24
	.byte	0x17
	.byte	0x1f
	.byte	0x23
	.uleb128 0x20
	.byte	0x25
	.byte	0x21
	.byte	0x27
	.byte	0x38
	.byte	0x14
	.byte	0x14
	.byte	0x24
	.byte	0x17
	.byte	0x1f
	.byte	0x23
	.uleb128 0x20
	.byte	0x25
	.byte	0x21
	.byte	0x75
	.sleb128 0
	.byte	0x27
	.byte	0x91
	.sleb128 -64
	.byte	0x6
	.byte	0x27
	.byte	0x9f
	.4byte	.LVL453-.Ltext0
	.4byte	.LVL453-.Ltext0
	.2byte	0x161
	.byte	0x91
	.sleb128 -52
	.byte	0x6
	.byte	0x23
	.uleb128 0xc
	.byte	0x6
	.byte	0x91
	.sleb128 -52
	.byte	0x6
	.byte	0x23
	.uleb128 0x1c
	.byte	0x6
	.byte	0x27
	.byte	0x91
	.sleb128 -52
	.byte	0x6
	.byte	0x23
	.uleb128 0x2c
	.byte	0x6
	.byte	0x27
	.byte	0x35
	.byte	0x14
	.byte	0x14
	.byte	0x24
	.byte	0x17
	.byte	0x1f
	.byte	0x23
	.uleb128 0x20
	.byte	0x25
	.byte	0x21
	.byte	0x91
	.sleb128 -52
	.byte	0x6
	.byte	0x23
	.uleb128 0xc
	.byte	0x6
	.byte	0x91
	.sleb128 -52
	.byte	0x6
	.byte	0x23
	.uleb128 0x1c
	.byte	0x6
	.byte	0x27
	.byte	0x91
	.sleb128 -52
	.byte	0x6
	.byte	0x23
	.uleb128 0x2c
	.byte	0x6
	.byte	0x27
	.byte	0x3e
	.byte	0x14
	.byte	0x14
	.byte	0x24
	.byte	0x17
	.byte	0x1f
	.byte	0x23
	.uleb128 0x20
	.byte	0x25
	.byte	0x21
	.byte	0x27
	.byte	0x91
	.sleb128 -52
	.byte	0x6
	.byte	0x23
	.uleb128 0x20
	.byte	0x6
	.byte	0x27
	.byte	0x3b
	.byte	0x14
	.byte	0x14
	.byte	0x24
	.byte	0x17
	.byte	0x1f
	.byte	0x23
	.uleb128 0x20
	.byte	0x25
	.byte	0x21
	.byte	0x72
	.sleb128 0
	.byte	0x27
	.byte	0x91
	.sleb128 -64
	.byte	0x6
	.byte	0x1a
	.byte	0x91
	.sleb128 -48
	.byte	0x6
	.byte	0x27
	.byte	0x31
	.byte	0x14
	.byte	0x14
	.byte	0x24
	.byte	0x17
	.byte	0x1f
	.byte	0x23
	.uleb128 0x20
	.byte	0x25
	.byte	0x21
	.byte	0x72
	.sleb128 0
	.byte	0x91
	.sleb128 -76
	.byte	0x6
	.byte	0x27
	.byte	0x91
	.sleb128 -52
	.byte	0x6
	.byte	0x23
	.uleb128 0x4
	.byte	0x6
	.byte	0x91
	.sleb128 -52
	.byte	0x6
	.byte	0x23
	.uleb128 0x14
	.byte	0x6
	.byte	0x27
	.byte	0x91
	.sleb128 -52
	.byte	0x6
	.byte	0x23
	.uleb128 0x24
	.byte	0x6
	.byte	0x27
	.byte	0x35
	.byte	0x14
	.byte	0x14
	.byte	0x24
	.byte	0x17
	.byte	0x1f
	.byte	0x23
	.uleb128 0x20
	.byte	0x25
	.byte	0x21
	.byte	0x91
	.sleb128 -52
	.byte	0x6
	.byte	0x23
	.uleb128 0x4
	.byte	0x6
	.byte	0x91
	.sleb128 -52
	.byte	0x6
	.byte	0x23
	.uleb128 0x14
	.byte	0x6
	.byte	0x27
	.byte	0x91
	.sleb128 -52
	.byte	0x6
	.byte	0x23
	.uleb128 0x24
	.byte	0x6
	.byte	0x27
	.byte	0x3e
	.byte	0x14
	.byte	0x14
	.byte	0x24
	.byte	0x17
	.byte	0x1f
	.byte	0x23
	.uleb128 0x20
	.byte	0x25
	.byte	0x21
	.byte	0x27
	.byte	0x91
	.sleb128 -52
	.byte	0x6
	.byte	0x23
	.uleb128 0x28
	.byte	0x6
	.byte	0x27
	.byte	0x3b
	.byte	0x14
	.byte	0x14
	.byte	0x24
	.byte	0x17
	.byte	0x1f
	.byte	0x23
	.uleb128 0x20
	.byte	0x25
	.byte	0x21
	.byte	0x72
	.sleb128 0
	.byte	0x27
	.byte	0x91
	.sleb128 -76
	.byte	0x6
	.byte	0x1a
	.byte	0x91
	.sleb128 -52
	.byte	0x6
	.byte	0x6
	.byte	0x91
	.sleb128 -52
	.byte	0x6
	.byte	0x23
	.uleb128 0x10
	.byte	0x6
	.byte	0x27
	.byte	0x91
	.sleb128 -52
	.byte	0x6
	.byte	0x23
	.uleb128 0x20
	.byte	0x6
	.byte	0x27
	.byte	0x35
	.byte	0x14
	.byte	0x14
	.byte	0x24
	.byte	0x17
	.byte	0x1f
	.byte	0x23
	.uleb128 0x20
	.byte	0x25
	.byte	0x21
	.byte	0x27
	.byte	0x91
	.sleb128 -52
	.byte	0x6
	.byte	0x6
	.byte	0x91
	.sleb128 -52
	.byte	0x6
	.byte	0x23
	.uleb128 0x10
	.byte	0x6
	.byte	0x27
	.byte	0x91
	.sleb128 -52
	.byte	0x6
	.byte	0x23
	.uleb128 0x20
	.byte	0x6
	.byte	0x27
	.byte	0x3e
	.byte	0x14
	.byte	0x14
	.byte	0x24
	.byte	0x17
	.byte	0x1f
	.byte	0x23
	.uleb128 0x20
	.byte	0x25
	.byte	0x21
	.byte	0x27
	.byte	0x91
	.sleb128 -52
	.byte	0x6
	.byte	0x23
	.uleb128 0x14
	.byte	0x6
	.byte	0x27
	.byte	0x1a
	.byte	0x91
	.sleb128 -52
	.byte	0x6
	.byte	0x23
	.uleb128 0x4
	.byte	0x6
	.byte	0x91
	.sleb128 -52
	.byte	0x6
	.byte	0x23
	.uleb128 0x14
	.byte	0x6
	.byte	0x27
	.byte	0x91
	.sleb128 -52
	.byte	0x6
	.byte	0x23
	.uleb128 0x24
	.byte	0x6
	.byte	0x27
	.byte	0x35
	.byte	0x14
	.byte	0x14
	.byte	0x24
	.byte	0x17
	.byte	0x1f
	.byte	0x23
	.uleb128 0x20
	.byte	0x25
	.byte	0x21
	.byte	0x91
	.sleb128 -52
	.byte	0x6
	.byte	0x23
	.uleb128 0x4
	.byte	0x6
	.byte	0x91
	.sleb128 -52
	.byte	0x6
	.byte	0x23
	.uleb128 0x14
	.byte	0x6
	.byte	0x27
	.byte	0x91
	.sleb128 -52
	.byte	0x6
	.byte	0x23
	.uleb128 0x24
	.byte	0x6
	.byte	0x27
	.byte	0x3e
	.byte	0x14
	.byte	0x14
	.byte	0x24
	.byte	0x17
	.byte	0x1f
	.byte	0x23
	.uleb128 0x20
	.byte	0x25
	.byte	0x21
	.byte	0x27
	.byte	0x91
	.sleb128 -52
	.byte	0x6
	.byte	0x23
	.uleb128 0x28
	.byte	0x6
	.byte	0x27
	.byte	0x3b
	.byte	0x14
	.byte	0x14
	.byte	0x24
	.byte	0x17
	.byte	0x1f
	.byte	0x23
	.uleb128 0x20
	.byte	0x25
	.byte	0x21
	.byte	0x27
	.byte	0x38
	.byte	0x14
	.byte	0x14
	.byte	0x24
	.byte	0x17
	.byte	0x1f
	.byte	0x23
	.uleb128 0x20
	.byte	0x25
	.byte	0x21
	.byte	0x27
	.byte	0x91
	.sleb128 -64
	.byte	0x6
	.byte	0x27
	.byte	0x9f
	.4byte	.LVL453-.Ltext0
	.4byte	.LVL459-.Ltext0
	.2byte	0x1
	.byte	0x59
	.4byte	.LVL462-.Ltext0
	.4byte	.LVL462-.Ltext0
	.2byte	0xbf
	.byte	0x91
	.sleb128 -52
	.byte	0x6
	.byte	0x23
	.uleb128 0xc
	.byte	0x6
	.byte	0x91
	.sleb128 -52
	.byte	0x6
	.byte	0x23
	.uleb128 0x1c
	.byte	0x6
	.byte	0x27
	.byte	0x91
	.sleb128 -52
	.byte	0x6
	.byte	0x23
	.uleb128 0x2c
	.byte	0x6
	.byte	0x27
	.byte	0x35
	.byte	0x14
	.byte	0x14
	.byte	0x24
	.byte	0x17
	.byte	0x1f
	.byte	0x23
	.uleb128 0x20
	.byte	0x25
	.byte	0x21
	.byte	0x91
	.sleb128 -52
	.byte	0x6
	.byte	0x23
	.uleb128 0xc
	.byte	0x6
	.byte	0x91
	.sleb128 -52
	.byte	0x6
	.byte	0x23
	.uleb128 0x1c
	.byte	0x6
	.byte	0x27
	.byte	0x91
	.sleb128 -52
	.byte	0x6
	.byte	0x23
	.uleb128 0x2c
	.byte	0x6
	.byte	0x27
	.byte	0x3e
	.byte	0x14
	.byte	0x14
	.byte	0x24
	.byte	0x17
	.byte	0x1f
	.byte	0x23
	.uleb128 0x20
	.byte	0x25
	.byte	0x21
	.byte	0x27
	.byte	0x91
	.sleb128 -52
	.byte	0x6
	.byte	0x23
	.uleb128 0x20
	.byte	0x6
	.byte	0x27
	.byte	0x3b
	.byte	0x14
	.byte	0x14
	.byte	0x24
	.byte	0x17
	.byte	0x1f
	.byte	0x23
	.uleb128 0x20
	.byte	0x25
	.byte	0x21
	.byte	0x72
	.sleb128 0
	.byte	0x27
	.byte	0x91
	.sleb128 -64
	.byte	0x6
	.byte	0x1a
	.byte	0x91
	.sleb128 -48
	.byte	0x6
	.byte	0x27
	.byte	0x91
	.sleb128 -64
	.byte	0x6
	.byte	0x20
	.byte	0x1a
	.byte	0x91
	.sleb128 -52
	.byte	0x6
	.byte	0x23
	.uleb128 0xc
	.byte	0x6
	.byte	0x91
	.sleb128 -52
	.byte	0x6
	.byte	0x23
	.uleb128 0x1c
	.byte	0x6
	.byte	0x27
	.byte	0x91
	.sleb128 -52
	.byte	0x6
	.byte	0x23
	.uleb128 0x2c
	.byte	0x6
	.byte	0x27
	.byte	0x35
	.byte	0x14
	.byte	0x14
	.byte	0x24
	.byte	0x17
	.byte	0x1f
	.byte	0x23
	.uleb128 0x20
	.byte	0x25
	.byte	0x21
	.byte	0x91
	.sleb128 -52
	.byte	0x6
	.byte	0x23
	.uleb128 0xc
	.byte	0x6
	.byte	0x91
	.sleb128 -52
	.byte	0x6
	.byte	0x23
	.uleb128 0x1c
	.byte	0x6
	.byte	0x27
	.byte	0x91
	.sleb128 -52
	.byte	0x6
	.byte	0x23
	.uleb128 0x2c
	.byte	0x6
	.byte	0x27
	.byte	0x3e
	.byte	0x14
	.byte	0x14
	.byte	0x24
	.byte	0x17
	.byte	0x1f
	.byte	0x23
	.uleb128 0x20
	.byte	0x25
	.byte	0x21
	.byte	0x27
	.byte	0x91
	.sleb128 -52
	.byte	0x6
	.byte	0x23
	.uleb128 0x20
	.byte	0x6
	.byte	0x27
	.byte	0x3b
	.byte	0x14
	.byte	0x14
	.byte	0x24
	.byte	0x17
	.byte	0x1f
	.byte	0x23
	.uleb128 0x20
	.byte	0x25
	.byte	0x21
	.byte	0x27
	.byte	0x38
	.byte	0x14
	.byte	0x14
	.byte	0x24
	.byte	0x17
	.byte	0x1f
	.byte	0x23
	.uleb128 0x20
	.byte	0x25
	.byte	0x21
	.byte	0x7c
	.sleb128 0
	.byte	0x27
	.byte	0x91
	.sleb128 -60
	.byte	0x6
	.byte	0x27
	.byte	0x9f
	.4byte	.LVL462-.Ltext0
	.4byte	.LVL464-.Ltext0
	.2byte	0x1
	.byte	0x57
	.4byte	.LVL464-.Ltext0
	.4byte	.LVL465-.Ltext0
	.2byte	0x33c
	.byte	0x91
	.sleb128 -52
	.byte	0x6
	.byte	0x6
	.byte	0x91
	.sleb128 -52
	.byte	0x6
	.byte	0x23
	.uleb128 0x10
	.byte	0x6
	.byte	0x27
	.byte	0x91
	.sleb128 -52
	.byte	0x6
	.byte	0x23
	.uleb128 0x20
	.byte	0x6
	.byte	0x27
	.byte	0x35
	.byte	0x14
	.byte	0x14
	.byte	0x24
	.byte	0x17
	.byte	0x1f
	.byte	0x23
	.uleb128 0x20
	.byte	0x25
	.byte	0x21
	.byte	0x91
	.sleb128 -52
	.byte	0x6
	.byte	0x6
	.byte	0x91
	.sleb128 -52
	.byte	0x6
	.byte	0x23
	.uleb128 0x10
	.byte	0x6
	.byte	0x27
	.byte	0x91
	.sleb128 -52
	.byte	0x6
	.byte	0x23
	.uleb128 0x20
	.byte	0x6
	.byte	0x27
	.byte	0x3e
	.byte	0x14
	.byte	0x14
	.byte	0x24
	.byte	0x17
	.byte	0x1f
	.byte	0x23
	.uleb128 0x20
	.byte	0x25
	.byte	0x21
	.byte	0x27
	.byte	0x91
	.sleb128 -52
	.byte	0x6
	.byte	0x23
	.uleb128 0x14
	.byte	0x6
	.byte	0x27
	.byte	0x72
	.sleb128 0
	.byte	0x27
	.byte	0x91
	.sleb128 -52
	.byte	0x6
	.byte	0x23
	.uleb128 0x4
	.byte	0x6
	.byte	0x91
	.sleb128 -52
	.byte	0x6
	.byte	0x23
	.uleb128 0x14
	.byte	0x6
	.byte	0x27
	.byte	0x91
	.sleb128 -52
	.byte	0x6
	.byte	0x23
	.uleb128 0x24
	.byte	0x6
	.byte	0x27
	.byte	0x35
	.byte	0x14
	.byte	0x14
	.byte	0x24
	.byte	0x17
	.byte	0x1f
	.byte	0x23
	.uleb128 0x20
	.byte	0x25
	.byte	0x21
	.byte	0x91
	.sleb128 -52
	.byte	0x6
	.byte	0x23
	.uleb128 0x4
	.byte	0x6
	.byte	0x91
	.sleb128 -52
	.byte	0x6
	.byte	0x23
	.uleb128 0x14
	.byte	0x6
	.byte	0x27
	.byte	0x91
	.sleb128 -52
	.byte	0x6
	.byte	0x23
	.uleb128 0x24
	.byte	0x6
	.byte	0x27
	.byte	0x3e
	.byte	0x14
	.byte	0x14
	.byte	0x24
	.byte	0x17
	.byte	0x1f
	.byte	0x23
	.uleb128 0x20
	.byte	0x25
	.byte	0x21
	.byte	0x27
	.byte	0x91
	.sleb128 -52
	.byte	0x6
	.byte	0x23
	.uleb128 0x28
	.byte	0x6
	.byte	0x27
	.byte	0x3b
	.byte	0x14
	.byte	0x14
	.byte	0x24
	.byte	0x17
	.byte	0x1f
	.byte	0x23
	.uleb128 0x20
	.byte	0x25
	.byte	0x21
	.byte	0x1a
	.byte	0x91
	.sleb128 -52
	.byte	0x6
	.byte	0x23
	.uleb128 0x4
	.byte	0x6
	.byte	0x91
	.sleb128 -52
	.byte	0x6
	.byte	0x23
	.uleb128 0x14
	.byte	0x6
	.byte	0x27
	.byte	0x91
	.sleb128 -52
	.byte	0x6
	.byte	0x23
	.uleb128 0x24
	.byte	0x6
	.byte	0x27
	.byte	0x35
	.byte	0x14
	.byte	0x14
	.byte	0x24
	.byte	0x17
	.byte	0x1f
	.byte	0x23
	.uleb128 0x20
	.byte	0x25
	.byte	0x21
	.byte	0x27
	.byte	0x91
	.sleb128 -52
	.byte	0x6
	.byte	0x23
	.uleb128 0x4
	.byte	0x6
	.byte	0x91
	.sleb128 -52
	.byte	0x6
	.byte	0x23
	.uleb128 0x14
	.byte	0x6
	.byte	0x27
	.byte	0x91
	.sleb128 -52
	.byte	0x6
	.byte	0x23
	.uleb128 0x24
	.byte	0x6
	.byte	0x27
	.byte	0x3e
	.byte	0x14
	.byte	0x14
	.byte	0x24
	.byte	0x17
	.byte	0x1f
	.byte	0x23
	.uleb128 0x20
	.byte	0x25
	.byte	0x21
	.byte	0x27
	.byte	0x91
	.sleb128 -52
	.byte	0x6
	.byte	0x23
	.uleb128 0xc
	.byte	0x6
	.byte	0x91
	.sleb128 -52
	.byte	0x6
	.byte	0x23
	.uleb128 0x1c
	.byte	0x6
	.byte	0x27
	.byte	0x91
	.sleb128 -52
	.byte	0x6
	.byte	0x23
	.uleb128 0x2c
	.byte	0x6
	.byte	0x27
	.byte	0x35
	.byte	0x14
	.byte	0x14
	.byte	0x24
	.byte	0x17
	.byte	0x1f
	.byte	0x23
	.uleb128 0x20
	.byte	0x25
	.byte	0x21
	.byte	0x91
	.sleb128 -52
	.byte	0x6
	.byte	0x23
	.uleb128 0xc
	.byte	0x6
	.byte	0x91
	.sleb128 -52
	.byte	0x6
	.byte	0x23
	.uleb128 0x1c
	.byte	0x6
	.byte	0x27
	.byte	0x91
	.sleb128 -52
	.byte	0x6
	.byte	0x23
	.uleb128 0x2c
	.byte	0x6
	.byte	0x27
	.byte	0x3e
	.byte	0x14
	.byte	0x14
	.byte	0x24
	.byte	0x17
	.byte	0x1f
	.byte	0x23
	.uleb128 0x20
	.byte	0x25
	.byte	0x21
	.byte	0x27
	.byte	0x91
	.sleb128 -52
	.byte	0x6
	.byte	0x23
	.uleb128 0x20
	.byte	0x6
	.byte	0x27
	.byte	0x3b
	.byte	0x14
	.byte	0x14
	.byte	0x24
	.byte	0x17
	.byte	0x1f
	.byte	0x23
	.uleb128 0x20
	.byte	0x25
	.byte	0x21
	.byte	0x72
	.sleb128 0
	.byte	0x27
	.byte	0x91
	.sleb128 -64
	.byte	0x6
	.byte	0x1a
	.byte	0x91
	.sleb128 -48
	.byte	0x6
	.byte	0x27
	.byte	0x91
	.sleb128 -64
	.byte	0x6
	.byte	0x20
	.byte	0x1a
	.byte	0x91
	.sleb128 -52
	.byte	0x6
	.byte	0x23
	.uleb128 0xc
	.byte	0x6
	.byte	0x91
	.sleb128 -52
	.byte	0x6
	.byte	0x23
	.uleb128 0x1c
	.byte	0x6
	.byte	0x27
	.byte	0x91
	.sleb128 -52
	.byte	0x6
	.byte	0x23
	.uleb128 0x2c
	.byte	0x6
	.byte	0x27
	.byte	0x35
	.byte	0x14
	.byte	0x14
	.byte	0x24
	.byte	0x17
	.byte	0x1f
	.byte	0x23
	.uleb128 0x20
	.byte	0x25
	.byte	0x21
	.byte	0x91
	.sleb128 -52
	.byte	0x6
	.byte	0x23
	.uleb128 0xc
	.byte	0x6
	.byte	0x91
	.sleb128 -52
	.byte	0x6
	.byte	0x23
	.uleb128 0x1c
	.byte	0x6
	.byte	0x27
	.byte	0x91
	.sleb128 -52
	.byte	0x6
	.byte	0x23
	.uleb128 0x2c
	.byte	0x6
	.byte	0x27
	.byte	0x3e
	.byte	0x14
	.byte	0x14
	.byte	0x24
	.byte	0x17
	.byte	0x1f
	.byte	0x23
	.uleb128 0x20
	.byte	0x25
	.byte	0x21
	.byte	0x27
	.byte	0x91
	.sleb128 -52
	.byte	0x6
	.byte	0x23
	.uleb128 0x20
	.byte	0x6
	.byte	0x27
	.byte	0x3b
	.byte	0x14
	.byte	0x14
	.byte	0x24
	.byte	0x17
	.byte	0x1f
	.byte	0x23
	.uleb128 0x20
	.byte	0x25
	.byte	0x21
	.byte	0x27
	.byte	0x38
	.byte	0x14
	.byte	0x14
	.byte	0x24
	.byte	0x17
	.byte	0x1f
	.byte	0x23
	.uleb128 0x20
	.byte	0x25
	.byte	0x21
	.byte	0x27
	.byte	0x91
	.sleb128 -52
	.byte	0x6
	.byte	0x23
	.uleb128 0x8
	.byte	0x6
	.byte	0x27
	.byte	0x91
	.sleb128 -60
	.byte	0x6
	.byte	0x27
	.byte	0x35
	.byte	0x14
	.byte	0x14
	.byte	0x24
	.byte	0x17
	.byte	0x1f
	.byte	0x23
	.uleb128 0x20
	.byte	0x25
	.byte	0x21
	.byte	0x91
	.sleb128 -52
	.byte	0x6
	.byte	0x6
	.byte	0x91
	.sleb128 -52
	.byte	0x6
	.byte	0x23
	.uleb128 0x10
	.byte	0x6
	.byte	0x27
	.byte	0x91
	.sleb128 -52
	.byte	0x6
	.byte	0x23
	.uleb128 0x20
	.byte	0x6
	.byte	0x27
	.byte	0x35
	.byte	0x14
	.byte	0x14
	.byte	0x24
	.byte	0x17
	.byte	0x1f
	.byte	0x23
	.uleb128 0x20
	.byte	0x25
	.byte	0x21
	.byte	0x91
	.sleb128 -52
	.byte	0x6
	.byte	0x6
	.byte	0x91
	.sleb128 -52
	.byte	0x6
	.byte	0x23
	.uleb128 0x10
	.byte	0x6
	.byte	0x27
	.byte	0x91
	.sleb128 -52
	.byte	0x6
	.byte	0x23
	.uleb128 0x20
	.byte	0x6
	.byte	0x27
	.byte	0x3e
	.byte	0x14
	.byte	0x14
	.byte	0x24
	.byte	0x17
	.byte	0x1f
	.byte	0x23
	.uleb128 0x20
	.byte	0x25
	.byte	0x21
	.byte	0x27
	.byte	0x91
	.sleb128 -52
	.byte	0x6
	.byte	0x23
	.uleb128 0x14
	.byte	0x6
	.byte	0x27
	.byte	0x72
	.sleb128 0
	.byte	0x27
	.byte	0x91
	.sleb128 -52
	.byte	0x6
	.byte	0x23
	.uleb128 0x4
	.byte	0x6
	.byte	0x91
	.sleb128 -52
	.byte	0x6
	.byte	0x23
	.uleb128 0x14
	.byte	0x6
	.byte	0x27
	.byte	0x91
	.sleb128 -52
	.byte	0x6
	.byte	0x23
	.uleb128 0x24
	.byte	0x6
	.byte	0x27
	.byte	0x35
	.byte	0x14
	.byte	0x14
	.byte	0x24
	.byte	0x17
	.byte	0x1f
	.byte	0x23
	.uleb128 0x20
	.byte	0x25
	.byte	0x21
	.byte	0x91
	.sleb128 -52
	.byte	0x6
	.byte	0x23
	.uleb128 0x4
	.byte	0x6
	.byte	0x91
	.sleb128 -52
	.byte	0x6
	.byte	0x23
	.uleb128 0x14
	.byte	0x6
	.byte	0x27
	.byte	0x91
	.sleb128 -52
	.byte	0x6
	.byte	0x23
	.uleb128 0x24
	.byte	0x6
	.byte	0x27
	.byte	0x3e
	.byte	0x14
	.byte	0x14
	.byte	0x24
	.byte	0x17
	.byte	0x1f
	.byte	0x23
	.uleb128 0x20
	.byte	0x25
	.byte	0x21
	.byte	0x27
	.byte	0x91
	.sleb128 -52
	.byte	0x6
	.byte	0x23
	.uleb128 0x28
	.byte	0x6
	.byte	0x27
	.byte	0x3b
	.byte	0x14
	.byte	0x14
	.byte	0x24
	.byte	0x17
	.byte	0x1f
	.byte	0x23
	.uleb128 0x20
	.byte	0x25
	.byte	0x21
	.byte	0x1a
	.byte	0x91
	.sleb128 -52
	.byte	0x6
	.byte	0x23
	.uleb128 0x4
	.byte	0x6
	.byte	0x91
	.sleb128 -52
	.byte	0x6
	.byte	0x23
	.uleb128 0x14
	.byte	0x6
	.byte	0x27
	.byte	0x91
	.sleb128 -52
	.byte	0x6
	.byte	0x23
	.uleb128 0x24
	.byte	0x6
	.byte	0x27
	.byte	0x35
	.byte	0x14
	.byte	0x14
	.byte	0x24
	.byte	0x17
	.byte	0x1f
	.byte	0x23
	.uleb128 0x20
	.byte	0x25
	.byte	0x21
	.byte	0x27
	.byte	0x91
	.sleb128 -52
	.byte	0x6
	.byte	0x23
	.uleb128 0x4
	.byte	0x6
	.byte	0x91
	.sleb128 -52
	.byte	0x6
	.byte	0x23
	.uleb128 0x14
	.byte	0x6
	.byte	0x27
	.byte	0x91
	.sleb128 -52
	.byte	0x6
	.byte	0x23
	.uleb128 0x24
	.byte	0x6
	.byte	0x27
	.byte	0x3e
	.byte	0x14
	.byte	0x14
	.byte	0x24
	.byte	0x17
	.byte	0x1f
	.byte	0x23
	.uleb128 0x20
	.byte	0x25
	.byte	0x21
	.byte	0x27
	.byte	0x91
	.sleb128 -52
	.byte	0x6
	.byte	0x23
	.uleb128 0xc
	.byte	0x6
	.byte	0x91
	.sleb128 -52
	.byte	0x6
	.byte	0x23
	.uleb128 0x1c
	.byte	0x6
	.byte	0x27
	.byte	0x91
	.sleb128 -52
	.byte	0x6
	.byte	0x23
	.uleb128 0x2c
	.byte	0x6
	.byte	0x27
	.byte	0x35
	.byte	0x14
	.byte	0x14
	.byte	0x24
	.byte	0x17
	.byte	0x1f
	.byte	0x23
	.uleb128 0x20
	.byte	0x25
	.byte	0x21
	.byte	0x91
	.sleb128 -52
	.byte	0x6
	.byte	0x23
	.uleb128 0xc
	.byte	0x6
	.byte	0x91
	.sleb128 -52
	.byte	0x6
	.byte	0x23
	.uleb128 0x1c
	.byte	0x6
	.byte	0x27
	.byte	0x91
	.sleb128 -52
	.byte	0x6
	.byte	0x23
	.uleb128 0x2c
	.byte	0x6
	.byte	0x27
	.byte	0x3e
	.byte	0x14
	.byte	0x14
	.byte	0x24
	.byte	0x17
	.byte	0x1f
	.byte	0x23
	.uleb128 0x20
	.byte	0x25
	.byte	0x21
	.byte	0x27
	.byte	0x91
	.sleb128 -52
	.byte	0x6
	.byte	0x23
	.uleb128 0x20
	.byte	0x6
	.byte	0x27
	.byte	0x3b
	.byte	0x14
	.byte	0x14
	.byte	0x24
	.byte	0x17
	.byte	0x1f
	.byte	0x23
	.uleb128 0x20
	.byte	0x25
	.byte	0x21
	.byte	0x72
	.sleb128 0
	.byte	0x27
	.byte	0x91
	.sleb128 -64
	.byte	0x6
	.byte	0x1a
	.byte	0x91
	.sleb128 -48
	.byte	0x6
	.byte	0x27
	.byte	0x91
	.sleb128 -64
	.byte	0x6
	.byte	0x20
	.byte	0x1a
	.byte	0x91
	.sleb128 -52
	.byte	0x6
	.byte	0x23
	.uleb128 0xc
	.byte	0x6
	.byte	0x91
	.sleb128 -52
	.byte	0x6
	.byte	0x23
	.uleb128 0x1c
	.byte	0x6
	.byte	0x27
	.byte	0x91
	.sleb128 -52
	.byte	0x6
	.byte	0x23
	.uleb128 0x2c
	.byte	0x6
	.byte	0x27
	.byte	0x35
	.byte	0x14
	.byte	0x14
	.byte	0x24
	.byte	0x17
	.byte	0x1f
	.byte	0x23
	.uleb128 0x20
	.byte	0x25
	.byte	0x21
	.byte	0x91
	.sleb128 -52
	.byte	0x6
	.byte	0x23
	.uleb128 0xc
	.byte	0x6
	.byte	0x91
	.sleb128 -52
	.byte	0x6
	.byte	0x23
	.uleb128 0x1c
	.byte	0x6
	.byte	0x27
	.byte	0x91
	.sleb128 -52
	.byte	0x6
	.byte	0x23
	.uleb128 0x2c
	.byte	0x6
	.byte	0x27
	.byte	0x3e
	.byte	0x14
	.byte	0x14
	.byte	0x24
	.byte	0x17
	.byte	0x1f
	.byte	0x23
	.uleb128 0x20
	.byte	0x25
	.byte	0x21
	.byte	0x27
	.byte	0x91
	.sleb128 -52
	.byte	0x6
	.byte	0x23
	.uleb128 0x20
	.byte	0x6
	.byte	0x27
	.byte	0x3b
	.byte	0x14
	.byte	0x14
	.byte	0x24
	.byte	0x17
	.byte	0x1f
	.byte	0x23
	.uleb128 0x20
	.byte	0x25
	.byte	0x21
	.byte	0x27
	.byte	0x38
	.byte	0x14
	.byte	0x14
	.byte	0x24
	.byte	0x17
	.byte	0x1f
	.byte	0x23
	.uleb128 0x20
	.byte	0x25
	.byte	0x21
	.byte	0x27
	.byte	0x91
	.sleb128 -52
	.byte	0x6
	.byte	0x23
	.uleb128 0x8
	.byte	0x6
	.byte	0x27
	.byte	0x91
	.sleb128 -60
	.byte	0x6
	.byte	0x27
	.byte	0x3e
	.byte	0x14
	.byte	0x14
	.byte	0x24
	.byte	0x17
	.byte	0x1f
	.byte	0x23
	.uleb128 0x20
	.byte	0x25
	.byte	0x21
	.byte	0x27
	.byte	0x9f
	.4byte	.LVL484-.Ltext0
	.4byte	.LVL487-.Ltext0
	.2byte	0x1
	.byte	0x59
	.4byte	.LVL487-.Ltext0
	.4byte	.LVL488-.Ltext0
	.2byte	0xa
	.byte	0x91
	.sleb128 -64
	.byte	0x6
	.byte	0x75
	.sleb128 0
	.byte	0x27
	.byte	0x7a
	.sleb128 0
	.byte	0x27
	.byte	0x9f
	.4byte	.LVL491-.Ltext0
	.4byte	.LVL495-.Ltext0
	.2byte	0x1
	.byte	0x59
	.4byte	.LVL499-.Ltext0
	.4byte	.LVL500-.Ltext0
	.2byte	0x1
	.byte	0x57
	.4byte	.LVL523-.Ltext0
	.4byte	.LVL525-.Ltext0
	.2byte	0x1
	.byte	0x59
	.4byte	.LVL527-.Ltext0
	.4byte	.LVL532-.Ltext0
	.2byte	0x1
	.byte	0x59
	.4byte	.LVL534-.Ltext0
	.4byte	.LVL536-.Ltext0
	.2byte	0x1
	.byte	0x57
	.4byte	.LVL559-.Ltext0
	.4byte	.LVL563-.Ltext0
	.2byte	0x1
	.byte	0x59
	.4byte	.LVL564-.Ltext0
	.4byte	.LVL568-.Ltext0
	.2byte	0x1
	.byte	0x59
	.4byte	.LVL571-.Ltext0
	.4byte	.LVL573-.Ltext0
	.2byte	0x1
	.byte	0x57
	.4byte	.LVL596-.Ltext0
	.4byte	.LVL598-.Ltext0
	.2byte	0x1
	.byte	0x59
	.4byte	.LVL600-.Ltext0
	.4byte	.LVL605-.Ltext0
	.2byte	0x1
	.byte	0x59
	.4byte	.LVL607-.Ltext0
	.4byte	.LVL608-.Ltext0
	.2byte	0x1
	.byte	0x57
	.4byte	.LVL632-.Ltext0
	.4byte	.LVL634-.Ltext0
	.2byte	0x1
	.byte	0x59
	.4byte	.LVL635-.Ltext0
	.4byte	.LVL639-.Ltext0
	.2byte	0x1
	.byte	0x59
	.4byte	.LVL642-.Ltext0
	.4byte	.LVL644-.Ltext0
	.2byte	0x1
	.byte	0x57
	.4byte	.LVL667-.Ltext0
	.4byte	.LVL669-.Ltext0
	.2byte	0x1
	.byte	0x59
	.4byte	.LVL671-.Ltext0
	.4byte	.LVL676-.Ltext0
	.2byte	0x1
	.byte	0x59
	.4byte	.LVL678-.Ltext0
	.4byte	.LVL679-.Ltext0
	.2byte	0x1
	.byte	0x57
	.4byte	.LVL703-.Ltext0
	.4byte	.LVL707-.Ltext0
	.2byte	0x1
	.byte	0x59
	.4byte	.LVL708-.Ltext0
	.4byte	.LVL712-.Ltext0
	.2byte	0x1
	.byte	0x59
	.4byte	.LVL715-.Ltext0
	.4byte	.LVL717-.Ltext0
	.2byte	0x1
	.byte	0x57
	.4byte	.LVL740-.Ltext0
	.4byte	.LVL742-.Ltext0
	.2byte	0x1
	.byte	0x59
	.4byte	.LVL744-.Ltext0
	.4byte	.LVL749-.Ltext0
	.2byte	0x1
	.byte	0x59
	.4byte	.LVL751-.Ltext0
	.4byte	.LVL752-.Ltext0
	.2byte	0x1
	.byte	0x57
	.4byte	.LVL766-.Ltext0
	.4byte	.LVL767-.Ltext0
	.2byte	0x1
	.byte	0x56
	.4byte	.LVL768-.Ltext0
	.4byte	.LVL773-.Ltext0
	.2byte	0x1
	.byte	0x5d
	.4byte	.LVL775-.Ltext0
	.4byte	.LVL777-.Ltext0
	.2byte	0x1
	.byte	0x5b
	.4byte	.LVL797-.Ltext0
	.4byte	.LVL800-.Ltext0
	.2byte	0x1
	.byte	0x56
	.4byte	.LVL804-.Ltext0
	.4byte	.LVL808-.Ltext0
	.2byte	0x1
	.byte	0x56
	.4byte	0
	.4byte	0
.LVUS59:
	.uleb128 0
	.uleb128 .LVU454
	.uleb128 .LVU454
	.uleb128 .LVU455
	.uleb128 .LVU455
	.uleb128 .LVU465
	.uleb128 .LVU465
	.uleb128 .LVU474
	.uleb128 .LVU474
	.uleb128 .LVU1058
	.uleb128 .LVU1058
	.uleb128 0
.LLST59:
	.4byte	.LVL149-.Ltext0
	.4byte	.LVL150-.Ltext0
	.2byte	0x1
	.byte	0x52
	.4byte	.LVL150-.Ltext0
	.4byte	.LVL151-.Ltext0
	.2byte	0x1
	.byte	0x54
	.4byte	.LVL151-.Ltext0
	.4byte	.LVL157-.Ltext0
	.2byte	0x1
	.byte	0x55
	.4byte	.LVL157-.Ltext0
	.4byte	.LVL162-.Ltext0
	.2byte	0x1
	.byte	0x59
	.4byte	.LVL162-.Ltext0
	.4byte	.LVL388-.Ltext0
	.2byte	0x3
	.byte	0x91
	.sleb128 -68
	.4byte	.LVL388-.Ltext0
	.4byte	.LFE10-.Ltext0
	.2byte	0x1
	.byte	0x53
	.4byte	0
	.4byte	0
.LVUS60:
	.uleb128 .LVU456
	.uleb128 .LVU471
	.uleb128 .LVU471
	.uleb128 .LVU475
	.uleb128 .LVU475
	.uleb128 .LVU484
	.uleb128 .LVU484
	.uleb128 .LVU494
	.uleb128 .LVU494
	.uleb128 .LVU495
	.uleb128 .LVU495
	.uleb128 .LVU526
	.uleb128 .LVU526
	.uleb128 .LVU528
	.uleb128 .LVU528
	.uleb128 .LVU580
	.uleb128 .LVU580
	.uleb128 .LVU587
	.uleb128 .LVU587
	.uleb128 .LVU588
	.uleb128 .LVU588
	.uleb128 .LVU594
	.uleb128 .LVU621
	.uleb128 .LVU623
	.uleb128 .LVU623
	.uleb128 .LVU677
	.uleb128 .LVU677
	.uleb128 .LVU685
	.uleb128 .LVU685
	.uleb128 .LVU686
	.uleb128 .LVU721
	.uleb128 .LVU722
	.uleb128 .LVU722
	.uleb128 .LVU723
	.uleb128 .LVU723
	.uleb128 .LVU772
	.uleb128 .LVU772
	.uleb128 .LVU782
	.uleb128 .LVU782
	.uleb128 .LVU783
	.uleb128 .LVU814
	.uleb128 .LVU815
	.uleb128 .LVU866
	.uleb128 .LVU874
	.uleb128 .LVU874
	.uleb128 .LVU875
	.uleb128 .LVU908
	.uleb128 .LVU961
	.uleb128 .LVU961
	.uleb128 .LVU969
	.uleb128 .LVU969
	.uleb128 .LVU970
	.uleb128 .LVU1005
	.uleb128 .LVU1054
	.uleb128 .LVU1054
	.uleb128 .LVU1058
	.uleb128 .LVU1058
	.uleb128 0
.LLST60:
	.4byte	.LVL152-.Ltext0
	.4byte	.LVL160-.Ltext0
	.2byte	0x1
	.byte	0x56
	.4byte	.LVL160-.Ltext0
	.4byte	.LVL163-.Ltext0
	.2byte	0x1
	.byte	0x5e
	.4byte	.LVL163-.Ltext0
	.4byte	.LVL169-.Ltext0
	.2byte	0x4
	.byte	0x91
	.sleb128 -68
	.byte	0x6
	.4byte	.LVL169-.Ltext0
	.4byte	.LVL174-.Ltext0
	.2byte	0x9
	.byte	0x91
	.sleb128 -68
	.byte	0x6
	.byte	0x6
	.byte	0x73
	.sleb128 0
	.byte	0x27
	.byte	0x9f
	.4byte	.LVL174-.Ltext0
	.4byte	.LVL175-.Ltext0
	.2byte	0x1
	.byte	0x53
	.4byte	.LVL175-.Ltext0
	.4byte	.LVL185-.Ltext0
	.2byte	0x4a
	.byte	0x91
	.sleb128 -68
	.byte	0x6
	.byte	0x23
	.uleb128 0xc
	.byte	0x6
	.byte	0x91
	.sleb128 -68
	.byte	0x6
	.byte	0x23
	.uleb128 0x1c
	.byte	0x6
	.byte	0x27
	.byte	0x91
	.sleb128 -68
	.byte	0x6
	.byte	0x23
	.uleb128 0x2c
	.byte	0x6
	.byte	0x27
	.byte	0x35
	.byte	0x14
	.byte	0x14
	.byte	0x24
	.byte	0x17
	.byte	0x1f
	.byte	0x23
	.uleb128 0x20
	.byte	0x25
	.byte	0x21
	.byte	0x91
	.sleb128 -68
	.byte	0x6
	.byte	0x23
	.uleb128 0xc
	.byte	0x6
	.byte	0x91
	.sleb128 -68
	.byte	0x6
	.byte	0x23
	.uleb128 0x1c
	.byte	0x6
	.byte	0x27
	.byte	0x91
	.sleb128 -68
	.byte	0x6
	.byte	0x23
	.uleb128 0x2c
	.byte	0x6
	.byte	0x27
	.byte	0x3e
	.byte	0x14
	.byte	0x14
	.byte	0x24
	.byte	0x17
	.byte	0x1f
	.byte	0x23
	.uleb128 0x20
	.byte	0x25
	.byte	0x21
	.byte	0x27
	.byte	0x91
	.sleb128 -68
	.byte	0x6
	.byte	0x6
	.byte	0x27
	.byte	0x9f
	.4byte	.LVL185-.Ltext0
	.4byte	.LVL185-.Ltext0
	.2byte	0x4d
	.byte	0x91
	.sleb128 -68
	.byte	0x6
	.byte	0x23
	.uleb128 0xc
	.byte	0x6
	.byte	0x91
	.sleb128 -68
	.byte	0x6
	.byte	0x23
	.uleb128 0x1c
	.byte	0x6
	.byte	0x27
	.byte	0x91
	.sleb128 -68
	.byte	0x6
	.byte	0x23
	.uleb128 0x2c
	.byte	0x6
	.byte	0x27
	.byte	0x35
	.byte	0x14
	.byte	0x14
	.byte	0x24
	.byte	0x17
	.byte	0x1f
	.byte	0x23
	.uleb128 0x20
	.byte	0x25
	.byte	0x21
	.byte	0x91
	.sleb128 -68
	.byte	0x6
	.byte	0x23
	.uleb128 0xc
	.byte	0x6
	.byte	0x91
	.sleb128 -68
	.byte	0x6
	.byte	0x23
	.uleb128 0x1c
	.byte	0x6
	.byte	0x27
	.byte	0x91
	.sleb128 -68
	.byte	0x6
	.byte	0x23
	.uleb128 0x2c
	.byte	0x6
	.byte	0x27
	.byte	0x3e
	.byte	0x14
	.byte	0x14
	.byte	0x24
	.byte	0x17
	.byte	0x1f
	.byte	0x23
	.uleb128 0x20
	.byte	0x25
	.byte	0x21
	.byte	0x27
	.byte	0x91
	.sleb128 -68
	.byte	0x6
	.byte	0x6
	.byte	0x27
	.byte	0x8
	.byte	0x60
	.byte	0x27
	.byte	0x9f
	.4byte	.LVL185-.Ltext0
	.4byte	.LVL210-.Ltext0
	.2byte	0x2
	.byte	0x91
	.sleb128 -56
	.4byte	.LVL210-.Ltext0
	.4byte	.LVL214-.Ltext0
	.2byte	0x7
	.byte	0x91
	.sleb128 -56
	.byte	0x6
	.byte	0x7f
	.sleb128 0
	.byte	0x27
	.byte	0x9f
	.4byte	.LVL214-.Ltext0
	.4byte	.LVL215-.Ltext0
	.2byte	0x1
	.byte	0x5f
	.4byte	.LVL215-.Ltext0
	.4byte	.LVL221-.Ltext0
	.2byte	0x190
	.byte	0x91
	.sleb128 -68
	.byte	0x6
	.byte	0x23
	.uleb128 0x8
	.byte	0x6
	.byte	0x91
	.sleb128 -68
	.byte	0x6
	.byte	0x23
	.uleb128 0x18
	.byte	0x6
	.byte	0x27
	.byte	0x91
	.sleb128 -68
	.byte	0x6
	.byte	0x23
	.uleb128 0x28
	.byte	0x6
	.byte	0x27
	.byte	0x35
	.byte	0x14
	.byte	0x14
	.byte	0x24
	.byte	0x17
	.byte	0x1f
	.byte	0x23
	.uleb128 0x20
	.byte	0x25
	.byte	0x21
	.byte	0x91
	.sleb128 -68
	.byte	0x6
	.byte	0x23
	.uleb128 0x8
	.byte	0x6
	.byte	0x91
	.sleb128 -68
	.byte	0x6
	.byte	0x23
	.uleb128 0x18
	.byte	0x6
	.byte	0x27
	.byte	0x91
	.sleb128 -68
	.byte	0x6
	.byte	0x23
	.uleb128 0x28
	.byte	0x6
	.byte	0x27
	.byte	0x3e
	.byte	0x14
	.byte	0x14
	.byte	0x24
	.byte	0x17
	.byte	0x1f
	.byte	0x23
	.uleb128 0x20
	.byte	0x25
	.byte	0x21
	.byte	0x27
	.byte	0x91
	.sleb128 -68
	.byte	0x6
	.byte	0x23
	.uleb128 0x2c
	.byte	0x6
	.byte	0x27
	.byte	0x3b
	.byte	0x14
	.byte	0x14
	.byte	0x24
	.byte	0x17
	.byte	0x1f
	.byte	0x23
	.uleb128 0x20
	.byte	0x25
	.byte	0x21
	.byte	0x72
	.sleb128 0
	.byte	0x27
	.byte	0x91
	.sleb128 -72
	.byte	0x6
	.byte	0x1a
	.byte	0x91
	.sleb128 -68
	.byte	0x6
	.byte	0x23
	.uleb128 0x4
	.byte	0x6
	.byte	0x91
	.sleb128 -68
	.byte	0x6
	.byte	0x23
	.uleb128 0x14
	.byte	0x6
	.byte	0x27
	.byte	0x91
	.sleb128 -68
	.byte	0x6
	.byte	0x23
	.uleb128 0x24
	.byte	0x6
	.byte	0x27
	.byte	0x35
	.byte	0x14
	.byte	0x14
	.byte	0x24
	.byte	0x17
	.byte	0x1f
	.byte	0x23
	.uleb128 0x20
	.byte	0x25
	.byte	0x21
	.byte	0x27
	.byte	0x91
	.sleb128 -68
	.byte	0x6
	.byte	0x23
	.uleb128 0x4
	.byte	0x6
	.byte	0x91
	.sleb128 -68
	.byte	0x6
	.byte	0x23
	.uleb128 0x14
	.byte	0x6
	.byte	0x27
	.byte	0x91
	.sleb128 -68
	.byte	0x6
	.byte	0x23
	.uleb128 0x24
	.byte	0x6
	.byte	0x27
	.byte	0x3e
	.byte	0x14
	.byte	0x14
	.byte	0x24
	.byte	0x17
	.byte	0x1f
	.byte	0x23
	.uleb128 0x20
	.byte	0x25
	.byte	0x21
	.byte	0x27
	.byte	0x91
	.sleb128 -68
	.byte	0x6
	.byte	0x23
	.uleb128 0x18
	.byte	0x6
	.byte	0x27
	.byte	0x31
	.byte	0x14
	.byte	0x14
	.byte	0x24
	.byte	0x17
	.byte	0x1f
	.byte	0x23
	.uleb128 0x20
	.byte	0x25
	.byte	0x21
	.byte	0x91
	.sleb128 -72
	.byte	0x6
	.byte	0x27
	.byte	0x76
	.sleb128 0
	.byte	0x27
	.byte	0x35
	.byte	0x14
	.byte	0x14
	.byte	0x24
	.byte	0x17
	.byte	0x1f
	.byte	0x23
	.uleb128 0x20
	.byte	0x25
	.byte	0x21
	.byte	0x91
	.sleb128 -68
	.byte	0x6
	.byte	0x23
	.uleb128 0x8
	.byte	0x6
	.byte	0x91
	.sleb128 -68
	.byte	0x6
	.byte	0x23
	.uleb128 0x18
	.byte	0x6
	.byte	0x27
	.byte	0x91
	.sleb128 -68
	.byte	0x6
	.byte	0x23
	.uleb128 0x28
	.byte	0x6
	.byte	0x27
	.byte	0x35
	.byte	0x14
	.byte	0x14
	.byte	0x24
	.byte	0x17
	.byte	0x1f
	.byte	0x23
	.uleb128 0x20
	.byte	0x25
	.byte	0x21
	.byte	0x91
	.sleb128 -68
	.byte	0x6
	.byte	0x23
	.uleb128 0x8
	.byte	0x6
	.byte	0x91
	.sleb128 -68
	.byte	0x6
	.byte	0x23
	.uleb128 0x18
	.byte	0x6
	.byte	0x27
	.byte	0x91
	.sleb128 -68
	.byte	0x6
	.byte	0x23
	.uleb128 0x28
	.byte	0x6
	.byte	0x27
	.byte	0x3e
	.byte	0x14
	.byte	0x14
	.byte	0x24
	.byte	0x17
	.byte	0x1f
	.byte	0x23
	.uleb128 0x20
	.byte	0x25
	.byte	0x21
	.byte	0x27
	.byte	0x91
	.sleb128 -68
	.byte	0x6
	.byte	0x23
	.uleb128 0x2c
	.byte	0x6
	.byte	0x27
	.byte	0x3b
	.byte	0x14
	.byte	0x14
	.byte	0x24
	.byte	0x17
	.byte	0x1f
	.byte	0x23
	.uleb128 0x20
	.byte	0x25
	.byte	0x21
	.byte	0x72
	.sleb128 0
	.byte	0x27
	.byte	0x91
	.sleb128 -72
	.byte	0x6
	.byte	0x1a
	.byte	0x91
	.sleb128 -68
	.byte	0x6
	.byte	0x23
	.uleb128 0x4
	.byte	0x6
	.byte	0x91
	.sleb128 -68
	.byte	0x6
	.byte	0x23
	.uleb128 0x14
	.byte	0x6
	.byte	0x27
	.byte	0x91
	.sleb128 -68
	.byte	0x6
	.byte	0x23
	.uleb128 0x24
	.byte	0x6
	.byte	0x27
	.byte	0x35
	.byte	0x14
	.byte	0x14
	.byte	0x24
	.byte	0x17
	.byte	0x1f
	.byte	0x23
	.uleb128 0x20
	.byte	0x25
	.byte	0x21
	.byte	0x27
	.byte	0x91
	.sleb128 -68
	.byte	0x6
	.byte	0x23
	.uleb128 0x4
	.byte	0x6
	.byte	0x91
	.sleb128 -68
	.byte	0x6
	.byte	0x23
	.uleb128 0x14
	.byte	0x6
	.byte	0x27
	.byte	0x91
	.sleb128 -68
	.byte	0x6
	.byte	0x23
	.uleb128 0x24
	.byte	0x6
	.byte	0x27
	.byte	0x3e
	.byte	0x14
	.byte	0x14
	.byte	0x24
	.byte	0x17
	.byte	0x1f
	.byte	0x23
	.uleb128 0x20
	.byte	0x25
	.byte	0x21
	.byte	0x27
	.byte	0x91
	.sleb128 -68
	.byte	0x6
	.byte	0x23
	.uleb128 0x18
	.byte	0x6
	.byte	0x27
	.byte	0x31
	.byte	0x14
	.byte	0x14
	.byte	0x24
	.byte	0x17
	.byte	0x1f
	.byte	0x23
	.uleb128 0x20
	.byte	0x25
	.byte	0x21
	.byte	0x91
	.sleb128 -72
	.byte	0x6
	.byte	0x27
	.byte	0x76
	.sleb128 0
	.byte	0x27
	.byte	0x3e
	.byte	0x14
	.byte	0x14
	.byte	0x24
	.byte	0x17
	.byte	0x1f
	.byte	0x23
	.uleb128 0x20
	.byte	0x25
	.byte	0x21
	.byte	0x27
	.byte	0x91
	.sleb128 -56
	.byte	0x6
	.byte	0x27
	.byte	0x9f
	.4byte	.LVL223-.Ltext0
	.4byte	.LVL224-.Ltext0
	.2byte	0x2
	.byte	0x91
	.sleb128 -56
	.4byte	.LVL224-.Ltext0
	.4byte	.LVL245-.Ltext0
	.2byte	0xaa
	.byte	0x72
	.sleb128 0
	.byte	0x91
	.sleb128 -48
	.byte	0x6
	.byte	0x27
	.byte	0x91
	.sleb128 -68
	.byte	0x6
	.byte	0x23
	.uleb128 0xc
	.byte	0x6
	.byte	0x91
	.sleb128 -68
	.byte	0x6
	.byte	0x23
	.uleb128 0x1c
	.byte	0x6
	.byte	0x27
	.byte	0x91
	.sleb128 -68
	.byte	0x6
	.byte	0x23
	.uleb128 0x2c
	.byte	0x6
	.byte	0x27
	.byte	0x35
	.byte	0x14
	.byte	0x14
	.byte	0x24
	.byte	0x17
	.byte	0x1f
	.byte	0x23
	.uleb128 0x20
	.byte	0x25
	.byte	0x21
	.byte	0x91
	.sleb128 -68
	.byte	0x6
	.byte	0x23
	.uleb128 0xc
	.byte	0x6
	.byte	0x91
	.sleb128 -68
	.byte	0x6
	.byte	0x23
	.uleb128 0x1c
	.byte	0x6
	.byte	0x27
	.byte	0x91
	.sleb128 -68
	.byte	0x6
	.byte	0x23
	.uleb128 0x2c
	.byte	0x6
	.byte	0x27
	.byte	0x3e
	.byte	0x14
	.byte	0x14
	.byte	0x24
	.byte	0x17
	.byte	0x1f
	.byte	0x23
	.uleb128 0x20
	.byte	0x25
	.byte	0x21
	.byte	0x27
	.byte	0x91
	.sleb128 -68
	.byte	0x6
	.byte	0x23
	.uleb128 0x20
	.byte	0x6
	.byte	0x27
	.byte	0x3b
	.byte	0x14
	.byte	0x14
	.byte	0x24
	.byte	0x17
	.byte	0x1f
	.byte	0x23
	.uleb128 0x20
	.byte	0x25
	.byte	0x21
	.byte	0x1a
	.byte	0x91
	.sleb128 -68
	.byte	0x6
	.byte	0x23
	.uleb128 0xc
	.byte	0x6
	.byte	0x91
	.sleb128 -68
	.byte	0x6
	.byte	0x23
	.uleb128 0x1c
	.byte	0x6
	.byte	0x27
	.byte	0x91
	.sleb128 -68
	.byte	0x6
	.byte	0x23
	.uleb128 0x2c
	.byte	0x6
	.byte	0x27
	.byte	0x35
	.byte	0x14
	.byte	0x14
	.byte	0x24
	.byte	0x17
	.byte	0x1f
	.byte	0x23
	.uleb128 0x20
	.byte	0x25
	.byte	0x21
	.byte	0x27
	.byte	0x91
	.sleb128 -68
	.byte	0x6
	.byte	0x23
	.uleb128 0xc
	.byte	0x6
	.byte	0x91
	.sleb128 -68
	.byte	0x6
	.byte	0x23
	.uleb128 0x1c
	.byte	0x6
	.byte	0x27
	.byte	0x91
	.sleb128 -68
	.byte	0x6
	.byte	0x23
	.uleb128 0x2c
	.byte	0x6
	.byte	0x27
	.byte	0x3e
	.byte	0x14
	.byte	0x14
	.byte	0x24
	.byte	0x17
	.byte	0x1f
	.byte	0x23
	.uleb128 0x20
	.byte	0x25
	.byte	0x21
	.byte	0x27
	.byte	0x91
	.sleb128 -68
	.byte	0x6
	.byte	0x6
	.byte	0x27
	.byte	0x8
	.byte	0x60
	.byte	0x27
	.byte	0x9f
	.4byte	.LVL245-.Ltext0
	.4byte	.LVL250-.Ltext0
	.2byte	0x7
	.byte	0x91
	.sleb128 -56
	.byte	0x6
	.byte	0x7d
	.sleb128 0
	.byte	0x27
	.byte	0x9f
	.4byte	.LVL250-.Ltext0
	.4byte	.LVL251-.Ltext0
	.2byte	0x1
	.byte	0x5d
	.4byte	.LVL259-.Ltext0
	.4byte	.LVL260-.Ltext0
	.2byte	0x1
	.byte	0x58
	.4byte	.LVL260-.Ltext0
	.4byte	.LVL261-.Ltext0
	.2byte	0x1
	.byte	0x5a
	.4byte	.LVL261-.Ltext0
	.4byte	.LVL282-.Ltext0
	.2byte	0x2
	.byte	0x91
	.sleb128 -56
	.4byte	.LVL282-.Ltext0
	.4byte	.LVL288-.Ltext0
	.2byte	0x7
	.byte	0x91
	.sleb128 -56
	.byte	0x6
	.byte	0x7d
	.sleb128 0
	.byte	0x27
	.byte	0x9f
	.4byte	.LVL288-.Ltext0
	.4byte	.LVL289-.Ltext0
	.2byte	0x1
	.byte	0x5d
	.4byte	.LVL296-.Ltext0
	.4byte	.LVL297-.Ltext0
	.2byte	0x2
	.byte	0x91
	.sleb128 -56
	.4byte	.LVL318-.Ltext0
	.4byte	.LVL323-.Ltext0
	.2byte	0x7
	.byte	0x91
	.sleb128 -56
	.byte	0x6
	.byte	0x77
	.sleb128 0
	.byte	0x27
	.byte	0x9f
	.4byte	.LVL323-.Ltext0
	.4byte	.LVL324-.Ltext0
	.2byte	0x1
	.byte	0x57
	.4byte	.LVL331-.Ltext0
	.4byte	.LVL353-.Ltext0
	.2byte	0x2
	.byte	0x91
	.sleb128 -56
	.4byte	.LVL353-.Ltext0
	.4byte	.LVL358-.Ltext0
	.2byte	0x7
	.byte	0x91
	.sleb128 -56
	.byte	0x6
	.byte	0x77
	.sleb128 0
	.byte	0x27
	.byte	0x9f
	.4byte	.LVL358-.Ltext0
	.4byte	.LVL359-.Ltext0
	.2byte	0x1
	.byte	0x57
	.4byte	.LVL370-.Ltext0
	.4byte	.LVL387-.Ltext0
	.2byte	0x1
	.byte	0x5f
	.4byte	.LVL387-.Ltext0
	.4byte	.LVL388-.Ltext0
	.2byte	0x4
	.byte	0x91
	.sleb128 -68
	.byte	0x6
	.4byte	.LVL388-.Ltext0
	.4byte	.LFE10-.Ltext0
	.2byte	0x2
	.byte	0x73
	.sleb128 0
	.4byte	0
	.4byte	0
.LVUS61:
	.uleb128 .LVU459
	.uleb128 .LVU468
	.uleb128 .LVU468
	.uleb128 .LVU474
	.uleb128 .LVU474
	.uleb128 .LVU481
	.uleb128 .LVU481
	.uleb128 .LVU500
	.uleb128 .LVU500
	.uleb128 .LVU509
	.uleb128 .LVU509
	.uleb128 .LVU533
	.uleb128 .LVU533
	.uleb128 .LVU535
	.uleb128 .LVU535
	.uleb128 .LVU543
	.uleb128 .LVU543
	.uleb128 .LVU594
	.uleb128 .LVU594
	.uleb128 .LVU624
	.uleb128 .LVU630
	.uleb128 .LVU692
	.uleb128 .LVU727
	.uleb128 .LVU732
	.uleb128 .LVU732
	.uleb128 .LVU733
	.uleb128 .LVU733
	.uleb128 .LVU787
	.uleb128 .LVU788
	.uleb128 .LVU817
	.uleb128 .LVU821
	.uleb128 .LVU880
	.uleb128 .LVU882
	.uleb128 .LVU909
	.uleb128 .LVU917
	.uleb128 .LVU925
	.uleb128 .LVU925
	.uleb128 .LVU977
	.uleb128 .LVU977
	.uleb128 .LVU1004
	.uleb128 .LVU1011
	.uleb128 .LVU1053
	.uleb128 .LVU1053
	.uleb128 .LVU1058
	.uleb128 .LVU1058
	.uleb128 0
.LLST61:
	.4byte	.LVL153-.Ltext0
	.4byte	.LVL159-.Ltext0
	.2byte	0x1
	.byte	0x57
	.4byte	.LVL159-.Ltext0
	.4byte	.LVL162-.Ltext0
	.2byte	0x2
	.byte	0x79
	.sleb128 4
	.4byte	.LVL162-.Ltext0
	.4byte	.LVL168-.Ltext0
	.2byte	0x1
	.byte	0x52
	.4byte	.LVL168-.Ltext0
	.4byte	.LVL180-.Ltext0
	.2byte	0x6
	.byte	0x91
	.sleb128 -68
	.byte	0x6
	.byte	0x23
	.uleb128 0x4
	.4byte	.LVL180-.Ltext0
	.4byte	.LVL182-.Ltext0
	.2byte	0x1
	.byte	0x59
	.4byte	.LVL182-.Ltext0
	.4byte	.LVL188-.Ltext0
	.2byte	0x48
	.byte	0x91
	.sleb128 -68
	.byte	0x6
	.byte	0x6
	.byte	0x91
	.sleb128 -68
	.byte	0x6
	.byte	0x23
	.uleb128 0x10
	.byte	0x6
	.byte	0x27
	.byte	0x91
	.sleb128 -68
	.byte	0x6
	.byte	0x23
	.uleb128 0x20
	.byte	0x6
	.byte	0x27
	.byte	0x35
	.byte	0x14
	.byte	0x14
	.byte	0x24
	.byte	0x17
	.byte	0x1f
	.byte	0x23
	.uleb128 0x20
	.byte	0x25
	.byte	0x21
	.byte	0x91
	.sleb128 -68
	.byte	0x6
	.byte	0x6
	.byte	0x91
	.sleb128 -68
	.byte	0x6
	.byte	0x23
	.uleb128 0x10
	.byte	0x6
	.byte	0x27
	.byte	0x91
	.sleb128 -68
	.byte	0x6
	.byte	0x23
	.uleb128 0x20
	.byte	0x6
	.byte	0x27
	.byte	0x3e
	.byte	0x14
	.byte	0x14
	.byte	0x24
	.byte	0x17
	.byte	0x1f
	.byte	0x23
	.uleb128 0x20
	.byte	0x25
	.byte	0x21
	.byte	0x27
	.byte	0x91
	.sleb128 -68
	.byte	0x6
	.byte	0x23
	.uleb128 0x4
	.byte	0x6
	.byte	0x27
	.byte	0x9f
	.4byte	.LVL188-.Ltext0
	.4byte	.LVL190-.Ltext0
	.2byte	0x1
	.byte	0x58
	.4byte	.LVL190-.Ltext0
	.4byte	.LVL193-.Ltext0
	.2byte	0x1
	.byte	0x5c
	.4byte	.LVL193-.Ltext0
	.4byte	.LVL221-.Ltext0
	.2byte	0x2
	.byte	0x71
	.sleb128 0
	.4byte	.LVL221-.Ltext0
	.4byte	.LVL225-.Ltext0
	.2byte	0x1
	.byte	0x59
	.4byte	.LVL227-.Ltext0
	.4byte	.LVL257-.Ltext0
	.2byte	0x2
	.byte	0x71
	.sleb128 0
	.4byte	.LVL263-.Ltext0
	.4byte	.LVL266-.Ltext0
	.2byte	0x1
	.byte	0x5c
	.4byte	.LVL266-.Ltext0
	.4byte	.LVL267-.Ltext0
	.2byte	0x1
	.byte	0x5a
	.4byte	.LVL267-.Ltext0
	.4byte	.LVL293-.Ltext0
	.2byte	0x2
	.byte	0x71
	.sleb128 0
	.4byte	.LVL294-.Ltext0
	.4byte	.LVL298-.Ltext0
	.2byte	0x1
	.byte	0x59
	.4byte	.LVL300-.Ltext0
	.4byte	.LVL329-.Ltext0
	.2byte	0x2
	.byte	0x71
	.sleb128 0
	.4byte	.LVL330-.Ltext0
	.4byte	.LVL332-.Ltext0
	.2byte	0x1
	.byte	0x5d
	.4byte	.LVL337-.Ltext0
	.4byte	.LVL340-.Ltext0
	.2byte	0x1
	.byte	0x56
	.4byte	.LVL340-.Ltext0
	.4byte	.LVL365-.Ltext0
	.2byte	0x2
	.byte	0x71
	.sleb128 0
	.4byte	.LVL365-.Ltext0
	.4byte	.LVL369-.Ltext0
	.2byte	0x1
	.byte	0x56
	.4byte	.LVL374-.Ltext0
	.4byte	.LVL386-.Ltext0
	.2byte	0x1
	.byte	0x5d
	.4byte	.LVL386-.Ltext0
	.4byte	.LVL388-.Ltext0
	.2byte	0x6
	.byte	0x91
	.sleb128 -68
	.byte	0x6
	.byte	0x23
	.uleb128 0x4
	.4byte	.LVL388-.Ltext0
	.4byte	.LFE10-.Ltext0
	.2byte	0x2
	.byte	0x73
	.sleb128 4
	.4byte	0
	.4byte	0
.LVUS62:
	.uleb128 .LVU459
	.uleb128 .LVU467
	.uleb128 .LVU505
	.uleb128 .LVU510
	.uleb128 .LVU510
	.uleb128 .LVU511
	.uleb128 .LVU511
	.uleb128 .LVU538
	.uleb128 .LVU538
	.uleb128 .LVU544
	.uleb128 .LVU544
	.uleb128 .LVU593
	.uleb128 .LVU593
	.uleb128 .LVU599
	.uleb128 .LVU599
	.uleb128 .LVU604
	.uleb128 .LVU634
	.uleb128 .LVU638
	.uleb128 .LVU638
	.uleb128 .LVU699
	.uleb128 .LVU730
	.uleb128 .LVU731
	.uleb128 .LVU731
	.uleb128 .LVU793
	.uleb128 .LVU793
	.uleb128 .LVU797
	.uleb128 .LVU824
	.uleb128 .LVU887
	.uleb128 .LVU887
	.uleb128 .LVU911
	.uleb128 .LVU921
	.uleb128 .LVU926
	.uleb128 .LVU926
	.uleb128 .LVU982
	.uleb128 .LVU982
	.uleb128 .LVU1002
	.uleb128 .LVU1014
	.uleb128 .LVU1052
	.uleb128 .LVU1052
	.uleb128 .LVU1058
	.uleb128 .LVU1058
	.uleb128 0
.LLST62:
	.4byte	.LVL153-.Ltext0
	.4byte	.LVL158-.Ltext0
	.2byte	0x2
	.byte	0x91
	.sleb128 -32
	.4byte	.LVL181-.Ltext0
	.4byte	.LVL183-.Ltext0
	.2byte	0x1
	.byte	0x58
	.4byte	.LVL183-.Ltext0
	.4byte	.LVL184-.Ltext0
	.2byte	0x47
	.byte	0x91
	.sleb128 -68
	.byte	0x6
	.byte	0x23
	.uleb128 0x4
	.byte	0x6
	.byte	0x91
	.sleb128 -68
	.byte	0x6
	.byte	0x23
	.uleb128 0x14
	.byte	0x6
	.byte	0x27
	.byte	0x91
	.sleb128 -68
	.byte	0x6
	.byte	0x23
	.uleb128 0x24
	.byte	0x6
	.byte	0x27
	.byte	0x35
	.byte	0x14
	.byte	0x14
	.byte	0x24
	.byte	0x17
	.byte	0x1f
	.byte	0x23
	.uleb128 0x20
	.byte	0x25
	.byte	0x21
	.byte	0x91
	.sleb128 -68
	.byte	0x6
	.byte	0x23
	.uleb128 0x4
	.byte	0x6
	.byte	0x91
	.sleb128 -68
	.byte	0x6
	.byte	0x23
	.uleb128 0x14
	.byte	0x6
	.byte	0x27
	.byte	0x91
	.sleb128 -68
	.byte	0x6
	.byte	0x23
	.uleb128 0x24
	.byte	0x6
	.byte	0x27
	.byte	0x3e
	.byte	0x14
	.byte	0x14
	.byte	0x24
	.byte	0x17
	.byte	0x1f
	.byte	0x23
	.uleb128 0x20
	.byte	0x25
	.byte	0x21
	.byte	0x27
	.byte	0x7e
	.sleb128 0
	.byte	0x27
	.byte	0x9f
	.4byte	.LVL184-.Ltext0
	.4byte	.LVL191-.Ltext0
	.2byte	0x4c
	.byte	0x91
	.sleb128 -68
	.byte	0x6
	.byte	0x23
	.uleb128 0x4
	.byte	0x6
	.byte	0x91
	.sleb128 -68
	.byte	0x6
	.byte	0x23
	.uleb128 0x14
	.byte	0x6
	.byte	0x27
	.byte	0x91
	.sleb128 -68
	.byte	0x6
	.byte	0x23
	.uleb128 0x24
	.byte	0x6
	.byte	0x27
	.byte	0x35
	.byte	0x14
	.byte	0x14
	.byte	0x24
	.byte	0x17
	.byte	0x1f
	.byte	0x23
	.uleb128 0x20
	.byte	0x25
	.byte	0x21
	.byte	0x91
	.sleb128 -68
	.byte	0x6
	.byte	0x23
	.uleb128 0x4
	.byte	0x6
	.byte	0x91
	.sleb128 -68
	.byte	0x6
	.byte	0x23
	.uleb128 0x14
	.byte	0x6
	.byte	0x27
	.byte	0x91
	.sleb128 -68
	.byte	0x6
	.byte	0x23
	.uleb128 0x24
	.byte	0x6
	.byte	0x27
	.byte	0x3e
	.byte	0x14
	.byte	0x14
	.byte	0x24
	.byte	0x17
	.byte	0x1f
	.byte	0x23
	.uleb128 0x20
	.byte	0x25
	.byte	0x21
	.byte	0x27
	.byte	0x91
	.sleb128 -68
	.byte	0x6
	.byte	0x23
	.uleb128 0x8
	.byte	0x6
	.byte	0x27
	.byte	0x9f
	.4byte	.LVL191-.Ltext0
	.4byte	.LVL194-.Ltext0
	.2byte	0x1
	.byte	0x5e
	.4byte	.LVL194-.Ltext0
	.4byte	.LVL220-.Ltext0
	.2byte	0x3
	.byte	0x91
	.sleb128 -76
	.4byte	.LVL220-.Ltext0
	.4byte	.LVL221-.Ltext0
	.2byte	0x1
	.byte	0x5c
	.4byte	.LVL221-.Ltext0
	.4byte	.LVL222-.Ltext0
	.2byte	0x1
	.byte	0x58
	.4byte	.LVL229-.Ltext0
	.4byte	.LVL230-.Ltext0
	.2byte	0x1
	.byte	0x5c
	.4byte	.LVL230-.Ltext0
	.4byte	.LVL258-.Ltext0
	.2byte	0x3
	.byte	0x91
	.sleb128 -76
	.4byte	.LVL264-.Ltext0
	.4byte	.LVL265-.Ltext0
	.2byte	0x1
	.byte	0x57
	.4byte	.LVL265-.Ltext0
	.4byte	.LVL294-.Ltext0
	.2byte	0x3
	.byte	0x91
	.sleb128 -76
	.4byte	.LVL294-.Ltext0
	.4byte	.LVL295-.Ltext0
	.2byte	0x1
	.byte	0x58
	.4byte	.LVL301-.Ltext0
	.4byte	.LVL330-.Ltext0
	.2byte	0x3
	.byte	0x91
	.sleb128 -76
	.4byte	.LVL330-.Ltext0
	.4byte	.LVL334-.Ltext0
	.2byte	0x1
	.byte	0x5a
	.4byte	.LVL339-.Ltext0
	.4byte	.LVL341-.Ltext0
	.2byte	0x1
	.byte	0x5d
	.4byte	.LVL341-.Ltext0
	.4byte	.LVL366-.Ltext0
	.2byte	0x3
	.byte	0x91
	.sleb128 -76
	.4byte	.LVL366-.Ltext0
	.4byte	.LVL367-.Ltext0
	.2byte	0x1
	.byte	0x55
	.4byte	.LVL375-.Ltext0
	.4byte	.LVL385-.Ltext0
	.2byte	0x1
	.byte	0x5c
	.4byte	.LVL385-.Ltext0
	.4byte	.LVL388-.Ltext0
	.2byte	0x6
	.byte	0x91
	.sleb128 -68
	.byte	0x6
	.byte	0x23
	.uleb128 0x8
	.4byte	.LVL388-.Ltext0
	.4byte	.LFE10-.Ltext0
	.2byte	0x2
	.byte	0x73
	.sleb128 8
	.4byte	0
	.4byte	0
.LVUS63:
	.uleb128 .LVU459
	.uleb128 .LVU464
	.uleb128 .LVU512
	.uleb128 .LVU530
	.uleb128 .LVU530
	.uleb128 .LVU541
	.uleb128 .LVU541
	.uleb128 .LVU542
	.uleb128 .LVU542
	.uleb128 .LVU605
	.uleb128 .LVU605
	.uleb128 .LVU626
	.uleb128 .LVU637
	.uleb128 .LVU705
	.uleb128 .LVU705
	.uleb128 .LVU724
	.uleb128 .LVU738
	.uleb128 .LVU798
	.uleb128 .LVU798
	.uleb128 .LVU818
	.uleb128 .LVU827
	.uleb128 .LVU832
	.uleb128 .LVU832
	.uleb128 .LVU839
	.uleb128 .LVU839
	.uleb128 .LVU842
	.uleb128 .LVU842
	.uleb128 .LVU892
	.uleb128 .LVU892
	.uleb128 .LVU910
	.uleb128 .LVU910
	.uleb128 .LVU912
	.uleb128 .LVU924
	.uleb128 .LVU940
	.uleb128 .LVU940
	.uleb128 .LVU986
	.uleb128 .LVU1017
	.uleb128 0
.LLST63:
	.4byte	.LVL153-.Ltext0
	.4byte	.LVL156-.Ltext0
	.2byte	0x2
	.byte	0x91
	.sleb128 -28
	.4byte	.LVL185-.Ltext0
	.4byte	.LVL187-.Ltext0
	.2byte	0x1
	.byte	0x58
	.4byte	.LVL187-.Ltext0
	.4byte	.LVL191-.Ltext0
	.2byte	0x4c
	.byte	0x91
	.sleb128 -68
	.byte	0x6
	.byte	0x23
	.uleb128 0x8
	.byte	0x6
	.byte	0x91
	.sleb128 -68
	.byte	0x6
	.byte	0x23
	.uleb128 0x18
	.byte	0x6
	.byte	0x27
	.byte	0x91
	.sleb128 -68
	.byte	0x6
	.byte	0x23
	.uleb128 0x28
	.byte	0x6
	.byte	0x27
	.byte	0x35
	.byte	0x14
	.byte	0x14
	.byte	0x24
	.byte	0x17
	.byte	0x1f
	.byte	0x23
	.uleb128 0x20
	.byte	0x25
	.byte	0x21
	.byte	0x91
	.sleb128 -68
	.byte	0x6
	.byte	0x23
	.uleb128 0x8
	.byte	0x6
	.byte	0x91
	.sleb128 -68
	.byte	0x6
	.byte	0x23
	.uleb128 0x18
	.byte	0x6
	.byte	0x27
	.byte	0x91
	.sleb128 -68
	.byte	0x6
	.byte	0x23
	.uleb128 0x28
	.byte	0x6
	.byte	0x27
	.byte	0x3e
	.byte	0x14
	.byte	0x14
	.byte	0x24
	.byte	0x17
	.byte	0x1f
	.byte	0x23
	.uleb128 0x20
	.byte	0x25
	.byte	0x21
	.byte	0x27
	.byte	0x91
	.sleb128 -68
	.byte	0x6
	.byte	0x23
	.uleb128 0xc
	.byte	0x6
	.byte	0x27
	.byte	0x9f
	.4byte	.LVL191-.Ltext0
	.4byte	.LVL192-.Ltext0
	.2byte	0x1
	.byte	0x5a
	.4byte	.LVL192-.Ltext0
	.4byte	.LVL223-.Ltext0
	.2byte	0x3
	.byte	0x91
	.sleb128 -72
	.4byte	.LVL223-.Ltext0
	.4byte	.LVL226-.Ltext0
	.2byte	0x1
	.byte	0x57
	.4byte	.LVL229-.Ltext0
	.4byte	.LVL259-.Ltext0
	.2byte	0x3
	.byte	0x91
	.sleb128 -72
	.4byte	.LVL259-.Ltext0
	.4byte	.LVL262-.Ltext0
	.2byte	0x1
	.byte	0x57
	.4byte	.LVL270-.Ltext0
	.4byte	.LVL296-.Ltext0
	.2byte	0x3
	.byte	0x91
	.sleb128 -72
	.4byte	.LVL296-.Ltext0
	.4byte	.LVL299-.Ltext0
	.2byte	0x1
	.byte	0x57
	.4byte	.LVL302-.Ltext0
	.4byte	.LVL305-.Ltext0
	.2byte	0x1
	.byte	0x5e
	.4byte	.LVL305-.Ltext0
	.4byte	.LVL309-.Ltext0
	.2byte	0x1
	.byte	0x5c
	.4byte	.LVL309-.Ltext0
	.4byte	.LVL312-.Ltext0
	.2byte	0x1
	.byte	0x55
	.4byte	.LVL312-.Ltext0
	.4byte	.LVL331-.Ltext0
	.2byte	0x3
	.byte	0x91
	.sleb128 -72
	.4byte	.LVL331-.Ltext0
	.4byte	.LVL333-.Ltext0
	.2byte	0x1
	.byte	0x5c
	.4byte	.LVL333-.Ltext0
	.4byte	.LVL335-.Ltext0
	.2byte	0x6
	.byte	0x76
	.sleb128 0
	.byte	0x7b
	.sleb128 0
	.byte	0x27
	.byte	0x9f
	.4byte	.LVL339-.Ltext0
	.4byte	.LVL348-.Ltext0
	.2byte	0x1
	.byte	0x55
	.4byte	.LVL348-.Ltext0
	.4byte	.LVL366-.Ltext0
	.2byte	0x3
	.byte	0x91
	.sleb128 -72
	.4byte	.LVL375-.Ltext0
	.4byte	.LFE10-.Ltext0
	.2byte	0x1
	.byte	0x5b
	.4byte	0
	.4byte	0
.LVUS64:
	.uleb128 .LVU460
	.uleb128 .LVU524
	.uleb128 .LVU524
	.uleb128 .LVU531
	.uleb128 .LVU531
	.uleb128 .LVU561
	.uleb128 .LVU561
	.uleb128 .LVU617
	.uleb128 .LVU617
	.uleb128 .LVU628
	.uleb128 .LVU628
	.uleb128 .LVU656
	.uleb128 .LVU656
	.uleb128 .LVU717
	.uleb128 .LVU717
	.uleb128 .LVU725
	.uleb128 .LVU725
	.uleb128 .LVU750
	.uleb128 .LVU750
	.uleb128 .LVU810
	.uleb128 .LVU810
	.uleb128 .LVU819
	.uleb128 .LVU819
	.uleb128 .LVU904
	.uleb128 .LVU904
	.uleb128 .LVU915
	.uleb128 .LVU915
	.uleb128 .LVU998
	.uleb128 .LVU998
	.uleb128 .LVU1009
	.uleb128 .LVU1009
	.uleb128 .LVU1021
	.uleb128 .LVU1021
	.uleb128 .LVU1040
	.uleb128 .LVU1040
	.uleb128 0
.LLST64:
	.4byte	.LVL154-.Ltext0
	.4byte	.LVL185-.Ltext0
	.2byte	0x1
	.byte	0x5b
	.4byte	.LVL185-.Ltext0
	.4byte	.LVL188-.Ltext0
	.2byte	0x2
	.byte	0x91
	.sleb128 -48
	.4byte	.LVL188-.Ltext0
	.4byte	.LVL204-.Ltext0
	.2byte	0x1
	.byte	0x57
	.4byte	.LVL204-.Ltext0
	.4byte	.LVL223-.Ltext0
	.2byte	0x1
	.byte	0x55
	.4byte	.LVL223-.Ltext0
	.4byte	.LVL227-.Ltext0
	.2byte	0x2
	.byte	0x91
	.sleb128 -52
	.4byte	.LVL227-.Ltext0
	.4byte	.LVL239-.Ltext0
	.2byte	0x1
	.byte	0x58
	.4byte	.LVL239-.Ltext0
	.4byte	.LVL259-.Ltext0
	.2byte	0x1
	.byte	0x5b
	.4byte	.LVL259-.Ltext0
	.4byte	.LVL263-.Ltext0
	.2byte	0x2
	.byte	0x91
	.sleb128 -64
	.4byte	.LVL263-.Ltext0
	.4byte	.LVL276-.Ltext0
	.2byte	0x1
	.byte	0x58
	.4byte	.LVL276-.Ltext0
	.4byte	.LVL296-.Ltext0
	.2byte	0x1
	.byte	0x55
	.4byte	.LVL296-.Ltext0
	.4byte	.LVL300-.Ltext0
	.2byte	0x2
	.byte	0x91
	.sleb128 -52
	.4byte	.LVL300-.Ltext0
	.4byte	.LVL331-.Ltext0
	.2byte	0x1
	.byte	0x59
	.4byte	.LVL331-.Ltext0
	.4byte	.LVL337-.Ltext0
	.2byte	0x2
	.byte	0x91
	.sleb128 -52
	.4byte	.LVL337-.Ltext0
	.4byte	.LVL366-.Ltext0
	.2byte	0x1
	.byte	0x5a
	.4byte	.LVL366-.Ltext0
	.4byte	.LVL374-.Ltext0
	.2byte	0x2
	.byte	0x91
	.sleb128 -44
	.4byte	.LVL374-.Ltext0
	.4byte	.LVL376-.Ltext0
	.2byte	0x1
	.byte	0x58
	.4byte	.LVL376-.Ltext0
	.4byte	.LVL380-.Ltext0
	.2byte	0xd
	.byte	0x78
	.sleb128 0
	.byte	0x31
	.byte	0x14
	.byte	0x14
	.byte	0x24
	.byte	0x17
	.byte	0x1f
	.byte	0x23
	.uleb128 0x20
	.byte	0x25
	.byte	0x21
	.byte	0x9f
	.4byte	.LVL380-.Ltext0
	.4byte	.LFE10-.Ltext0
	.2byte	0x1
	.byte	0x58
	.4byte	0
	.4byte	0
.LVUS65:
	.uleb128 .LVU461
	.uleb128 .LVU496
	.uleb128 .LVU496
	.uleb128 .LVU501
	.uleb128 .LVU501
	.uleb128 .LVU523
	.uleb128 .LVU523
	.uleb128 .LVU560
	.uleb128 .LVU560
	.uleb128 .LVU562
	.uleb128 .LVU562
	.uleb128 .LVU589
	.uleb128 .LVU589
	.uleb128 .LVU595
	.uleb128 .LVU595
	.uleb128 .LVU616
	.uleb128 .LVU616
	.uleb128 .LVU687
	.uleb128 .LVU695
	.uleb128 .LVU716
	.uleb128 .LVU716
	.uleb128 .LVU785
	.uleb128 .LVU789
	.uleb128 .LVU809
	.uleb128 .LVU809
	.uleb128 .LVU822
	.uleb128 .LVU822
	.uleb128 .LVU847
	.uleb128 .LVU849
	.uleb128 .LVU876
	.uleb128 .LVU883
	.uleb128 .LVU903
	.uleb128 .LVU903
	.uleb128 .LVU937
	.uleb128 .LVU947
	.uleb128 .LVU972
	.uleb128 .LVU978
	.uleb128 .LVU997
	.uleb128 .LVU997
	.uleb128 .LVU1012
	.uleb128 .LVU1012
	.uleb128 .LVU1022
	.uleb128 .LVU1022
	.uleb128 .LVU1044
	.uleb128 .LVU1044
	.uleb128 0
.LLST65:
	.4byte	.LVL155-.Ltext0
	.4byte	.LVL176-.Ltext0
	.2byte	0x1
	.byte	0x5a
	.4byte	.LVL176-.Ltext0
	.4byte	.LVL180-.Ltext0
	.2byte	0x6
	.byte	0x91
	.sleb128 -68
	.byte	0x6
	.byte	0x23
	.uleb128 0x14
	.4byte	.LVL180-.Ltext0
	.4byte	.LVL185-.Ltext0
	.2byte	0x1
	.byte	0x5a
	.4byte	.LVL185-.Ltext0
	.4byte	.LVL203-.Ltext0
	.2byte	0x1
	.byte	0x5b
	.4byte	.LVL203-.Ltext0
	.4byte	.LVL204-.Ltext0
	.2byte	0xa5
	.byte	0x91
	.sleb128 -68
	.byte	0x6
	.byte	0x6
	.byte	0x91
	.sleb128 -68
	.byte	0x6
	.byte	0x23
	.uleb128 0x10
	.byte	0x6
	.byte	0x27
	.byte	0x91
	.sleb128 -68
	.byte	0x6
	.byte	0x23
	.uleb128 0x20
	.byte	0x6
	.byte	0x27
	.byte	0x35
	.byte	0x14
	.byte	0x14
	.byte	0x24
	.byte	0x17
	.byte	0x1f
	.byte	0x23
	.uleb128 0x20
	.byte	0x25
	.byte	0x21
	.byte	0x91
	.sleb128 -68
	.byte	0x6
	.byte	0x6
	.byte	0x91
	.sleb128 -68
	.byte	0x6
	.byte	0x23
	.uleb128 0x10
	.byte	0x6
	.byte	0x27
	.byte	0x91
	.sleb128 -68
	.byte	0x6
	.byte	0x23
	.uleb128 0x20
	.byte	0x6
	.byte	0x27
	.byte	0x3e
	.byte	0x14
	.byte	0x14
	.byte	0x24
	.byte	0x17
	.byte	0x1f
	.byte	0x23
	.uleb128 0x20
	.byte	0x25
	.byte	0x21
	.byte	0x27
	.byte	0x91
	.sleb128 -68
	.byte	0x6
	.byte	0x23
	.uleb128 0x24
	.byte	0x6
	.byte	0x27
	.byte	0x3b
	.byte	0x14
	.byte	0x14
	.byte	0x24
	.byte	0x17
	.byte	0x1f
	.byte	0x23
	.uleb128 0x20
	.byte	0x25
	.byte	0x21
	.byte	0x72
	.sleb128 0
	.byte	0x27
	.byte	0x71
	.sleb128 0
	.byte	0x6
	.byte	0x1a
	.byte	0x91
	.sleb128 -68
	.byte	0x6
	.byte	0x23
	.uleb128 0xc
	.byte	0x6
	.byte	0x91
	.sleb128 -68
	.byte	0x6
	.byte	0x23
	.uleb128 0x1c
	.byte	0x6
	.byte	0x27
	.byte	0x91
	.sleb128 -68
	.byte	0x6
	.byte	0x23
	.uleb128 0x2c
	.byte	0x6
	.byte	0x27
	.byte	0x35
	.byte	0x14
	.byte	0x14
	.byte	0x24
	.byte	0x17
	.byte	0x1f
	.byte	0x23
	.uleb128 0x20
	.byte	0x25
	.byte	0x21
	.byte	0x27
	.byte	0x91
	.sleb128 -68
	.byte	0x6
	.byte	0x23
	.uleb128 0xc
	.byte	0x6
	.byte	0x91
	.sleb128 -68
	.byte	0x6
	.byte	0x23
	.uleb128 0x1c
	.byte	0x6
	.byte	0x27
	.byte	0x91
	.sleb128 -68
	.byte	0x6
	.byte	0x23
	.uleb128 0x2c
	.byte	0x6
	.byte	0x27
	.byte	0x3e
	.byte	0x14
	.byte	0x14
	.byte	0x24
	.byte	0x17
	.byte	0x1f
	.byte	0x23
	.uleb128 0x20
	.byte	0x25
	.byte	0x21
	.byte	0x27
	.byte	0x91
	.sleb128 -68
	.byte	0x6
	.byte	0x23
	.uleb128 0x10
	.byte	0x6
	.byte	0x27
	.byte	0x9f
	.4byte	.LVL204-.Ltext0
	.4byte	.LVL216-.Ltext0
	.2byte	0x1
	.byte	0x5b
	.4byte	.LVL216-.Ltext0
	.4byte	.LVL221-.Ltext0
	.2byte	0xaf
	.byte	0x91
	.sleb128 -68
	.byte	0x6
	.byte	0x6
	.byte	0x91
	.sleb128 -68
	.byte	0x6
	.byte	0x23
	.uleb128 0x10
	.byte	0x6
	.byte	0x27
	.byte	0x91
	.sleb128 -68
	.byte	0x6
	.byte	0x23
	.uleb128 0x20
	.byte	0x6
	.byte	0x27
	.byte	0x35
	.byte	0x14
	.byte	0x14
	.byte	0x24
	.byte	0x17
	.byte	0x1f
	.byte	0x23
	.uleb128 0x20
	.byte	0x25
	.byte	0x21
	.byte	0x91
	.sleb128 -68
	.byte	0x6
	.byte	0x6
	.byte	0x91
	.sleb128 -68
	.byte	0x6
	.byte	0x23
	.uleb128 0x10
	.byte	0x6
	.byte	0x27
	.byte	0x91
	.sleb128 -68
	.byte	0x6
	.byte	0x23
	.uleb128 0x20
	.byte	0x6
	.byte	0x27
	.byte	0x3e
	.byte	0x14
	.byte	0x14
	.byte	0x24
	.byte	0x17
	.byte	0x1f
	.byte	0x23
	.uleb128 0x20
	.byte	0x25
	.byte	0x21
	.byte	0x27
	.byte	0x91
	.sleb128 -68
	.byte	0x6
	.byte	0x23
	.uleb128 0x24
	.byte	0x6
	.byte	0x27
	.byte	0x3b
	.byte	0x14
	.byte	0x14
	.byte	0x24
	.byte	0x17
	.byte	0x1f
	.byte	0x23
	.uleb128 0x20
	.byte	0x25
	.byte	0x21
	.byte	0x72
	.sleb128 0
	.byte	0x27
	.byte	0x71
	.sleb128 0
	.byte	0x6
	.byte	0x1a
	.byte	0x91
	.sleb128 -68
	.byte	0x6
	.byte	0x23
	.uleb128 0xc
	.byte	0x6
	.byte	0x91
	.sleb128 -68
	.byte	0x6
	.byte	0x23
	.uleb128 0x1c
	.byte	0x6
	.byte	0x27
	.byte	0x91
	.sleb128 -68
	.byte	0x6
	.byte	0x23
	.uleb128 0x2c
	.byte	0x6
	.byte	0x27
	.byte	0x35
	.byte	0x14
	.byte	0x14
	.byte	0x24
	.byte	0x17
	.byte	0x1f
	.byte	0x23
	.uleb128 0x20
	.byte	0x25
	.byte	0x21
	.byte	0x27
	.byte	0x91
	.sleb128 -68
	.byte	0x6
	.byte	0x23
	.uleb128 0xc
	.byte	0x6
	.byte	0x91
	.sleb128 -68
	.byte	0x6
	.byte	0x23
	.uleb128 0x1c
	.byte	0x6
	.byte	0x27
	.byte	0x91
	.sleb128 -68
	.byte	0x6
	.byte	0x23
	.uleb128 0x2c
	.byte	0x6
	.byte	0x27
	.byte	0x3e
	.byte	0x14
	.byte	0x14
	.byte	0x24
	.byte	0x17
	.byte	0x1f
	.byte	0x23
	.uleb128 0x20
	.byte	0x25
	.byte	0x21
	.byte	0x27
	.byte	0x91
	.sleb128 -68
	.byte	0x6
	.byte	0x23
	.uleb128 0x10
	.byte	0x6
	.byte	0x27
	.byte	0x31
	.byte	0x14
	.byte	0x14
	.byte	0x24
	.byte	0x17
	.byte	0x1f
	.byte	0x23
	.uleb128 0x20
	.byte	0x25
	.byte	0x21
	.byte	0x9f
	.4byte	.LVL221-.Ltext0
	.4byte	.LVL223-.Ltext0
	.2byte	0x1
	.byte	0x5b
	.4byte	.LVL223-.Ltext0
	.4byte	.LVL252-.Ltext0
	.2byte	0x1
	.byte	0x55
	.4byte	.LVL258-.Ltext0
	.4byte	.LVL259-.Ltext0
	.2byte	0x1
	.byte	0x55
	.4byte	.LVL259-.Ltext0
	.4byte	.LVL291-.Ltext0
	.2byte	0x1
	.byte	0x5b
	.4byte	.LVL294-.Ltext0
	.4byte	.LVL296-.Ltext0
	.2byte	0x1
	.byte	0x5b
	.4byte	.LVL296-.Ltext0
	.4byte	.LVL301-.Ltext0
	.2byte	0x1
	.byte	0x55
	.4byte	.LVL301-.Ltext0
	.4byte	.LVL314-.Ltext0
	.2byte	0x1
	.byte	0x58
	.4byte	.LVL315-.Ltext0
	.4byte	.LVL325-.Ltext0
	.2byte	0x1
	.byte	0x58
	.4byte	.LVL330-.Ltext0
	.4byte	.LVL331-.Ltext0
	.2byte	0x1
	.byte	0x58
	.4byte	.LVL331-.Ltext0
	.4byte	.LVL347-.Ltext0
	.2byte	0x1
	.byte	0x59
	.4byte	.LVL350-.Ltext0
	.4byte	.LVL361-.Ltext0
	.2byte	0x1
	.byte	0x5b
	.4byte	.LVL365-.Ltext0
	.4byte	.LVL366-.Ltext0
	.2byte	0x1
	.byte	0x59
	.4byte	.LVL366-.Ltext0
	.4byte	.LVL375-.Ltext0
	.2byte	0x1
	.byte	0x5a
	.4byte	.LVL375-.Ltext0
	.4byte	.LVL376-.Ltext0
	.2byte	0x1
	.byte	0x57
	.4byte	.LVL376-.Ltext0
	.4byte	.LVL381-.Ltext0
	.2byte	0xd
	.byte	0x77
	.sleb128 0
	.byte	0x31
	.byte	0x14
	.byte	0x14
	.byte	0x24
	.byte	0x17
	.byte	0x1f
	.byte	0x23
	.uleb128 0x20
	.byte	0x25
	.byte	0x21
	.byte	0x9f
	.4byte	.LVL381-.Ltext0
	.4byte	.LFE10-.Ltext0
	.2byte	0x1
	.byte	0x57
	.4byte	0
	.4byte	0
.LVUS66:
	.uleb128 .LVU461
	.uleb128 .LVU478
	.uleb128 .LVU506
	.uleb128 .LVU522
	.uleb128 .LVU522
	.uleb128 .LVU534
	.uleb128 .LVU534
	.uleb128 .LVU539
	.uleb128 .LVU539
	.uleb128 .LVU545
	.uleb128 .LVU545
	.uleb128 .LVU561
	.uleb128 .LVU561
	.uleb128 .LVU563
	.uleb128 .LVU563
	.uleb128 .LVU568
	.uleb128 .LVU568
	.uleb128 .LVU600
	.uleb128 .LVU600
	.uleb128 .LVU615
	.uleb128 .LVU615
	.uleb128 .LVU631
	.uleb128 .LVU635
	.uleb128 .LVU647
	.uleb128 .LVU662
	.uleb128 .LVU690
	.uleb128 .LVU700
	.uleb128 .LVU715
	.uleb128 .LVU715
	.uleb128 .LVU746
	.uleb128 .LVU756
	.uleb128 .LVU794
	.uleb128 .LVU794
	.uleb128 .LVU808
	.uleb128 .LVU808
	.uleb128 .LVU838
	.uleb128 .LVU850
	.uleb128 .LVU888
	.uleb128 .LVU888
	.uleb128 .LVU902
	.uleb128 .LVU902
	.uleb128 .LVU913
	.uleb128 .LVU922
	.uleb128 .LVU930
	.uleb128 .LVU948
	.uleb128 .LVU975
	.uleb128 .LVU983
	.uleb128 .LVU996
	.uleb128 .LVU996
	.uleb128 .LVU1008
	.uleb128 .LVU1015
	.uleb128 .LVU1023
	.uleb128 .LVU1023
	.uleb128 .LVU1045
	.uleb128 .LVU1045
	.uleb128 0
.LLST66:
	.4byte	.LVL155-.Ltext0
	.4byte	.LVL165-.Ltext0
	.2byte	0x2
	.byte	0x91
	.sleb128 -24
	.4byte	.LVL181-.Ltext0
	.4byte	.LVL185-.Ltext0
	.2byte	0x1
	.byte	0x5f
	.4byte	.LVL185-.Ltext0
	.4byte	.LVL189-.Ltext0
	.2byte	0x1
	.byte	0x5a
	.4byte	.LVL189-.Ltext0
	.4byte	.LVL191-.Ltext0
	.2byte	0x48
	.byte	0x91
	.sleb128 -68
	.byte	0x6
	.byte	0x6
	.byte	0x91
	.sleb128 -68
	.byte	0x6
	.byte	0x23
	.uleb128 0x10
	.byte	0x6
	.byte	0x27
	.byte	0x91
	.sleb128 -68
	.byte	0x6
	.byte	0x23
	.uleb128 0x20
	.byte	0x6
	.byte	0x27
	.byte	0x35
	.byte	0x14
	.byte	0x14
	.byte	0x24
	.byte	0x17
	.byte	0x1f
	.byte	0x23
	.uleb128 0x20
	.byte	0x25
	.byte	0x21
	.byte	0x91
	.sleb128 -68
	.byte	0x6
	.byte	0x6
	.byte	0x91
	.sleb128 -68
	.byte	0x6
	.byte	0x23
	.uleb128 0x10
	.byte	0x6
	.byte	0x27
	.byte	0x91
	.sleb128 -68
	.byte	0x6
	.byte	0x23
	.uleb128 0x20
	.byte	0x6
	.byte	0x27
	.byte	0x3e
	.byte	0x14
	.byte	0x14
	.byte	0x24
	.byte	0x17
	.byte	0x1f
	.byte	0x23
	.uleb128 0x20
	.byte	0x25
	.byte	0x21
	.byte	0x27
	.byte	0x91
	.sleb128 -68
	.byte	0x6
	.byte	0x23
	.uleb128 0x14
	.byte	0x6
	.byte	0x27
	.byte	0x9f
	.4byte	.LVL191-.Ltext0
	.4byte	.LVL195-.Ltext0
	.2byte	0x1
	.byte	0x5d
	.4byte	.LVL195-.Ltext0
	.4byte	.LVL204-.Ltext0
	.2byte	0x53
	.byte	0x72
	.sleb128 0
	.byte	0x75
	.sleb128 0
	.byte	0x27
	.byte	0x91
	.sleb128 -76
	.byte	0x6
	.byte	0x1a
	.byte	0x91
	.sleb128 -68
	.byte	0x6
	.byte	0x6
	.byte	0x91
	.sleb128 -68
	.byte	0x6
	.byte	0x23
	.uleb128 0x10
	.byte	0x6
	.byte	0x27
	.byte	0x91
	.sleb128 -68
	.byte	0x6
	.byte	0x23
	.uleb128 0x20
	.byte	0x6
	.byte	0x27
	.byte	0x35
	.byte	0x14
	.byte	0x14
	.byte	0x24
	.byte	0x17
	.byte	0x1f
	.byte	0x23
	.uleb128 0x20
	.byte	0x25
	.byte	0x21
	.byte	0x27
	.byte	0x91
	.sleb128 -68
	.byte	0x6
	.byte	0x6
	.byte	0x91
	.sleb128 -68
	.byte	0x6
	.byte	0x23
	.uleb128 0x10
	.byte	0x6
	.byte	0x27
	.byte	0x91
	.sleb128 -68
	.byte	0x6
	.byte	0x23
	.uleb128 0x20
	.byte	0x6
	.byte	0x27
	.byte	0x3e
	.byte	0x14
	.byte	0x14
	.byte	0x24
	.byte	0x17
	.byte	0x1f
	.byte	0x23
	.uleb128 0x20
	.byte	0x25
	.byte	0x21
	.byte	0x27
	.byte	0x91
	.sleb128 -68
	.byte	0x6
	.byte	0x23
	.uleb128 0x14
	.byte	0x6
	.byte	0x27
	.byte	0x9f
	.4byte	.LVL204-.Ltext0
	.4byte	.LVL204-.Ltext0
	.2byte	0xa6
	.byte	0x91
	.sleb128 -68
	.byte	0x6
	.byte	0x23
	.uleb128 0x4
	.byte	0x6
	.byte	0x91
	.sleb128 -68
	.byte	0x6
	.byte	0x23
	.uleb128 0x14
	.byte	0x6
	.byte	0x27
	.byte	0x91
	.sleb128 -68
	.byte	0x6
	.byte	0x23
	.uleb128 0x24
	.byte	0x6
	.byte	0x27
	.byte	0x35
	.byte	0x14
	.byte	0x14
	.byte	0x24
	.byte	0x17
	.byte	0x1f
	.byte	0x23
	.uleb128 0x20
	.byte	0x25
	.byte	0x21
	.byte	0x91
	.sleb128 -68
	.byte	0x6
	.byte	0x23
	.uleb128 0x4
	.byte	0x6
	.byte	0x91
	.sleb128 -68
	.byte	0x6
	.byte	0x23
	.uleb128 0x14
	.byte	0x6
	.byte	0x27
	.byte	0x91
	.sleb128 -68
	.byte	0x6
	.byte	0x23
	.uleb128 0x24
	.byte	0x6
	.byte	0x27
	.byte	0x3e
	.byte	0x14
	.byte	0x14
	.byte	0x24
	.byte	0x17
	.byte	0x1f
	.byte	0x23
	.uleb128 0x20
	.byte	0x25
	.byte	0x21
	.byte	0x27
	.byte	0x91
	.sleb128 -68
	.byte	0x6
	.byte	0x23
	.uleb128 0x28
	.byte	0x6
	.byte	0x27
	.byte	0x3b
	.byte	0x14
	.byte	0x14
	.byte	0x24
	.byte	0x17
	.byte	0x1f
	.byte	0x23
	.uleb128 0x20
	.byte	0x25
	.byte	0x21
	.byte	0x72
	.sleb128 0
	.byte	0x27
	.byte	0x91
	.sleb128 -76
	.byte	0x6
	.byte	0x1a
	.byte	0x91
	.sleb128 -68
	.byte	0x6
	.byte	0x6
	.byte	0x91
	.sleb128 -68
	.byte	0x6
	.byte	0x23
	.uleb128 0x10
	.byte	0x6
	.byte	0x27
	.byte	0x91
	.sleb128 -68
	.byte	0x6
	.byte	0x23
	.uleb128 0x20
	.byte	0x6
	.byte	0x27
	.byte	0x35
	.byte	0x14
	.byte	0x14
	.byte	0x24
	.byte	0x17
	.byte	0x1f
	.byte	0x23
	.uleb128 0x20
	.byte	0x25
	.byte	0x21
	.byte	0x27
	.byte	0x91
	.sleb128 -68
	.byte	0x6
	.byte	0x6
	.byte	0x91
	.sleb128 -68
	.byte	0x6
	.byte	0x23
	.uleb128 0x10
	.byte	0x6
	.byte	0x27
	.byte	0x91
	.sleb128 -68
	.byte	0x6
	.byte	0x23
	.uleb128 0x20
	.byte	0x6
	.byte	0x27
	.byte	0x3e
	.byte	0x14
	.byte	0x14
	.byte	0x24
	.byte	0x17
	.byte	0x1f
	.byte	0x23
	.uleb128 0x20
	.byte	0x25
	.byte	0x21
	.byte	0x27
	.byte	0x91
	.sleb128 -68
	.byte	0x6
	.byte	0x23
	.uleb128 0x14
	.byte	0x6
	.byte	0x27
	.byte	0x9f
	.4byte	.LVL204-.Ltext0
	.4byte	.LVL206-.Ltext0
	.2byte	0x1
	.byte	0x59
	.4byte	.LVL206-.Ltext0
	.4byte	.LVL221-.Ltext0
	.2byte	0x2
	.byte	0x91
	.sleb128 -64
	.4byte	.LVL221-.Ltext0
	.4byte	.LVL223-.Ltext0
	.2byte	0x1
	.byte	0x5d
	.4byte	.LVL223-.Ltext0
	.4byte	.LVL228-.Ltext0
	.2byte	0x1
	.byte	0x5b
	.4byte	.LVL229-.Ltext0
	.4byte	.LVL235-.Ltext0
	.2byte	0x1
	.byte	0x5b
	.4byte	.LVL241-.Ltext0
	.4byte	.LVL255-.Ltext0
	.2byte	0x1
	.byte	0x5e
	.4byte	.LVL258-.Ltext0
	.4byte	.LVL259-.Ltext0
	.2byte	0x1
	.byte	0x5e
	.4byte	.LVL259-.Ltext0
	.4byte	.LVL273-.Ltext0
	.2byte	0x1
	.byte	0x55
	.4byte	.LVL278-.Ltext0
	.4byte	.LVL294-.Ltext0
	.2byte	0x2
	.byte	0x91
	.sleb128 -64
	.4byte	.LVL294-.Ltext0
	.4byte	.LVL296-.Ltext0
	.2byte	0x1
	.byte	0x5f
	.4byte	.LVL296-.Ltext0
	.4byte	.LVL308-.Ltext0
	.2byte	0x1
	.byte	0x5b
	.4byte	.LVL315-.Ltext0
	.4byte	.LVL330-.Ltext0
	.2byte	0x2
	.byte	0x91
	.sleb128 -64
	.4byte	.LVL330-.Ltext0
	.4byte	.LVL331-.Ltext0
	.2byte	0x1
	.byte	0x54
	.4byte	.LVL331-.Ltext0
	.4byte	.LVL336-.Ltext0
	.2byte	0x1
	.byte	0x58
	.4byte	.LVL339-.Ltext0
	.4byte	.LVL343-.Ltext0
	.2byte	0x1
	.byte	0x58
	.4byte	.LVL350-.Ltext0
	.4byte	.LVL363-.Ltext0
	.2byte	0x2
	.byte	0x91
	.sleb128 -64
	.4byte	.LVL366-.Ltext0
	.4byte	.LVL366-.Ltext0
	.2byte	0x2
	.byte	0x91
	.sleb128 -48
	.4byte	.LVL366-.Ltext0
	.4byte	.LVL373-.Ltext0
	.2byte	0x1
	.byte	0x59
	.4byte	.LVL375-.Ltext0
	.4byte	.LVL376-.Ltext0
	.2byte	0x1
	.byte	0x56
	.4byte	.LVL376-.Ltext0
	.4byte	.LVL382-.Ltext0
	.2byte	0xd
	.byte	0x76
	.sleb128 0
	.byte	0x31
	.byte	0x14
	.byte	0x14
	.byte	0x24
	.byte	0x17
	.byte	0x1f
	.byte	0x23
	.uleb128 0x20
	.byte	0x25
	.byte	0x21
	.byte	0x9f
	.4byte	.LVL382-.Ltext0
	.4byte	.LFE10-.Ltext0
	.2byte	0x1
	.byte	0x56
	.4byte	0
	.4byte	0
.LVUS67:
	.uleb128 .LVU461
	.uleb128 .LVU486
	.uleb128 .LVU486
	.uleb128 .LVU513
	.uleb128 .LVU513
	.uleb128 .LVU521
	.uleb128 .LVU521
	.uleb128 .LVU552
	.uleb128 .LVU552
	.uleb128 .LVU558
	.uleb128 .LVU558
	.uleb128 .LVU564
	.uleb128 .LVU564
	.uleb128 .LVU582
	.uleb128 .LVU582
	.uleb128 .LVU606
	.uleb128 .LVU606
	.uleb128 .LVU614
	.uleb128 .LVU614
	.uleb128 .LVU649
	.uleb128 .LVU663
	.uleb128 .LVU680
	.uleb128 .LVU706
	.uleb128 .LVU714
	.uleb128 .LVU714
	.uleb128 .LVU734
	.uleb128 .LVU757
	.uleb128 .LVU776
	.uleb128 .LVU799
	.uleb128 .LVU807
	.uleb128 .LVU807
	.uleb128 .LVU844
	.uleb128 .LVU851
	.uleb128 .LVU868
	.uleb128 .LVU893
	.uleb128 .LVU901
	.uleb128 .LVU901
	.uleb128 .LVU931
	.uleb128 .LVU949
	.uleb128 .LVU963
	.uleb128 .LVU987
	.uleb128 .LVU995
	.uleb128 .LVU995
	.uleb128 .LVU1018
	.uleb128 .LVU1018
	.uleb128 .LVU1024
	.uleb128 .LVU1024
	.uleb128 .LVU1046
	.uleb128 .LVU1046
	.uleb128 0
.LLST67:
	.4byte	.LVL155-.Ltext0
	.4byte	.LVL171-.Ltext0
	.2byte	0x1
	.byte	0x5d
	.4byte	.LVL171-.Ltext0
	.4byte	.LVL185-.Ltext0
	.2byte	0x6
	.byte	0x91
	.sleb128 -68
	.byte	0x6
	.byte	0x23
	.uleb128 0x1c
	.4byte	.LVL185-.Ltext0
	.4byte	.LVL185-.Ltext0
	.2byte	0x2
	.byte	0x91
	.sleb128 -48
	.4byte	.LVL185-.Ltext0
	.4byte	.LVL199-.Ltext0
	.2byte	0x1
	.byte	0x5f
	.4byte	.LVL199-.Ltext0
	.4byte	.LVL202-.Ltext0
	.2byte	0x57
	.byte	0x72
	.sleb128 0
	.byte	0x74
	.sleb128 0
	.byte	0x27
	.byte	0x91
	.sleb128 -72
	.byte	0x6
	.byte	0x1a
	.byte	0x91
	.sleb128 -68
	.byte	0x6
	.byte	0x23
	.uleb128 0x4
	.byte	0x6
	.byte	0x91
	.sleb128 -68
	.byte	0x6
	.byte	0x23
	.uleb128 0x14
	.byte	0x6
	.byte	0x27
	.byte	0x91
	.sleb128 -68
	.byte	0x6
	.byte	0x23
	.uleb128 0x24
	.byte	0x6
	.byte	0x27
	.byte	0x35
	.byte	0x14
	.byte	0x14
	.byte	0x24
	.byte	0x17
	.byte	0x1f
	.byte	0x23
	.uleb128 0x20
	.byte	0x25
	.byte	0x21
	.byte	0x27
	.byte	0x91
	.sleb128 -68
	.byte	0x6
	.byte	0x23
	.uleb128 0x4
	.byte	0x6
	.byte	0x91
	.sleb128 -68
	.byte	0x6
	.byte	0x23
	.uleb128 0x14
	.byte	0x6
	.byte	0x27
	.byte	0x91
	.sleb128 -68
	.byte	0x6
	.byte	0x23
	.uleb128 0x24
	.byte	0x6
	.byte	0x27
	.byte	0x3e
	.byte	0x14
	.byte	0x14
	.byte	0x24
	.byte	0x17
	.byte	0x1f
	.byte	0x23
	.uleb128 0x20
	.byte	0x25
	.byte	0x21
	.byte	0x27
	.byte	0x91
	.sleb128 -68
	.byte	0x6
	.byte	0x23
	.uleb128 0x18
	.byte	0x6
	.byte	0x27
	.byte	0x9f
	.4byte	.LVL202-.Ltext0
	.4byte	.LVL204-.Ltext0
	.2byte	0xaa
	.byte	0x91
	.sleb128 -68
	.byte	0x6
	.byte	0x23
	.uleb128 0x8
	.byte	0x6
	.byte	0x91
	.sleb128 -68
	.byte	0x6
	.byte	0x23
	.uleb128 0x18
	.byte	0x6
	.byte	0x27
	.byte	0x91
	.sleb128 -68
	.byte	0x6
	.byte	0x23
	.uleb128 0x28
	.byte	0x6
	.byte	0x27
	.byte	0x35
	.byte	0x14
	.byte	0x14
	.byte	0x24
	.byte	0x17
	.byte	0x1f
	.byte	0x23
	.uleb128 0x20
	.byte	0x25
	.byte	0x21
	.byte	0x91
	.sleb128 -68
	.byte	0x6
	.byte	0x23
	.uleb128 0x8
	.byte	0x6
	.byte	0x91
	.sleb128 -68
	.byte	0x6
	.byte	0x23
	.uleb128 0x18
	.byte	0x6
	.byte	0x27
	.byte	0x91
	.sleb128 -68
	.byte	0x6
	.byte	0x23
	.uleb128 0x28
	.byte	0x6
	.byte	0x27
	.byte	0x3e
	.byte	0x14
	.byte	0x14
	.byte	0x24
	.byte	0x17
	.byte	0x1f
	.byte	0x23
	.uleb128 0x20
	.byte	0x25
	.byte	0x21
	.byte	0x27
	.byte	0x91
	.sleb128 -68
	.byte	0x6
	.byte	0x23
	.uleb128 0x2c
	.byte	0x6
	.byte	0x27
	.byte	0x3b
	.byte	0x14
	.byte	0x14
	.byte	0x24
	.byte	0x17
	.byte	0x1f
	.byte	0x23
	.uleb128 0x20
	.byte	0x25
	.byte	0x21
	.byte	0x72
	.sleb128 0
	.byte	0x27
	.byte	0x91
	.sleb128 -72
	.byte	0x6
	.byte	0x1a
	.byte	0x91
	.sleb128 -68
	.byte	0x6
	.byte	0x23
	.uleb128 0x4
	.byte	0x6
	.byte	0x91
	.sleb128 -68
	.byte	0x6
	.byte	0x23
	.uleb128 0x14
	.byte	0x6
	.byte	0x27
	.byte	0x91
	.sleb128 -68
	.byte	0x6
	.byte	0x23
	.uleb128 0x24
	.byte	0x6
	.byte	0x27
	.byte	0x35
	.byte	0x14
	.byte	0x14
	.byte	0x24
	.byte	0x17
	.byte	0x1f
	.byte	0x23
	.uleb128 0x20
	.byte	0x25
	.byte	0x21
	.byte	0x27
	.byte	0x91
	.sleb128 -68
	.byte	0x6
	.byte	0x23
	.uleb128 0x4
	.byte	0x6
	.byte	0x91
	.sleb128 -68
	.byte	0x6
	.byte	0x23
	.uleb128 0x14
	.byte	0x6
	.byte	0x27
	.byte	0x91
	.sleb128 -68
	.byte	0x6
	.byte	0x23
	.uleb128 0x24
	.byte	0x6
	.byte	0x27
	.byte	0x3e
	.byte	0x14
	.byte	0x14
	.byte	0x24
	.byte	0x17
	.byte	0x1f
	.byte	0x23
	.uleb128 0x20
	.byte	0x25
	.byte	0x21
	.byte	0x27
	.byte	0x91
	.sleb128 -68
	.byte	0x6
	.byte	0x23
	.uleb128 0x18
	.byte	0x6
	.byte	0x27
	.byte	0x9f
	.4byte	.LVL204-.Ltext0
	.4byte	.LVL212-.Ltext0
	.2byte	0x1
	.byte	0x5c
	.4byte	.LVL212-.Ltext0
	.4byte	.LVL223-.Ltext0
	.2byte	0xb4
	.byte	0x91
	.sleb128 -68
	.byte	0x6
	.byte	0x23
	.uleb128 0x8
	.byte	0x6
	.byte	0x91
	.sleb128 -68
	.byte	0x6
	.byte	0x23
	.uleb128 0x18
	.byte	0x6
	.byte	0x27
	.byte	0x91
	.sleb128 -68
	.byte	0x6
	.byte	0x23
	.uleb128 0x28
	.byte	0x6
	.byte	0x27
	.byte	0x35
	.byte	0x14
	.byte	0x14
	.byte	0x24
	.byte	0x17
	.byte	0x1f
	.byte	0x23
	.uleb128 0x20
	.byte	0x25
	.byte	0x21
	.byte	0x91
	.sleb128 -68
	.byte	0x6
	.byte	0x23
	.uleb128 0x8
	.byte	0x6
	.byte	0x91
	.sleb128 -68
	.byte	0x6
	.byte	0x23
	.uleb128 0x18
	.byte	0x6
	.byte	0x27
	.byte	0x91
	.sleb128 -68
	.byte	0x6
	.byte	0x23
	.uleb128 0x28
	.byte	0x6
	.byte	0x27
	.byte	0x3e
	.byte	0x14
	.byte	0x14
	.byte	0x24
	.byte	0x17
	.byte	0x1f
	.byte	0x23
	.uleb128 0x20
	.byte	0x25
	.byte	0x21
	.byte	0x27
	.byte	0x91
	.sleb128 -68
	.byte	0x6
	.byte	0x23
	.uleb128 0x2c
	.byte	0x6
	.byte	0x27
	.byte	0x3b
	.byte	0x14
	.byte	0x14
	.byte	0x24
	.byte	0x17
	.byte	0x1f
	.byte	0x23
	.uleb128 0x20
	.byte	0x25
	.byte	0x21
	.byte	0x72
	.sleb128 0
	.byte	0x27
	.byte	0x91
	.sleb128 -72
	.byte	0x6
	.byte	0x1a
	.byte	0x91
	.sleb128 -68
	.byte	0x6
	.byte	0x23
	.uleb128 0x4
	.byte	0x6
	.byte	0x91
	.sleb128 -68
	.byte	0x6
	.byte	0x23
	.uleb128 0x14
	.byte	0x6
	.byte	0x27
	.byte	0x91
	.sleb128 -68
	.byte	0x6
	.byte	0x23
	.uleb128 0x24
	.byte	0x6
	.byte	0x27
	.byte	0x35
	.byte	0x14
	.byte	0x14
	.byte	0x24
	.byte	0x17
	.byte	0x1f
	.byte	0x23
	.uleb128 0x20
	.byte	0x25
	.byte	0x21
	.byte	0x27
	.byte	0x91
	.sleb128 -68
	.byte	0x6
	.byte	0x23
	.uleb128 0x4
	.byte	0x6
	.byte	0x91
	.sleb128 -68
	.byte	0x6
	.byte	0x23
	.uleb128 0x14
	.byte	0x6
	.byte	0x27
	.byte	0x91
	.sleb128 -68
	.byte	0x6
	.byte	0x23
	.uleb128 0x24
	.byte	0x6
	.byte	0x27
	.byte	0x3e
	.byte	0x14
	.byte	0x14
	.byte	0x24
	.byte	0x17
	.byte	0x1f
	.byte	0x23
	.uleb128 0x20
	.byte	0x25
	.byte	0x21
	.byte	0x27
	.byte	0x91
	.sleb128 -68
	.byte	0x6
	.byte	0x23
	.uleb128 0x18
	.byte	0x6
	.byte	0x27
	.byte	0x31
	.byte	0x14
	.byte	0x14
	.byte	0x24
	.byte	0x17
	.byte	0x1f
	.byte	0x23
	.uleb128 0x20
	.byte	0x25
	.byte	0x21
	.byte	0x9f
	.4byte	.LVL223-.Ltext0
	.4byte	.LVL223-.Ltext0
	.2byte	0x2
	.byte	0x91
	.sleb128 -52
	.4byte	.LVL223-.Ltext0
	.4byte	.LVL237-.Ltext0
	.2byte	0x1
	.byte	0x5d
	.4byte	.LVL241-.Ltext0
	.4byte	.LVL248-.Ltext0
	.2byte	0x2
	.byte	0x91
	.sleb128 -64
	.4byte	.LVL259-.Ltext0
	.4byte	.LVL259-.Ltext0
	.2byte	0x2
	.byte	0x91
	.sleb128 -64
	.4byte	.LVL259-.Ltext0
	.4byte	.LVL268-.Ltext0
	.2byte	0x1
	.byte	0x5e
	.4byte	.LVL278-.Ltext0
	.4byte	.LVL286-.Ltext0
	.2byte	0x1
	.byte	0x5c
	.4byte	.LVL296-.Ltext0
	.4byte	.LVL296-.Ltext0
	.2byte	0x2
	.byte	0x91
	.sleb128 -52
	.4byte	.LVL296-.Ltext0
	.4byte	.LVL313-.Ltext0
	.2byte	0x1
	.byte	0x5f
	.4byte	.LVL315-.Ltext0
	.4byte	.LVL320-.Ltext0
	.2byte	0x1
	.byte	0x5c
	.4byte	.LVL331-.Ltext0
	.4byte	.LVL331-.Ltext0
	.2byte	0x2
	.byte	0x91
	.sleb128 -52
	.4byte	.LVL331-.Ltext0
	.4byte	.LVL344-.Ltext0
	.2byte	0x1
	.byte	0x54
	.4byte	.LVL350-.Ltext0
	.4byte	.LVL355-.Ltext0
	.2byte	0x1
	.byte	0x5c
	.4byte	.LVL366-.Ltext0
	.4byte	.LVL366-.Ltext0
	.2byte	0x2
	.byte	0x91
	.sleb128 -44
	.4byte	.LVL366-.Ltext0
	.4byte	.LVL376-.Ltext0
	.2byte	0x2
	.byte	0x91
	.sleb128 -48
	.4byte	.LVL376-.Ltext0
	.4byte	.LVL376-.Ltext0
	.2byte	0x1
	.byte	0x55
	.4byte	.LVL376-.Ltext0
	.4byte	.LVL383-.Ltext0
	.2byte	0xd
	.byte	0x75
	.sleb128 0
	.byte	0x31
	.byte	0x14
	.byte	0x14
	.byte	0x24
	.byte	0x17
	.byte	0x1f
	.byte	0x23
	.uleb128 0x20
	.byte	0x25
	.byte	0x21
	.byte	0x9f
	.4byte	.LVL383-.Ltext0
	.4byte	.LFE10-.Ltext0
	.2byte	0x1
	.byte	0x55
	.4byte	0
	.4byte	0
.LVUS68:
	.uleb128 .LVU472
	.uleb128 .LVU485
	.uleb128 .LVU485
	.uleb128 .LVU491
	.uleb128 .LVU491
	.uleb128 .LVU494
	.uleb128 .LVU494
	.uleb128 .LVU516
	.uleb128 .LVU516
	.uleb128 .LVU532
	.uleb128 .LVU532
	.uleb128 .LVU549
	.uleb128 .LVU549
	.uleb128 .LVU551
	.uleb128 .LVU551
	.uleb128 .LVU555
	.uleb128 .LVU555
	.uleb128 .LVU567
	.uleb128 .LVU567
	.uleb128 .LVU574
	.uleb128 .LVU574
	.uleb128 .LVU577
	.uleb128 .LVU577
	.uleb128 .LVU584
	.uleb128 .LVU609
	.uleb128 .LVU629
	.uleb128 .LVU629
	.uleb128 .LVU642
	.uleb128 .LVU642
	.uleb128 .LVU646
	.uleb128 .LVU646
	.uleb128 .LVU653
	.uleb128 .LVU653
	.uleb128 .LVU659
	.uleb128 .LVU659
	.uleb128 .LVU671
	.uleb128 .LVU671
	.uleb128 .LVU678
	.uleb128 .LVU709
	.uleb128 .LVU726
	.uleb128 .LVU726
	.uleb128 .LVU735
	.uleb128 .LVU735
	.uleb128 .LVU745
	.uleb128 .LVU745
	.uleb128 .LVU748
	.uleb128 .LVU748
	.uleb128 .LVU753
	.uleb128 .LVU766
	.uleb128 .LVU773
	.uleb128 .LVU802
	.uleb128 .LVU820
	.uleb128 .LVU820
	.uleb128 .LVU828
	.uleb128 .LVU828
	.uleb128 .LVU841
	.uleb128 .LVU841
	.uleb128 .LVU844
	.uleb128 .LVU844
	.uleb128 .LVU854
	.uleb128 .LVU854
	.uleb128 .LVU861
	.uleb128 .LVU861
	.uleb128 .LVU869
	.uleb128 .LVU871
	.uleb128 .LVU878
	.uleb128 .LVU896
	.uleb128 .LVU916
	.uleb128 .LVU916
	.uleb128 .LVU918
	.uleb128 .LVU918
	.uleb128 .LVU932
	.uleb128 .LVU932
	.uleb128 .LVU936
	.uleb128 .LVU936
	.uleb128 .LVU944
	.uleb128 .LVU955
	.uleb128 .LVU958
	.uleb128 .LVU990
	.uleb128 .LVU1003
	.uleb128 .LVU1003
	.uleb128 .LVU1010
	.uleb128 .LVU1010
	.uleb128 .LVU1030
	.uleb128 .LVU1030
	.uleb128 .LVU1035
.LLST68:
	.4byte	.LVL161-.Ltext0
	.4byte	.LVL170-.Ltext0
	.2byte	0x1
	.byte	0x5c
	.4byte	.LVL170-.Ltext0
	.4byte	.LVL173-.Ltext0
	.2byte	0x6
	.byte	0x91
	.sleb128 -68
	.byte	0x6
	.byte	0x23
	.uleb128 0x20
	.4byte	.LVL173-.Ltext0
	.4byte	.LVL174-.Ltext0
	.2byte	0xb
	.byte	0x91
	.sleb128 -68
	.byte	0x6
	.byte	0x23
	.uleb128 0x20
	.byte	0x6
	.byte	0x73
	.sleb128 0
	.byte	0x27
	.byte	0x9f
	.4byte	.LVL174-.Ltext0
	.4byte	.LVL185-.Ltext0
	.2byte	0x4c
	.byte	0x91
	.sleb128 -68
	.byte	0x6
	.byte	0x23
	.uleb128 0xc
	.byte	0x6
	.byte	0x91
	.sleb128 -68
	.byte	0x6
	.byte	0x23
	.uleb128 0x1c
	.byte	0x6
	.byte	0x27
	.byte	0x91
	.sleb128 -68
	.byte	0x6
	.byte	0x23
	.uleb128 0x2c
	.byte	0x6
	.byte	0x27
	.byte	0x35
	.byte	0x14
	.byte	0x14
	.byte	0x24
	.byte	0x17
	.byte	0x1f
	.byte	0x23
	.uleb128 0x20
	.byte	0x25
	.byte	0x21
	.byte	0x91
	.sleb128 -68
	.byte	0x6
	.byte	0x23
	.uleb128 0xc
	.byte	0x6
	.byte	0x91
	.sleb128 -68
	.byte	0x6
	.byte	0x23
	.uleb128 0x1c
	.byte	0x6
	.byte	0x27
	.byte	0x91
	.sleb128 -68
	.byte	0x6
	.byte	0x23
	.uleb128 0x2c
	.byte	0x6
	.byte	0x27
	.byte	0x3e
	.byte	0x14
	.byte	0x14
	.byte	0x24
	.byte	0x17
	.byte	0x1f
	.byte	0x23
	.uleb128 0x20
	.byte	0x25
	.byte	0x21
	.byte	0x27
	.byte	0x91
	.sleb128 -68
	.byte	0x6
	.byte	0x23
	.uleb128 0x20
	.byte	0x6
	.byte	0x27
	.byte	0x9f
	.4byte	.LVL185-.Ltext0
	.4byte	.LVL188-.Ltext0
	.2byte	0x2
	.byte	0x91
	.sleb128 -60
	.4byte	.LVL188-.Ltext0
	.4byte	.LVL197-.Ltext0
	.2byte	0xd
	.byte	0x73
	.sleb128 0
	.byte	0x9
	.byte	0x9f
	.byte	0x27
	.byte	0x77
	.sleb128 0
	.byte	0x1a
	.byte	0x91
	.sleb128 -60
	.byte	0x6
	.byte	0x27
	.byte	0x9f
	.4byte	.LVL197-.Ltext0
	.4byte	.LVL198-.Ltext0
	.2byte	0xa
	.byte	0x73
	.sleb128 0
	.byte	0x77
	.sleb128 0
	.byte	0x1a
	.byte	0x91
	.sleb128 -60
	.byte	0x6
	.byte	0x27
	.byte	0x9f
	.4byte	.LVL198-.Ltext0
	.4byte	.LVL201-.Ltext0
	.2byte	0xc
	.byte	0x91
	.sleb128 -56
	.byte	0x6
	.byte	0x20
	.byte	0x77
	.sleb128 0
	.byte	0x1a
	.byte	0x91
	.sleb128 -60
	.byte	0x6
	.byte	0x27
	.byte	0x9f
	.4byte	.LVL201-.Ltext0
	.4byte	.LVL205-.Ltext0
	.2byte	0x1
	.byte	0x53
	.4byte	.LVL205-.Ltext0
	.4byte	.LVL207-.Ltext0
	.2byte	0x18
	.byte	0x72
	.sleb128 0
	.byte	0x91
	.sleb128 -60
	.byte	0x6
	.byte	0x27
	.byte	0x91
	.sleb128 -56
	.byte	0x6
	.byte	0x1a
	.byte	0x91
	.sleb128 -48
	.byte	0x6
	.byte	0x27
	.byte	0x91
	.sleb128 -56
	.byte	0x6
	.byte	0x20
	.byte	0x1a
	.byte	0x91
	.sleb128 -60
	.byte	0x6
	.byte	0x27
	.byte	0x9f
	.4byte	.LVL207-.Ltext0
	.4byte	.LVL208-.Ltext0
	.2byte	0x1
	.byte	0x5a
	.4byte	.LVL208-.Ltext0
	.4byte	.LVL213-.Ltext0
	.2byte	0x10e
	.byte	0x72
	.sleb128 0
	.byte	0x91
	.sleb128 -76
	.byte	0x6
	.byte	0x27
	.byte	0x91
	.sleb128 -68
	.byte	0x6
	.byte	0x23
	.uleb128 0x4
	.byte	0x6
	.byte	0x91
	.sleb128 -68
	.byte	0x6
	.byte	0x23
	.uleb128 0x14
	.byte	0x6
	.byte	0x27
	.byte	0x91
	.sleb128 -68
	.byte	0x6
	.byte	0x23
	.uleb128 0x24
	.byte	0x6
	.byte	0x27
	.byte	0x35
	.byte	0x14
	.byte	0x14
	.byte	0x24
	.byte	0x17
	.byte	0x1f
	.byte	0x23
	.uleb128 0x20
	.byte	0x25
	.byte	0x21
	.byte	0x91
	.sleb128 -68
	.byte	0x6
	.byte	0x23
	.uleb128 0x4
	.byte	0x6
	.byte	0x91
	.sleb128 -68
	.byte	0x6
	.byte	0x23
	.uleb128 0x14
	.byte	0x6
	.byte	0x27
	.byte	0x91
	.sleb128 -68
	.byte	0x6
	.byte	0x23
	.uleb128 0x24
	.byte	0x6
	.byte	0x27
	.byte	0x3e
	.byte	0x14
	.byte	0x14
	.byte	0x24
	.byte	0x17
	.byte	0x1f
	.byte	0x23
	.uleb128 0x20
	.byte	0x25
	.byte	0x21
	.byte	0x27
	.byte	0x91
	.sleb128 -68
	.byte	0x6
	.byte	0x23
	.uleb128 0x28
	.byte	0x6
	.byte	0x27
	.byte	0x3b
	.byte	0x14
	.byte	0x14
	.byte	0x24
	.byte	0x17
	.byte	0x1f
	.byte	0x23
	.uleb128 0x20
	.byte	0x25
	.byte	0x21
	.byte	0x72
	.sleb128 0
	.byte	0x27
	.byte	0x91
	.sleb128 -76
	.byte	0x6
	.byte	0x1a
	.byte	0x91
	.sleb128 -68
	.byte	0x6
	.byte	0x6
	.byte	0x91
	.sleb128 -68
	.byte	0x6
	.byte	0x23
	.uleb128 0x10
	.byte	0x6
	.byte	0x27
	.byte	0x91
	.sleb128 -68
	.byte	0x6
	.byte	0x23
	.uleb128 0x20
	.byte	0x6
	.byte	0x27
	.byte	0x35
	.byte	0x14
	.byte	0x14
	.byte	0x24
	.byte	0x17
	.byte	0x1f
	.byte	0x23
	.uleb128 0x20
	.byte	0x25
	.byte	0x21
	.byte	0x27
	.byte	0x91
	.sleb128 -68
	.byte	0x6
	.byte	0x6
	.byte	0x91
	.sleb128 -68
	.byte	0x6
	.byte	0x23
	.uleb128 0x10
	.byte	0x6
	.byte	0x27
	.byte	0x91
	.sleb128 -68
	.byte	0x6
	.byte	0x23
	.uleb128 0x20
	.byte	0x6
	.byte	0x27
	.byte	0x3e
	.byte	0x14
	.byte	0x14
	.byte	0x24
	.byte	0x17
	.byte	0x1f
	.byte	0x23
	.uleb128 0x20
	.byte	0x25
	.byte	0x21
	.byte	0x27
	.byte	0x91
	.sleb128 -68
	.byte	0x6
	.byte	0x23
	.uleb128 0x14
	.byte	0x6
	.byte	0x27
	.byte	0x1a
	.byte	0x91
	.sleb128 -68
	.byte	0x6
	.byte	0x23
	.uleb128 0x4
	.byte	0x6
	.byte	0x91
	.sleb128 -68
	.byte	0x6
	.byte	0x23
	.uleb128 0x14
	.byte	0x6
	.byte	0x27
	.byte	0x91
	.sleb128 -68
	.byte	0x6
	.byte	0x23
	.uleb128 0x24
	.byte	0x6
	.byte	0x27
	.byte	0x35
	.byte	0x14
	.byte	0x14
	.byte	0x24
	.byte	0x17
	.byte	0x1f
	.byte	0x23
	.uleb128 0x20
	.byte	0x25
	.byte	0x21
	.byte	0x91
	.sleb128 -68
	.byte	0x6
	.byte	0x23
	.uleb128 0x4
	.byte	0x6
	.byte	0x91
	.sleb128 -68
	.byte	0x6
	.byte	0x23
	.uleb128 0x14
	.byte	0x6
	.byte	0x27
	.byte	0x91
	.sleb128 -68
	.byte	0x6
	.byte	0x23
	.uleb128 0x24
	.byte	0x6
	.byte	0x27
	.byte	0x3e
	.byte	0x14
	.byte	0x14
	.byte	0x24
	.byte	0x17
	.byte	0x1f
	.byte	0x23
	.uleb128 0x20
	.byte	0x25
	.byte	0x21
	.byte	0x27
	.byte	0x91
	.sleb128 -68
	.byte	0x6
	.byte	0x23
	.uleb128 0x28
	.byte	0x6
	.byte	0x27
	.byte	0x3b
	.byte	0x14
	.byte	0x14
	.byte	0x24
	.byte	0x17
	.byte	0x1f
	.byte	0x23
	.uleb128 0x20
	.byte	0x25
	.byte	0x21
	.byte	0x27
	.byte	0x38
	.byte	0x14
	.byte	0x14
	.byte	0x24
	.byte	0x17
	.byte	0x1f
	.byte	0x23
	.uleb128 0x20
	.byte	0x25
	.byte	0x21
	.byte	0x9f
	.4byte	.LVL223-.Ltext0
	.4byte	.LVL227-.Ltext0
	.2byte	0x2
	.byte	0x91
	.sleb128 -60
	.4byte	.LVL227-.Ltext0
	.4byte	.LVL232-.Ltext0
	.2byte	0xd
	.byte	0x7f
	.sleb128 0
	.byte	0x9
	.byte	0xd3
	.byte	0x27
	.byte	0x78
	.sleb128 0
	.byte	0x1a
	.byte	0x91
	.sleb128 -60
	.byte	0x6
	.byte	0x27
	.byte	0x9f
	.4byte	.LVL232-.Ltext0
	.4byte	.LVL234-.Ltext0
	.2byte	0xa
	.byte	0x7f
	.sleb128 0
	.byte	0x78
	.sleb128 0
	.byte	0x1a
	.byte	0x91
	.sleb128 -60
	.byte	0x6
	.byte	0x27
	.byte	0x9f
	.4byte	.LVL234-.Ltext0
	.4byte	.LVL238-.Ltext0
	.2byte	0xc
	.byte	0x91
	.sleb128 -56
	.byte	0x6
	.byte	0x20
	.byte	0x78
	.sleb128 0
	.byte	0x1a
	.byte	0x91
	.sleb128 -60
	.byte	0x6
	.byte	0x27
	.byte	0x9f
	.4byte	.LVL238-.Ltext0
	.4byte	.LVL240-.Ltext0
	.2byte	0x1
	.byte	0x5f
	.4byte	.LVL240-.Ltext0
	.4byte	.LVL242-.Ltext0
	.2byte	0x18
	.byte	0x72
	.sleb128 0
	.byte	0x91
	.sleb128 -60
	.byte	0x6
	.byte	0x27
	.byte	0x91
	.sleb128 -56
	.byte	0x6
	.byte	0x1a
	.byte	0x91
	.sleb128 -52
	.byte	0x6
	.byte	0x27
	.byte	0x91
	.sleb128 -56
	.byte	0x6
	.byte	0x20
	.byte	0x1a
	.byte	0x91
	.sleb128 -60
	.byte	0x6
	.byte	0x27
	.byte	0x9f
	.4byte	.LVL242-.Ltext0
	.4byte	.LVL246-.Ltext0
	.2byte	0x1
	.byte	0x53
	.4byte	.LVL259-.Ltext0
	.4byte	.LVL263-.Ltext0
	.2byte	0x2
	.byte	0x91
	.sleb128 -60
	.4byte	.LVL263-.Ltext0
	.4byte	.LVL269-.Ltext0
	.2byte	0xe
	.byte	0x7d
	.sleb128 0
	.byte	0xb
	.2byte	0xfc7f
	.byte	0x27
	.byte	0x78
	.sleb128 0
	.byte	0x1a
	.byte	0x91
	.sleb128 -60
	.byte	0x6
	.byte	0x27
	.byte	0x9f
	.4byte	.LVL269-.Ltext0
	.4byte	.LVL272-.Ltext0
	.2byte	0xa
	.byte	0x7a
	.sleb128 0
	.byte	0x78
	.sleb128 0
	.byte	0x1a
	.byte	0x91
	.sleb128 -60
	.byte	0x6
	.byte	0x27
	.byte	0x9f
	.4byte	.LVL272-.Ltext0
	.4byte	.LVL275-.Ltext0
	.2byte	0xc
	.byte	0x91
	.sleb128 -56
	.byte	0x6
	.byte	0x20
	.byte	0x78
	.sleb128 0
	.byte	0x1a
	.byte	0x91
	.sleb128 -60
	.byte	0x6
	.byte	0x27
	.byte	0x9f
	.4byte	.LVL275-.Ltext0
	.4byte	.LVL277-.Ltext0
	.2byte	0x1
	.byte	0x5a
	.4byte	.LVL279-.Ltext0
	.4byte	.LVL283-.Ltext0
	.2byte	0x1
	.byte	0x53
	.4byte	.LVL296-.Ltext0
	.4byte	.LVL300-.Ltext0
	.2byte	0x2
	.byte	0x91
	.sleb128 -60
	.4byte	.LVL300-.Ltext0
	.4byte	.LVL303-.Ltext0
	.2byte	0xe
	.byte	0x7d
	.sleb128 0
	.byte	0xb
	.2byte	0xff0f
	.byte	0x27
	.byte	0x79
	.sleb128 0
	.byte	0x1a
	.byte	0x91
	.sleb128 -60
	.byte	0x6
	.byte	0x27
	.byte	0x9f
	.4byte	.LVL303-.Ltext0
	.4byte	.LVL311-.Ltext0
	.2byte	0xa
	.byte	0x7d
	.sleb128 0
	.byte	0x79
	.sleb128 0
	.byte	0x1a
	.byte	0x91
	.sleb128 -60
	.byte	0x6
	.byte	0x27
	.byte	0x9f
	.4byte	.LVL311-.Ltext0
	.4byte	.LVL313-.Ltext0
	.2byte	0xc
	.byte	0x91
	.sleb128 -56
	.byte	0x6
	.byte	0x20
	.byte	0x79
	.sleb128 0
	.byte	0x1a
	.byte	0x91
	.sleb128 -60
	.byte	0x6
	.byte	0x27
	.byte	0x9f
	.4byte	.LVL313-.Ltext0
	.4byte	.LVL316-.Ltext0
	.2byte	0x1
	.byte	0x5f
	.4byte	.LVL316-.Ltext0
	.4byte	.LVL317-.Ltext0
	.2byte	0x18
	.byte	0x72
	.sleb128 0
	.byte	0x91
	.sleb128 -60
	.byte	0x6
	.byte	0x27
	.byte	0x91
	.sleb128 -56
	.byte	0x6
	.byte	0x1a
	.byte	0x91
	.sleb128 -52
	.byte	0x6
	.byte	0x27
	.byte	0x91
	.sleb128 -56
	.byte	0x6
	.byte	0x20
	.byte	0x1a
	.byte	0x91
	.sleb128 -60
	.byte	0x6
	.byte	0x27
	.byte	0x9f
	.4byte	.LVL317-.Ltext0
	.4byte	.LVL321-.Ltext0
	.2byte	0x1
	.byte	0x54
	.4byte	.LVL322-.Ltext0
	.4byte	.LVL327-.Ltext0
	.2byte	0x1
	.byte	0x54
	.4byte	.LVL331-.Ltext0
	.4byte	.LVL337-.Ltext0
	.2byte	0x1
	.byte	0x53
	.4byte	.LVL337-.Ltext0
	.4byte	.LVL338-.Ltext0
	.2byte	0xd
	.byte	0x77
	.sleb128 0
	.byte	0xb
	.2byte	0xfe5f
	.byte	0x27
	.byte	0x7a
	.sleb128 0
	.byte	0x1a
	.byte	0x73
	.sleb128 0
	.byte	0x27
	.byte	0x9f
	.4byte	.LVL338-.Ltext0
	.4byte	.LVL345-.Ltext0
	.2byte	0x9
	.byte	0x77
	.sleb128 0
	.byte	0x7a
	.sleb128 0
	.byte	0x1a
	.byte	0x73
	.sleb128 0
	.byte	0x27
	.byte	0x9f
	.4byte	.LVL345-.Ltext0
	.4byte	.LVL346-.Ltext0
	.2byte	0xb
	.byte	0x91
	.sleb128 -56
	.byte	0x6
	.byte	0x20
	.byte	0x7a
	.sleb128 0
	.byte	0x1a
	.byte	0x73
	.sleb128 0
	.byte	0x27
	.byte	0x9f
	.4byte	.LVL346-.Ltext0
	.4byte	.LVL349-.Ltext0
	.2byte	0x1
	.byte	0x53
	.4byte	.LVL350-.Ltext0
	.4byte	.LVL351-.Ltext0
	.2byte	0x1
	.byte	0x59
	.4byte	.LVL366-.Ltext0
	.4byte	.LVL368-.Ltext0
	.2byte	0x1
	.byte	0x54
	.4byte	.LVL368-.Ltext0
	.4byte	.LVL374-.Ltext0
	.2byte	0x2
	.byte	0x91
	.sleb128 -60
	.4byte	.LVL374-.Ltext0
	.4byte	.LVL376-.Ltext0
	.2byte	0xd
	.byte	0x7e
	.sleb128 0
	.byte	0x9
	.byte	0xed
	.byte	0x27
	.byte	0x78
	.sleb128 0
	.byte	0x1a
	.byte	0x91
	.sleb128 -60
	.byte	0x6
	.byte	0x27
	.byte	0x9f
	.4byte	.LVL376-.Ltext0
	.4byte	.LVL378-.Ltext0
	.2byte	0x14
	.byte	0x7c
	.sleb128 0
	.byte	0x20
	.byte	0x76
	.sleb128 0
	.byte	0x1a
	.byte	0x73
	.sleb128 0
	.byte	0x27
	.byte	0x38
	.byte	0x14
	.byte	0x14
	.byte	0x24
	.byte	0x17
	.byte	0x1f
	.byte	0x23
	.uleb128 0x20
	.byte	0x25
	.byte	0x21
	.byte	0x9f
	.4byte	0
	.4byte	0
.LVUS69:
	.uleb128 .LVU472
	.uleb128 .LVU497
	.uleb128 .LVU497
	.uleb128 .LVU502
	.uleb128 .LVU502
	.uleb128 .LVU517
	.uleb128 .LVU517
	.uleb128 .LVU537
	.uleb128 .LVU537
	.uleb128 .LVU543
	.uleb128 .LVU543
	.uleb128 .LVU553
	.uleb128 .LVU553
	.uleb128 .LVU560
	.uleb128 .LVU560
	.uleb128 .LVU571
	.uleb128 .LVU571
	.uleb128 .LVU590
	.uleb128 .LVU590
	.uleb128 .LVU596
	.uleb128 .LVU610
	.uleb128 .LVU633
	.uleb128 .LVU633
	.uleb128 .LVU648
	.uleb128 .LVU668
	.uleb128 .LVU688
	.uleb128 .LVU710
	.uleb128 .LVU729
	.uleb128 .LVU729
	.uleb128 .LVU732
	.uleb128 .LVU732
	.uleb128 .LVU733
	.uleb128 .LVU733
	.uleb128 .LVU742
	.uleb128 .LVU763
	.uleb128 .LVU784
	.uleb128 .LVU803
	.uleb128 .LVU823
	.uleb128 .LVU823
	.uleb128 .LVU840
	.uleb128 .LVU858
	.uleb128 .LVU867
	.uleb128 .LVU897
	.uleb128 .LVU920
	.uleb128 .LVU920
	.uleb128 .LVU925
	.uleb128 .LVU925
	.uleb128 .LVU937
	.uleb128 .LVU952
	.uleb128 .LVU971
	.uleb128 .LVU979
	.uleb128 .LVU991
	.uleb128 .LVU991
	.uleb128 .LVU1013
	.uleb128 .LVU1013
	.uleb128 .LVU1027
	.uleb128 .LVU1027
	.uleb128 .LVU1046
	.uleb128 .LVU1046
	.uleb128 .LVU1058
	.uleb128 .LVU1058
	.uleb128 0
.LLST69:
	.4byte	.LVL161-.Ltext0
	.4byte	.LVL177-.Ltext0
	.2byte	0x1
	.byte	0x56
	.4byte	.LVL177-.Ltext0
	.4byte	.LVL180-.Ltext0
	.2byte	0x6
	.byte	0x91
	.sleb128 -68
	.byte	0x6
	.byte	0x23
	.uleb128 0x24
	.4byte	.LVL180-.Ltext0
	.4byte	.LVL185-.Ltext0
	.2byte	0x48
	.byte	0x91
	.sleb128 -68
	.byte	0x6
	.byte	0x6
	.byte	0x91
	.sleb128 -68
	.byte	0x6
	.byte	0x23
	.uleb128 0x10
	.byte	0x6
	.byte	0x27
	.byte	0x91
	.sleb128 -68
	.byte	0x6
	.byte	0x23
	.uleb128 0x20
	.byte	0x6
	.byte	0x27
	.byte	0x35
	.byte	0x14
	.byte	0x14
	.byte	0x24
	.byte	0x17
	.byte	0x1f
	.byte	0x23
	.uleb128 0x20
	.byte	0x25
	.byte	0x21
	.byte	0x91
	.sleb128 -68
	.byte	0x6
	.byte	0x6
	.byte	0x91
	.sleb128 -68
	.byte	0x6
	.byte	0x23
	.uleb128 0x10
	.byte	0x6
	.byte	0x27
	.byte	0x91
	.sleb128 -68
	.byte	0x6
	.byte	0x23
	.uleb128 0x20
	.byte	0x6
	.byte	0x27
	.byte	0x3e
	.byte	0x14
	.byte	0x14
	.byte	0x24
	.byte	0x17
	.byte	0x1f
	.byte	0x23
	.uleb128 0x20
	.byte	0x25
	.byte	0x21
	.byte	0x27
	.byte	0x91
	.sleb128 -68
	.byte	0x6
	.byte	0x23
	.uleb128 0x24
	.byte	0x6
	.byte	0x27
	.byte	0x9f
	.4byte	.LVL185-.Ltext0
	.4byte	.LVL191-.Ltext0
	.2byte	0x1
	.byte	0x56
	.4byte	.LVL191-.Ltext0
	.4byte	.LVL193-.Ltext0
	.2byte	0xa
	.byte	0x7c
	.sleb128 0
	.byte	0x20
	.byte	0x7b
	.sleb128 0
	.byte	0x1a
	.byte	0x76
	.sleb128 0
	.byte	0x27
	.byte	0x9f
	.4byte	.LVL193-.Ltext0
	.4byte	.LVL200-.Ltext0
	.2byte	0xb
	.byte	0x71
	.sleb128 0
	.byte	0x6
	.byte	0x20
	.byte	0x7b
	.sleb128 0
	.byte	0x1a
	.byte	0x76
	.sleb128 0
	.byte	0x27
	.byte	0x9f
	.4byte	.LVL200-.Ltext0
	.4byte	.LVL203-.Ltext0
	.2byte	0x5a
	.byte	0x71
	.sleb128 0
	.byte	0x6
	.byte	0x20
	.byte	0x7b
	.sleb128 0
	.byte	0x1a
	.byte	0x91
	.sleb128 -68
	.byte	0x6
	.byte	0x6
	.byte	0x91
	.sleb128 -68
	.byte	0x6
	.byte	0x23
	.uleb128 0x10
	.byte	0x6
	.byte	0x27
	.byte	0x91
	.sleb128 -68
	.byte	0x6
	.byte	0x23
	.uleb128 0x20
	.byte	0x6
	.byte	0x27
	.byte	0x35
	.byte	0x14
	.byte	0x14
	.byte	0x24
	.byte	0x17
	.byte	0x1f
	.byte	0x23
	.uleb128 0x20
	.byte	0x25
	.byte	0x21
	.byte	0x91
	.sleb128 -68
	.byte	0x6
	.byte	0x6
	.byte	0x91
	.sleb128 -68
	.byte	0x6
	.byte	0x23
	.uleb128 0x10
	.byte	0x6
	.byte	0x27
	.byte	0x91
	.sleb128 -68
	.byte	0x6
	.byte	0x23
	.uleb128 0x20
	.byte	0x6
	.byte	0x27
	.byte	0x3e
	.byte	0x14
	.byte	0x14
	.byte	0x24
	.byte	0x17
	.byte	0x1f
	.byte	0x23
	.uleb128 0x20
	.byte	0x25
	.byte	0x21
	.byte	0x27
	.byte	0x91
	.sleb128 -68
	.byte	0x6
	.byte	0x23
	.uleb128 0x24
	.byte	0x6
	.byte	0x27
	.byte	0x3b
	.byte	0x14
	.byte	0x14
	.byte	0x24
	.byte	0x17
	.byte	0x1f
	.byte	0x23
	.uleb128 0x20
	.byte	0x25
	.byte	0x21
	.byte	0x27
	.byte	0x9f
	.4byte	.LVL203-.Ltext0
	.4byte	.LVL207-.Ltext0
	.2byte	0xfc
	.byte	0x91
	.sleb128 -68
	.byte	0x6
	.byte	0x6
	.byte	0x91
	.sleb128 -68
	.byte	0x6
	.byte	0x23
	.uleb128 0x10
	.byte	0x6
	.byte	0x27
	.byte	0x91
	.sleb128 -68
	.byte	0x6
	.byte	0x23
	.uleb128 0x20
	.byte	0x6
	.byte	0x27
	.byte	0x35
	.byte	0x14
	.byte	0x14
	.byte	0x24
	.byte	0x17
	.byte	0x1f
	.byte	0x23
	.uleb128 0x20
	.byte	0x25
	.byte	0x21
	.byte	0x91
	.sleb128 -68
	.byte	0x6
	.byte	0x6
	.byte	0x91
	.sleb128 -68
	.byte	0x6
	.byte	0x23
	.uleb128 0x10
	.byte	0x6
	.byte	0x27
	.byte	0x91
	.sleb128 -68
	.byte	0x6
	.byte	0x23
	.uleb128 0x20
	.byte	0x6
	.byte	0x27
	.byte	0x3e
	.byte	0x14
	.byte	0x14
	.byte	0x24
	.byte	0x17
	.byte	0x1f
	.byte	0x23
	.uleb128 0x20
	.byte	0x25
	.byte	0x21
	.byte	0x27
	.byte	0x91
	.sleb128 -68
	.byte	0x6
	.byte	0x23
	.uleb128 0x24
	.byte	0x6
	.byte	0x27
	.byte	0x3b
	.byte	0x14
	.byte	0x14
	.byte	0x24
	.byte	0x17
	.byte	0x1f
	.byte	0x23
	.uleb128 0x20
	.byte	0x25
	.byte	0x21
	.byte	0x72
	.sleb128 0
	.byte	0x27
	.byte	0x71
	.sleb128 0
	.byte	0x6
	.byte	0x1a
	.byte	0x91
	.sleb128 -68
	.byte	0x6
	.byte	0x23
	.uleb128 0xc
	.byte	0x6
	.byte	0x91
	.sleb128 -68
	.byte	0x6
	.byte	0x23
	.uleb128 0x1c
	.byte	0x6
	.byte	0x27
	.byte	0x91
	.sleb128 -68
	.byte	0x6
	.byte	0x23
	.uleb128 0x2c
	.byte	0x6
	.byte	0x27
	.byte	0x35
	.byte	0x14
	.byte	0x14
	.byte	0x24
	.byte	0x17
	.byte	0x1f
	.byte	0x23
	.uleb128 0x20
	.byte	0x25
	.byte	0x21
	.byte	0x27
	.byte	0x91
	.sleb128 -68
	.byte	0x6
	.byte	0x23
	.uleb128 0xc
	.byte	0x6
	.byte	0x91
	.sleb128 -68
	.byte	0x6
	.byte	0x23
	.uleb128 0x1c
	.byte	0x6
	.byte	0x27
	.byte	0x91
	.sleb128 -68
	.byte	0x6
	.byte	0x23
	.uleb128 0x2c
	.byte	0x6
	.byte	0x27
	.byte	0x3e
	.byte	0x14
	.byte	0x14
	.byte	0x24
	.byte	0x17
	.byte	0x1f
	.byte	0x23
	.uleb128 0x20
	.byte	0x25
	.byte	0x21
	.byte	0x27
	.byte	0x91
	.sleb128 -68
	.byte	0x6
	.byte	0x23
	.uleb128 0x10
	.byte	0x6
	.byte	0x27
	.byte	0x71
	.sleb128 0
	.byte	0x6
	.byte	0x20
	.byte	0x1a
	.byte	0x91
	.sleb128 -68
	.byte	0x6
	.byte	0x6
	.byte	0x91
	.sleb128 -68
	.byte	0x6
	.byte	0x23
	.uleb128 0x10
	.byte	0x6
	.byte	0x27
	.byte	0x91
	.sleb128 -68
	.byte	0x6
	.byte	0x23
	.uleb128 0x20
	.byte	0x6
	.byte	0x27
	.byte	0x35
	.byte	0x14
	.byte	0x14
	.byte	0x24
	.byte	0x17
	.byte	0x1f
	.byte	0x23
	.uleb128 0x20
	.byte	0x25
	.byte	0x21
	.byte	0x91
	.sleb128 -68
	.byte	0x6
	.byte	0x6
	.byte	0x91
	.sleb128 -68
	.byte	0x6
	.byte	0x23
	.uleb128 0x10
	.byte	0x6
	.byte	0x27
	.byte	0x91
	.sleb128 -68
	.byte	0x6
	.byte	0x23
	.uleb128 0x20
	.byte	0x6
	.byte	0x27
	.byte	0x3e
	.byte	0x14
	.byte	0x14
	.byte	0x24
	.byte	0x17
	.byte	0x1f
	.byte	0x23
	.uleb128 0x20
	.byte	0x25
	.byte	0x21
	.byte	0x27
	.byte	0x91
	.sleb128 -68
	.byte	0x6
	.byte	0x23
	.uleb128 0x24
	.byte	0x6
	.byte	0x27
	.byte	0x3b
	.byte	0x14
	.byte	0x14
	.byte	0x24
	.byte	0x17
	.byte	0x1f
	.byte	0x23
	.uleb128 0x20
	.byte	0x25
	.byte	0x21
	.byte	0x27
	.byte	0x9f
	.4byte	.LVL207-.Ltext0
	.4byte	.LVL217-.Ltext0
	.2byte	0x1
	.byte	0x54
	.4byte	.LVL217-.Ltext0
	.4byte	.LVL221-.Ltext0
	.2byte	0x112
	.byte	0x72
	.sleb128 0
	.byte	0x91
	.sleb128 -72
	.byte	0x6
	.byte	0x27
	.byte	0x91
	.sleb128 -68
	.byte	0x6
	.byte	0x23
	.uleb128 0x8
	.byte	0x6
	.byte	0x91
	.sleb128 -68
	.byte	0x6
	.byte	0x23
	.uleb128 0x18
	.byte	0x6
	.byte	0x27
	.byte	0x91
	.sleb128 -68
	.byte	0x6
	.byte	0x23
	.uleb128 0x28
	.byte	0x6
	.byte	0x27
	.byte	0x35
	.byte	0x14
	.byte	0x14
	.byte	0x24
	.byte	0x17
	.byte	0x1f
	.byte	0x23
	.uleb128 0x20
	.byte	0x25
	.byte	0x21
	.byte	0x91
	.sleb128 -68
	.byte	0x6
	.byte	0x23
	.uleb128 0x8
	.byte	0x6
	.byte	0x91
	.sleb128 -68
	.byte	0x6
	.byte	0x23
	.uleb128 0x18
	.byte	0x6
	.byte	0x27
	.byte	0x91
	.sleb128 -68
	.byte	0x6
	.byte	0x23
	.uleb128 0x28
	.byte	0x6
	.byte	0x27
	.byte	0x3e
	.byte	0x14
	.byte	0x14
	.byte	0x24
	.byte	0x17
	.byte	0x1f
	.byte	0x23
	.uleb128 0x20
	.byte	0x25
	.byte	0x21
	.byte	0x27
	.byte	0x91
	.sleb128 -68
	.byte	0x6
	.byte	0x23
	.uleb128 0x2c
	.byte	0x6
	.byte	0x27
	.byte	0x3b
	.byte	0x14
	.byte	0x14
	.byte	0x24
	.byte	0x17
	.byte	0x1f
	.byte	0x23
	.uleb128 0x20
	.byte	0x25
	.byte	0x21
	.byte	0x72
	.sleb128 0
	.byte	0x27
	.byte	0x91
	.sleb128 -72
	.byte	0x6
	.byte	0x1a
	.byte	0x91
	.sleb128 -68
	.byte	0x6
	.byte	0x23
	.uleb128 0x4
	.byte	0x6
	.byte	0x91
	.sleb128 -68
	.byte	0x6
	.byte	0x23
	.uleb128 0x14
	.byte	0x6
	.byte	0x27
	.byte	0x91
	.sleb128 -68
	.byte	0x6
	.byte	0x23
	.uleb128 0x24
	.byte	0x6
	.byte	0x27
	.byte	0x35
	.byte	0x14
	.byte	0x14
	.byte	0x24
	.byte	0x17
	.byte	0x1f
	.byte	0x23
	.uleb128 0x20
	.byte	0x25
	.byte	0x21
	.byte	0x27
	.byte	0x91
	.sleb128 -68
	.byte	0x6
	.byte	0x23
	.uleb128 0x4
	.byte	0x6
	.byte	0x91
	.sleb128 -68
	.byte	0x6
	.byte	0x23
	.uleb128 0x14
	.byte	0x6
	.byte	0x27
	.byte	0x91
	.sleb128 -68
	.byte	0x6
	.byte	0x23
	.uleb128 0x24
	.byte	0x6
	.byte	0x27
	.byte	0x3e
	.byte	0x14
	.byte	0x14
	.byte	0x24
	.byte	0x17
	.byte	0x1f
	.byte	0x23
	.uleb128 0x20
	.byte	0x25
	.byte	0x21
	.byte	0x27
	.byte	0x91
	.sleb128 -68
	.byte	0x6
	.byte	0x23
	.uleb128 0x18
	.byte	0x6
	.byte	0x27
	.byte	0x1a
	.byte	0x91
	.sleb128 -68
	.byte	0x6
	.byte	0x23
	.uleb128 0x8
	.byte	0x6
	.byte	0x91
	.sleb128 -68
	.byte	0x6
	.byte	0x23
	.uleb128 0x18
	.byte	0x6
	.byte	0x27
	.byte	0x91
	.sleb128 -68
	.byte	0x6
	.byte	0x23
	.uleb128 0x28
	.byte	0x6
	.byte	0x27
	.byte	0x35
	.byte	0x14
	.byte	0x14
	.byte	0x24
	.byte	0x17
	.byte	0x1f
	.byte	0x23
	.uleb128 0x20
	.byte	0x25
	.byte	0x21
	.byte	0x91
	.sleb128 -68
	.byte	0x6
	.byte	0x23
	.uleb128 0x8
	.byte	0x6
	.byte	0x91
	.sleb128 -68
	.byte	0x6
	.byte	0x23
	.uleb128 0x18
	.byte	0x6
	.byte	0x27
	.byte	0x91
	.sleb128 -68
	.byte	0x6
	.byte	0x23
	.uleb128 0x28
	.byte	0x6
	.byte	0x27
	.byte	0x3e
	.byte	0x14
	.byte	0x14
	.byte	0x24
	.byte	0x17
	.byte	0x1f
	.byte	0x23
	.uleb128 0x20
	.byte	0x25
	.byte	0x21
	.byte	0x27
	.byte	0x91
	.sleb128 -68
	.byte	0x6
	.byte	0x23
	.uleb128 0x2c
	.byte	0x6
	.byte	0x27
	.byte	0x3b
	.byte	0x14
	.byte	0x14
	.byte	0x24
	.byte	0x17
	.byte	0x1f
	.byte	0x23
	.uleb128 0x20
	.byte	0x25
	.byte	0x21
	.byte	0x27
	.byte	0x38
	.byte	0x14
	.byte	0x14
	.byte	0x24
	.byte	0x17
	.byte	0x1f
	.byte	0x23
	.uleb128 0x20
	.byte	0x25
	.byte	0x21
	.byte	0x9f
	.4byte	.LVL223-.Ltext0
	.4byte	.LVL229-.Ltext0
	.2byte	0x1
	.byte	0x54
	.4byte	.LVL229-.Ltext0
	.4byte	.LVL236-.Ltext0
	.2byte	0xb
	.byte	0x71
	.sleb128 0
	.byte	0x6
	.byte	0x20
	.byte	0x75
	.sleb128 0
	.byte	0x1a
	.byte	0x74
	.sleb128 0
	.byte	0x27
	.byte	0x9f
	.4byte	.LVL242-.Ltext0
	.4byte	.LVL253-.Ltext0
	.2byte	0x1
	.byte	0x56
	.4byte	.LVL259-.Ltext0
	.4byte	.LVL264-.Ltext0
	.2byte	0x1
	.byte	0x56
	.4byte	.LVL264-.Ltext0
	.4byte	.LVL266-.Ltext0
	.2byte	0xa
	.byte	0x7c
	.sleb128 0
	.byte	0x20
	.byte	0x7b
	.sleb128 0
	.byte	0x1a
	.byte	0x76
	.sleb128 0
	.byte	0x27
	.byte	0x9f
	.4byte	.LVL266-.Ltext0
	.4byte	.LVL267-.Ltext0
	.2byte	0xa
	.byte	0x7a
	.sleb128 0
	.byte	0x20
	.byte	0x7b
	.sleb128 0
	.byte	0x1a
	.byte	0x76
	.sleb128 0
	.byte	0x27
	.byte	0x9f
	.4byte	.LVL267-.Ltext0
	.4byte	.LVL271-.Ltext0
	.2byte	0xb
	.byte	0x71
	.sleb128 0
	.byte	0x6
	.byte	0x20
	.byte	0x7b
	.sleb128 0
	.byte	0x1a
	.byte	0x76
	.sleb128 0
	.byte	0x27
	.byte	0x9f
	.4byte	.LVL279-.Ltext0
	.4byte	.LVL290-.Ltext0
	.2byte	0x1
	.byte	0x54
	.4byte	.LVL296-.Ltext0
	.4byte	.LVL301-.Ltext0
	.2byte	0x1
	.byte	0x54
	.4byte	.LVL301-.Ltext0
	.4byte	.LVL310-.Ltext0
	.2byte	0xb
	.byte	0x71
	.sleb128 0
	.byte	0x6
	.byte	0x20
	.byte	0x78
	.sleb128 0
	.byte	0x1a
	.byte	0x74
	.sleb128 0
	.byte	0x27
	.byte	0x9f
	.4byte	.LVL317-.Ltext0
	.4byte	.LVL319-.Ltext0
	.2byte	0x1
	.byte	0x56
	.4byte	.LVL331-.Ltext0
	.4byte	.LVL339-.Ltext0
	.2byte	0x2
	.byte	0x91
	.sleb128 -60
	.4byte	.LVL339-.Ltext0
	.4byte	.LVL340-.Ltext0
	.2byte	0xb
	.byte	0x76
	.sleb128 0
	.byte	0x20
	.byte	0x79
	.sleb128 0
	.byte	0x1a
	.byte	0x91
	.sleb128 -60
	.byte	0x6
	.byte	0x27
	.byte	0x9f
	.4byte	.LVL340-.Ltext0
	.4byte	.LVL347-.Ltext0
	.2byte	0xc
	.byte	0x71
	.sleb128 0
	.byte	0x6
	.byte	0x20
	.byte	0x79
	.sleb128 0
	.byte	0x1a
	.byte	0x91
	.sleb128 -60
	.byte	0x6
	.byte	0x27
	.byte	0x9f
	.4byte	.LVL350-.Ltext0
	.4byte	.LVL360-.Ltext0
	.2byte	0x1
	.byte	0x5f
	.4byte	.LVL365-.Ltext0
	.4byte	.LVL366-.Ltext0
	.2byte	0x1
	.byte	0x5f
	.4byte	.LVL366-.Ltext0
	.4byte	.LVL375-.Ltext0
	.2byte	0x2
	.byte	0x91
	.sleb128 -64
	.4byte	.LVL375-.Ltext0
	.4byte	.LVL376-.Ltext0
	.2byte	0xb
	.byte	0x7d
	.sleb128 0
	.byte	0x20
	.byte	0x77
	.sleb128 0
	.byte	0x1a
	.byte	0x91
	.sleb128 -64
	.byte	0x6
	.byte	0x27
	.byte	0x9f
	.4byte	.LVL376-.Ltext0
	.4byte	.LVL383-.Ltext0
	.2byte	0x15
	.byte	0x7b
	.sleb128 0
	.byte	0x20
	.byte	0x75
	.sleb128 0
	.byte	0x1a
	.byte	0x91
	.sleb128 -52
	.byte	0x6
	.byte	0x27
	.byte	0x38
	.byte	0x14
	.byte	0x14
	.byte	0x24
	.byte	0x17
	.byte	0x1f
	.byte	0x23
	.uleb128 0x20
	.byte	0x25
	.byte	0x21
	.byte	0x9f
	.4byte	.LVL383-.Ltext0
	.4byte	.LVL388-.Ltext0
	.2byte	0x1e
	.byte	0x91
	.sleb128 -52
	.byte	0x6
	.byte	0x20
	.byte	0x7b
	.sleb128 0
	.byte	0x1a
	.byte	0x91
	.sleb128 -48
	.byte	0x6
	.byte	0x27
	.byte	0x7b
	.sleb128 0
	.byte	0x20
	.byte	0x1a
	.byte	0x91
	.sleb128 -52
	.byte	0x6
	.byte	0x27
	.byte	0x38
	.byte	0x14
	.byte	0x14
	.byte	0x24
	.byte	0x17
	.byte	0x1f
	.byte	0x23
	.uleb128 0x20
	.byte	0x25
	.byte	0x21
	.byte	0x9f
	.4byte	.LVL388-.Ltext0
	.4byte	.LFE10-.Ltext0
	.2byte	0x1e
	.byte	0x71
	.sleb128 -52
	.byte	0x6
	.byte	0x20
	.byte	0x7b
	.sleb128 0
	.byte	0x1a
	.byte	0x71
	.sleb128 -48
	.byte	0x6
	.byte	0x27
	.byte	0x7b
	.sleb128 0
	.byte	0x20
	.byte	0x1a
	.byte	0x71
	.sleb128 -52
	.byte	0x6
	.byte	0x27
	.byte	0x38
	.byte	0x14
	.byte	0x14
	.byte	0x24
	.byte	0x17
	.byte	0x1f
	.byte	0x23
	.uleb128 0x20
	.byte	0x25
	.byte	0x21
	.byte	0x9f
	.4byte	0
	.4byte	0
.LVUS70:
	.uleb128 .LVU472
	.uleb128 .LVU498
	.uleb128 .LVU498
	.uleb128 .LVU507
	.uleb128 .LVU518
	.uleb128 .LVU540
	.uleb128 .LVU540
	.uleb128 .LVU544
	.uleb128 .LVU544
	.uleb128 .LVU545
	.uleb128 .LVU545
	.uleb128 .LVU561
	.uleb128 .LVU561
	.uleb128 .LVU573
	.uleb128 .LVU573
	.uleb128 .LVU591
	.uleb128 .LVU591
	.uleb128 .LVU601
	.uleb128 .LVU611
	.uleb128 .LVU636
	.uleb128 .LVU636
	.uleb128 .LVU638
	.uleb128 .LVU638
	.uleb128 .LVU643
	.uleb128 .LVU670
	.uleb128 .LVU691
	.uleb128 .LVU711
	.uleb128 .LVU737
	.uleb128 .LVU737
	.uleb128 .LVU746
	.uleb128 .LVU765
	.uleb128 .LVU775
	.uleb128 .LVU804
	.uleb128 .LVU826
	.uleb128 .LVU826
	.uleb128 .LVU833
	.uleb128 .LVU860
	.uleb128 .LVU879
	.uleb128 .LVU898
	.uleb128 .LVU923
	.uleb128 .LVU923
	.uleb128 .LVU926
	.uleb128 .LVU926
	.uleb128 .LVU930
	.uleb128 .LVU954
	.uleb128 .LVU976
	.uleb128 .LVU992
	.uleb128 .LVU1016
	.uleb128 .LVU1016
	.uleb128 .LVU1029
	.uleb128 .LVU1029
	.uleb128 .LVU1034
	.uleb128 .LVU1034
	.uleb128 .LVU1037
	.uleb128 .LVU1047
	.uleb128 0
.LLST70:
	.4byte	.LVL161-.Ltext0
	.4byte	.LVL178-.Ltext0
	.2byte	0x1
	.byte	0x55
	.4byte	.LVL178-.Ltext0
	.4byte	.LVL181-.Ltext0
	.2byte	0x6
	.byte	0x91
	.sleb128 -68
	.byte	0x6
	.byte	0x23
	.uleb128 0x28
	.4byte	.LVL185-.Ltext0
	.4byte	.LVL191-.Ltext0
	.2byte	0x1
	.byte	0x55
	.4byte	.LVL191-.Ltext0
	.4byte	.LVL194-.Ltext0
	.2byte	0xa
	.byte	0x7e
	.sleb128 0
	.byte	0x20
	.byte	0x7d
	.sleb128 0
	.byte	0x1a
	.byte	0x75
	.sleb128 0
	.byte	0x27
	.byte	0x9f
	.4byte	.LVL194-.Ltext0
	.4byte	.LVL195-.Ltext0
	.2byte	0xc
	.byte	0x91
	.sleb128 -76
	.byte	0x6
	.byte	0x20
	.byte	0x7d
	.sleb128 0
	.byte	0x1a
	.byte	0x75
	.sleb128 0
	.byte	0x27
	.byte	0x9f
	.4byte	.LVL195-.Ltext0
	.4byte	.LVL204-.Ltext0
	.2byte	0x5c
	.byte	0x72
	.sleb128 0
	.byte	0x75
	.sleb128 0
	.byte	0x27
	.byte	0x91
	.sleb128 -76
	.byte	0x6
	.byte	0x1a
	.byte	0x91
	.sleb128 -68
	.byte	0x6
	.byte	0x6
	.byte	0x91
	.sleb128 -68
	.byte	0x6
	.byte	0x23
	.uleb128 0x10
	.byte	0x6
	.byte	0x27
	.byte	0x91
	.sleb128 -68
	.byte	0x6
	.byte	0x23
	.uleb128 0x20
	.byte	0x6
	.byte	0x27
	.byte	0x35
	.byte	0x14
	.byte	0x14
	.byte	0x24
	.byte	0x17
	.byte	0x1f
	.byte	0x23
	.uleb128 0x20
	.byte	0x25
	.byte	0x21
	.byte	0x27
	.byte	0x91
	.sleb128 -68
	.byte	0x6
	.byte	0x6
	.byte	0x91
	.sleb128 -68
	.byte	0x6
	.byte	0x23
	.uleb128 0x10
	.byte	0x6
	.byte	0x27
	.byte	0x91
	.sleb128 -68
	.byte	0x6
	.byte	0x23
	.uleb128 0x20
	.byte	0x6
	.byte	0x27
	.byte	0x3e
	.byte	0x14
	.byte	0x14
	.byte	0x24
	.byte	0x17
	.byte	0x1f
	.byte	0x23
	.uleb128 0x20
	.byte	0x25
	.byte	0x21
	.byte	0x27
	.byte	0x91
	.sleb128 -68
	.byte	0x6
	.byte	0x23
	.uleb128 0x14
	.byte	0x6
	.byte	0x27
	.byte	0x91
	.sleb128 -76
	.byte	0x6
	.byte	0x20
	.byte	0x1a
	.byte	0x75
	.sleb128 0
	.byte	0x27
	.byte	0x9f
	.4byte	.LVL204-.Ltext0
	.4byte	.LVL207-.Ltext0
	.2byte	0x102
	.byte	0x91
	.sleb128 -68
	.byte	0x6
	.byte	0x23
	.uleb128 0x4
	.byte	0x6
	.byte	0x91
	.sleb128 -68
	.byte	0x6
	.byte	0x23
	.uleb128 0x14
	.byte	0x6
	.byte	0x27
	.byte	0x91
	.sleb128 -68
	.byte	0x6
	.byte	0x23
	.uleb128 0x24
	.byte	0x6
	.byte	0x27
	.byte	0x35
	.byte	0x14
	.byte	0x14
	.byte	0x24
	.byte	0x17
	.byte	0x1f
	.byte	0x23
	.uleb128 0x20
	.byte	0x25
	.byte	0x21
	.byte	0x91
	.sleb128 -68
	.byte	0x6
	.byte	0x23
	.uleb128 0x4
	.byte	0x6
	.byte	0x91
	.sleb128 -68
	.byte	0x6
	.byte	0x23
	.uleb128 0x14
	.byte	0x6
	.byte	0x27
	.byte	0x91
	.sleb128 -68
	.byte	0x6
	.byte	0x23
	.uleb128 0x24
	.byte	0x6
	.byte	0x27
	.byte	0x3e
	.byte	0x14
	.byte	0x14
	.byte	0x24
	.byte	0x17
	.byte	0x1f
	.byte	0x23
	.uleb128 0x20
	.byte	0x25
	.byte	0x21
	.byte	0x27
	.byte	0x91
	.sleb128 -68
	.byte	0x6
	.byte	0x23
	.uleb128 0x28
	.byte	0x6
	.byte	0x27
	.byte	0x3b
	.byte	0x14
	.byte	0x14
	.byte	0x24
	.byte	0x17
	.byte	0x1f
	.byte	0x23
	.uleb128 0x20
	.byte	0x25
	.byte	0x21
	.byte	0x72
	.sleb128 0
	.byte	0x27
	.byte	0x91
	.sleb128 -76
	.byte	0x6
	.byte	0x1a
	.byte	0x91
	.sleb128 -68
	.byte	0x6
	.byte	0x6
	.byte	0x91
	.sleb128 -68
	.byte	0x6
	.byte	0x23
	.uleb128 0x10
	.byte	0x6
	.byte	0x27
	.byte	0x91
	.sleb128 -68
	.byte	0x6
	.byte	0x23
	.uleb128 0x20
	.byte	0x6
	.byte	0x27
	.byte	0x35
	.byte	0x14
	.byte	0x14
	.byte	0x24
	.byte	0x17
	.byte	0x1f
	.byte	0x23
	.uleb128 0x20
	.byte	0x25
	.byte	0x21
	.byte	0x27
	.byte	0x91
	.sleb128 -68
	.byte	0x6
	.byte	0x6
	.byte	0x91
	.sleb128 -68
	.byte	0x6
	.byte	0x23
	.uleb128 0x10
	.byte	0x6
	.byte	0x27
	.byte	0x91
	.sleb128 -68
	.byte	0x6
	.byte	0x23
	.uleb128 0x20
	.byte	0x6
	.byte	0x27
	.byte	0x3e
	.byte	0x14
	.byte	0x14
	.byte	0x24
	.byte	0x17
	.byte	0x1f
	.byte	0x23
	.uleb128 0x20
	.byte	0x25
	.byte	0x21
	.byte	0x27
	.byte	0x91
	.sleb128 -68
	.byte	0x6
	.byte	0x23
	.uleb128 0x14
	.byte	0x6
	.byte	0x27
	.byte	0x91
	.sleb128 -76
	.byte	0x6
	.byte	0x20
	.byte	0x1a
	.byte	0x91
	.sleb128 -68
	.byte	0x6
	.byte	0x23
	.uleb128 0x4
	.byte	0x6
	.byte	0x91
	.sleb128 -68
	.byte	0x6
	.byte	0x23
	.uleb128 0x14
	.byte	0x6
	.byte	0x27
	.byte	0x91
	.sleb128 -68
	.byte	0x6
	.byte	0x23
	.uleb128 0x24
	.byte	0x6
	.byte	0x27
	.byte	0x35
	.byte	0x14
	.byte	0x14
	.byte	0x24
	.byte	0x17
	.byte	0x1f
	.byte	0x23
	.uleb128 0x20
	.byte	0x25
	.byte	0x21
	.byte	0x91
	.sleb128 -68
	.byte	0x6
	.byte	0x23
	.uleb128 0x4
	.byte	0x6
	.byte	0x91
	.sleb128 -68
	.byte	0x6
	.byte	0x23
	.uleb128 0x14
	.byte	0x6
	.byte	0x27
	.byte	0x91
	.sleb128 -68
	.byte	0x6
	.byte	0x23
	.uleb128 0x24
	.byte	0x6
	.byte	0x27
	.byte	0x3e
	.byte	0x14
	.byte	0x14
	.byte	0x24
	.byte	0x17
	.byte	0x1f
	.byte	0x23
	.uleb128 0x20
	.byte	0x25
	.byte	0x21
	.byte	0x27
	.byte	0x91
	.sleb128 -68
	.byte	0x6
	.byte	0x23
	.uleb128 0x28
	.byte	0x6
	.byte	0x27
	.byte	0x3b
	.byte	0x14
	.byte	0x14
	.byte	0x24
	.byte	0x17
	.byte	0x1f
	.byte	0x23
	.uleb128 0x20
	.byte	0x25
	.byte	0x21
	.byte	0x27
	.byte	0x9f
	.4byte	.LVL207-.Ltext0
	.4byte	.LVL218-.Ltext0
	.2byte	0x1
	.byte	0x53
	.4byte	.LVL218-.Ltext0
	.4byte	.LVL221-.Ltext0
	.2byte	0xc6
	.byte	0x91
	.sleb128 -68
	.byte	0x6
	.byte	0x23
	.uleb128 0xc
	.byte	0x6
	.byte	0x91
	.sleb128 -68
	.byte	0x6
	.byte	0x23
	.uleb128 0x1c
	.byte	0x6
	.byte	0x27
	.byte	0x91
	.sleb128 -68
	.byte	0x6
	.byte	0x23
	.uleb128 0x2c
	.byte	0x6
	.byte	0x27
	.byte	0x35
	.byte	0x14
	.byte	0x14
	.byte	0x24
	.byte	0x17
	.byte	0x1f
	.byte	0x23
	.uleb128 0x20
	.byte	0x25
	.byte	0x21
	.byte	0x91
	.sleb128 -68
	.byte	0x6
	.byte	0x23
	.uleb128 0xc
	.byte	0x6
	.byte	0x91
	.sleb128 -68
	.byte	0x6
	.byte	0x23
	.uleb128 0x1c
	.byte	0x6
	.byte	0x27
	.byte	0x91
	.sleb128 -68
	.byte	0x6
	.byte	0x23
	.uleb128 0x2c
	.byte	0x6
	.byte	0x27
	.byte	0x3e
	.byte	0x14
	.byte	0x14
	.byte	0x24
	.byte	0x17
	.byte	0x1f
	.byte	0x23
	.uleb128 0x20
	.byte	0x25
	.byte	0x21
	.byte	0x27
	.byte	0x91
	.sleb128 -68
	.byte	0x6
	.byte	0x23
	.uleb128 0x20
	.byte	0x6
	.byte	0x27
	.byte	0x3b
	.byte	0x14
	.byte	0x14
	.byte	0x24
	.byte	0x17
	.byte	0x1f
	.byte	0x23
	.uleb128 0x20
	.byte	0x25
	.byte	0x21
	.byte	0x72
	.sleb128 0
	.byte	0x27
	.byte	0x91
	.sleb128 -56
	.byte	0x6
	.byte	0x1a
	.byte	0x91
	.sleb128 -48
	.byte	0x6
	.byte	0x27
	.byte	0x91
	.sleb128 -56
	.byte	0x6
	.byte	0x20
	.byte	0x1a
	.byte	0x91
	.sleb128 -68
	.byte	0x6
	.byte	0x23
	.uleb128 0xc
	.byte	0x6
	.byte	0x91
	.sleb128 -68
	.byte	0x6
	.byte	0x23
	.uleb128 0x1c
	.byte	0x6
	.byte	0x27
	.byte	0x91
	.sleb128 -68
	.byte	0x6
	.byte	0x23
	.uleb128 0x2c
	.byte	0x6
	.byte	0x27
	.byte	0x35
	.byte	0x14
	.byte	0x14
	.byte	0x24
	.byte	0x17
	.byte	0x1f
	.byte	0x23
	.uleb128 0x20
	.byte	0x25
	.byte	0x21
	.byte	0x91
	.sleb128 -68
	.byte	0x6
	.byte	0x23
	.uleb128 0xc
	.byte	0x6
	.byte	0x91
	.sleb128 -68
	.byte	0x6
	.byte	0x23
	.uleb128 0x1c
	.byte	0x6
	.byte	0x27
	.byte	0x91
	.sleb128 -68
	.byte	0x6
	.byte	0x23
	.uleb128 0x2c
	.byte	0x6
	.byte	0x27
	.byte	0x3e
	.byte	0x14
	.byte	0x14
	.byte	0x24
	.byte	0x17
	.byte	0x1f
	.byte	0x23
	.uleb128 0x20
	.byte	0x25
	.byte	0x21
	.byte	0x27
	.byte	0x91
	.sleb128 -68
	.byte	0x6
	.byte	0x23
	.uleb128 0x20
	.byte	0x6
	.byte	0x27
	.byte	0x3b
	.byte	0x14
	.byte	0x14
	.byte	0x24
	.byte	0x17
	.byte	0x1f
	.byte	0x23
	.uleb128 0x20
	.byte	0x25
	.byte	0x21
	.byte	0x27
	.byte	0x38
	.byte	0x14
	.byte	0x14
	.byte	0x24
	.byte	0x17
	.byte	0x1f
	.byte	0x23
	.uleb128 0x20
	.byte	0x25
	.byte	0x21
	.byte	0x9f
	.4byte	.LVL223-.Ltext0
	.4byte	.LVL229-.Ltext0
	.2byte	0x1
	.byte	0x53
	.4byte	.LVL229-.Ltext0
	.4byte	.LVL230-.Ltext0
	.2byte	0xa
	.byte	0x7c
	.sleb128 0
	.byte	0x20
	.byte	0x7b
	.sleb128 0
	.byte	0x1a
	.byte	0x73
	.sleb128 0
	.byte	0x27
	.byte	0x9f
	.4byte	.LVL230-.Ltext0
	.4byte	.LVL233-.Ltext0
	.2byte	0xc
	.byte	0x91
	.sleb128 -76
	.byte	0x6
	.byte	0x20
	.byte	0x7b
	.sleb128 0
	.byte	0x1a
	.byte	0x73
	.sleb128 0
	.byte	0x27
	.byte	0x9f
	.4byte	.LVL242-.Ltext0
	.4byte	.LVL256-.Ltext0
	.2byte	0x1
	.byte	0x5f
	.4byte	.LVL259-.Ltext0
	.4byte	.LVL270-.Ltext0
	.2byte	0x1
	.byte	0x53
	.4byte	.LVL270-.Ltext0
	.4byte	.LVL273-.Ltext0
	.2byte	0xc
	.byte	0x91
	.sleb128 -76
	.byte	0x6
	.byte	0x20
	.byte	0x75
	.sleb128 0
	.byte	0x1a
	.byte	0x73
	.sleb128 0
	.byte	0x27
	.byte	0x9f
	.4byte	.LVL279-.Ltext0
	.4byte	.LVL285-.Ltext0
	.2byte	0x1
	.byte	0x5a
	.4byte	.LVL296-.Ltext0
	.4byte	.LVL302-.Ltext0
	.2byte	0x1
	.byte	0x53
	.4byte	.LVL302-.Ltext0
	.4byte	.LVL306-.Ltext0
	.2byte	0xc
	.byte	0x91
	.sleb128 -76
	.byte	0x6
	.byte	0x20
	.byte	0x7b
	.sleb128 0
	.byte	0x1a
	.byte	0x73
	.sleb128 0
	.byte	0x27
	.byte	0x9f
	.4byte	.LVL317-.Ltext0
	.4byte	.LVL328-.Ltext0
	.2byte	0x1
	.byte	0x5f
	.4byte	.LVL331-.Ltext0
	.4byte	.LVL339-.Ltext0
	.2byte	0x1
	.byte	0x5f
	.4byte	.LVL339-.Ltext0
	.4byte	.LVL341-.Ltext0
	.2byte	0xa
	.byte	0x7d
	.sleb128 0
	.byte	0x20
	.byte	0x78
	.sleb128 0
	.byte	0x1a
	.byte	0x7f
	.sleb128 0
	.byte	0x27
	.byte	0x9f
	.4byte	.LVL341-.Ltext0
	.4byte	.LVL343-.Ltext0
	.2byte	0xc
	.byte	0x91
	.sleb128 -76
	.byte	0x6
	.byte	0x20
	.byte	0x78
	.sleb128 0
	.byte	0x1a
	.byte	0x7f
	.sleb128 0
	.byte	0x27
	.byte	0x9f
	.4byte	.LVL350-.Ltext0
	.4byte	.LVL364-.Ltext0
	.2byte	0x1
	.byte	0x53
	.4byte	.LVL366-.Ltext0
	.4byte	.LVL375-.Ltext0
	.2byte	0x1
	.byte	0x53
	.4byte	.LVL375-.Ltext0
	.4byte	.LVL376-.Ltext0
	.2byte	0xa
	.byte	0x7c
	.sleb128 0
	.byte	0x20
	.byte	0x76
	.sleb128 0
	.byte	0x1a
	.byte	0x73
	.sleb128 0
	.byte	0x27
	.byte	0x9f
	.4byte	.LVL376-.Ltext0
	.4byte	.LVL377-.Ltext0
	.2byte	0x17
	.byte	0x7e
	.sleb128 0
	.byte	0x9
	.byte	0xed
	.byte	0x27
	.byte	0x78
	.sleb128 0
	.byte	0x1a
	.byte	0x91
	.sleb128 -60
	.byte	0x6
	.byte	0x27
	.byte	0x38
	.byte	0x14
	.byte	0x14
	.byte	0x24
	.byte	0x17
	.byte	0x1f
	.byte	0x23
	.uleb128 0x20
	.byte	0x25
	.byte	0x21
	.byte	0x9f
	.4byte	.LVL377-.Ltext0
	.4byte	.LVL379-.Ltext0
	.2byte	0x14
	.byte	0x74
	.sleb128 0
	.byte	0x78
	.sleb128 0
	.byte	0x1a
	.byte	0x91
	.sleb128 -60
	.byte	0x6
	.byte	0x27
	.byte	0x38
	.byte	0x14
	.byte	0x14
	.byte	0x24
	.byte	0x17
	.byte	0x1f
	.byte	0x23
	.uleb128 0x20
	.byte	0x25
	.byte	0x21
	.byte	0x9f
	.4byte	.LVL384-.Ltext0
	.4byte	.LFE10-.Ltext0
	.2byte	0x1
	.byte	0x54
	.4byte	0
	.4byte	0
.LVUS71:
	.uleb128 .LVU472
	.uleb128 .LVU479
	.uleb128 .LVU514
	.uleb128 .LVU519
	.uleb128 .LVU519
	.uleb128 .LVU547
	.uleb128 .LVU547
	.uleb128 .LVU552
	.uleb128 .LVU552
	.uleb128 .LVU558
	.uleb128 .LVU558
	.uleb128 .LVU570
	.uleb128 .LVU570
	.uleb128 .LVU594
	.uleb128 .LVU594
	.uleb128 .LVU607
	.uleb128 .LVU607
	.uleb128 .LVU612
	.uleb128 .LVU612
	.uleb128 .LVU640
	.uleb128 .LVU640
	.uleb128 .LVU649
	.uleb128 .LVU667
	.uleb128 .LVU694
	.uleb128 .LVU712
	.uleb128 .LVU740
	.uleb128 .LVU762
	.uleb128 .LVU788
	.uleb128 .LVU805
	.uleb128 .LVU830
	.uleb128 .LVU830
	.uleb128 .LVU832
	.uleb128 .LVU832
	.uleb128 .LVU836
	.uleb128 .LVU857
	.uleb128 .LVU882
	.uleb128 .LVU899
	.uleb128 .LVU928
	.uleb128 .LVU928
	.uleb128 .LVU931
	.uleb128 .LVU951
	.uleb128 .LVU964
	.uleb128 .LVU993
	.uleb128 .LVU1006
	.uleb128 .LVU1006
	.uleb128 .LVU1007
	.uleb128 .LVU1007
	.uleb128 .LVU1019
	.uleb128 .LVU1019
	.uleb128 .LVU1026
	.uleb128 .LVU1026
	.uleb128 .LVU1044
.LLST71:
	.4byte	.LVL161-.Ltext0
	.4byte	.LVL166-.Ltext0
	.2byte	0x2
	.byte	0x91
	.sleb128 -20
	.4byte	.LVL185-.Ltext0
	.4byte	.LVL185-.Ltext0
	.2byte	0xb
	.byte	0x91
	.sleb128 -68
	.byte	0x6
	.byte	0x23
	.uleb128 0x2c
	.byte	0x6
	.byte	0x77
	.sleb128 0
	.byte	0x27
	.byte	0x9f
	.4byte	.LVL185-.Ltext0
	.4byte	.LVL196-.Ltext0
	.2byte	0x1
	.byte	0x54
	.4byte	.LVL196-.Ltext0
	.4byte	.LVL199-.Ltext0
	.2byte	0xc
	.byte	0x91
	.sleb128 -72
	.byte	0x6
	.byte	0x20
	.byte	0x7f
	.sleb128 0
	.byte	0x1a
	.byte	0x74
	.sleb128 0
	.byte	0x27
	.byte	0x9f
	.4byte	.LVL199-.Ltext0
	.4byte	.LVL202-.Ltext0
	.2byte	0x60
	.byte	0x72
	.sleb128 0
	.byte	0x74
	.sleb128 0
	.byte	0x27
	.byte	0x91
	.sleb128 -72
	.byte	0x6
	.byte	0x1a
	.byte	0x91
	.sleb128 -68
	.byte	0x6
	.byte	0x23
	.uleb128 0x4
	.byte	0x6
	.byte	0x91
	.sleb128 -68
	.byte	0x6
	.byte	0x23
	.uleb128 0x14
	.byte	0x6
	.byte	0x27
	.byte	0x91
	.sleb128 -68
	.byte	0x6
	.byte	0x23
	.uleb128 0x24
	.byte	0x6
	.byte	0x27
	.byte	0x35
	.byte	0x14
	.byte	0x14
	.byte	0x24
	.byte	0x17
	.byte	0x1f
	.byte	0x23
	.uleb128 0x20
	.byte	0x25
	.byte	0x21
	.byte	0x27
	.byte	0x91
	.sleb128 -68
	.byte	0x6
	.byte	0x23
	.uleb128 0x4
	.byte	0x6
	.byte	0x91
	.sleb128 -68
	.byte	0x6
	.byte	0x23
	.uleb128 0x14
	.byte	0x6
	.byte	0x27
	.byte	0x91
	.sleb128 -68
	.byte	0x6
	.byte	0x23
	.uleb128 0x24
	.byte	0x6
	.byte	0x27
	.byte	0x3e
	.byte	0x14
	.byte	0x14
	.byte	0x24
	.byte	0x17
	.byte	0x1f
	.byte	0x23
	.uleb128 0x20
	.byte	0x25
	.byte	0x21
	.byte	0x27
	.byte	0x91
	.sleb128 -68
	.byte	0x6
	.byte	0x23
	.uleb128 0x18
	.byte	0x6
	.byte	0x27
	.byte	0x91
	.sleb128 -72
	.byte	0x6
	.byte	0x20
	.byte	0x1a
	.byte	0x74
	.sleb128 0
	.byte	0x27
	.byte	0x9f
	.4byte	.LVL202-.Ltext0
	.4byte	.LVL207-.Ltext0
	.2byte	0x106
	.byte	0x91
	.sleb128 -68
	.byte	0x6
	.byte	0x23
	.uleb128 0x8
	.byte	0x6
	.byte	0x91
	.sleb128 -68
	.byte	0x6
	.byte	0x23
	.uleb128 0x18
	.byte	0x6
	.byte	0x27
	.byte	0x91
	.sleb128 -68
	.byte	0x6
	.byte	0x23
	.uleb128 0x28
	.byte	0x6
	.byte	0x27
	.byte	0x35
	.byte	0x14
	.byte	0x14
	.byte	0x24
	.byte	0x17
	.byte	0x1f
	.byte	0x23
	.uleb128 0x20
	.byte	0x25
	.byte	0x21
	.byte	0x91
	.sleb128 -68
	.byte	0x6
	.byte	0x23
	.uleb128 0x8
	.byte	0x6
	.byte	0x91
	.sleb128 -68
	.byte	0x6
	.byte	0x23
	.uleb128 0x18
	.byte	0x6
	.byte	0x27
	.byte	0x91
	.sleb128 -68
	.byte	0x6
	.byte	0x23
	.uleb128 0x28
	.byte	0x6
	.byte	0x27
	.byte	0x3e
	.byte	0x14
	.byte	0x14
	.byte	0x24
	.byte	0x17
	.byte	0x1f
	.byte	0x23
	.uleb128 0x20
	.byte	0x25
	.byte	0x21
	.byte	0x27
	.byte	0x91
	.sleb128 -68
	.byte	0x6
	.byte	0x23
	.uleb128 0x2c
	.byte	0x6
	.byte	0x27
	.byte	0x3b
	.byte	0x14
	.byte	0x14
	.byte	0x24
	.byte	0x17
	.byte	0x1f
	.byte	0x23
	.uleb128 0x20
	.byte	0x25
	.byte	0x21
	.byte	0x72
	.sleb128 0
	.byte	0x27
	.byte	0x91
	.sleb128 -72
	.byte	0x6
	.byte	0x1a
	.byte	0x91
	.sleb128 -68
	.byte	0x6
	.byte	0x23
	.uleb128 0x4
	.byte	0x6
	.byte	0x91
	.sleb128 -68
	.byte	0x6
	.byte	0x23
	.uleb128 0x14
	.byte	0x6
	.byte	0x27
	.byte	0x91
	.sleb128 -68
	.byte	0x6
	.byte	0x23
	.uleb128 0x24
	.byte	0x6
	.byte	0x27
	.byte	0x35
	.byte	0x14
	.byte	0x14
	.byte	0x24
	.byte	0x17
	.byte	0x1f
	.byte	0x23
	.uleb128 0x20
	.byte	0x25
	.byte	0x21
	.byte	0x27
	.byte	0x91
	.sleb128 -68
	.byte	0x6
	.byte	0x23
	.uleb128 0x4
	.byte	0x6
	.byte	0x91
	.sleb128 -68
	.byte	0x6
	.byte	0x23
	.uleb128 0x14
	.byte	0x6
	.byte	0x27
	.byte	0x91
	.sleb128 -68
	.byte	0x6
	.byte	0x23
	.uleb128 0x24
	.byte	0x6
	.byte	0x27
	.byte	0x3e
	.byte	0x14
	.byte	0x14
	.byte	0x24
	.byte	0x17
	.byte	0x1f
	.byte	0x23
	.uleb128 0x20
	.byte	0x25
	.byte	0x21
	.byte	0x27
	.byte	0x91
	.sleb128 -68
	.byte	0x6
	.byte	0x23
	.uleb128 0x18
	.byte	0x6
	.byte	0x27
	.byte	0x91
	.sleb128 -72
	.byte	0x6
	.byte	0x20
	.byte	0x1a
	.byte	0x91
	.sleb128 -68
	.byte	0x6
	.byte	0x23
	.uleb128 0x8
	.byte	0x6
	.byte	0x91
	.sleb128 -68
	.byte	0x6
	.byte	0x23
	.uleb128 0x18
	.byte	0x6
	.byte	0x27
	.byte	0x91
	.sleb128 -68
	.byte	0x6
	.byte	0x23
	.uleb128 0x28
	.byte	0x6
	.byte	0x27
	.byte	0x35
	.byte	0x14
	.byte	0x14
	.byte	0x24
	.byte	0x17
	.byte	0x1f
	.byte	0x23
	.uleb128 0x20
	.byte	0x25
	.byte	0x21
	.byte	0x91
	.sleb128 -68
	.byte	0x6
	.byte	0x23
	.uleb128 0x8
	.byte	0x6
	.byte	0x91
	.sleb128 -68
	.byte	0x6
	.byte	0x23
	.uleb128 0x18
	.byte	0x6
	.byte	0x27
	.byte	0x91
	.sleb128 -68
	.byte	0x6
	.byte	0x23
	.uleb128 0x28
	.byte	0x6
	.byte	0x27
	.byte	0x3e
	.byte	0x14
	.byte	0x14
	.byte	0x24
	.byte	0x17
	.byte	0x1f
	.byte	0x23
	.uleb128 0x20
	.byte	0x25
	.byte	0x21
	.byte	0x27
	.byte	0x91
	.sleb128 -68
	.byte	0x6
	.byte	0x23
	.uleb128 0x2c
	.byte	0x6
	.byte	0x27
	.byte	0x3b
	.byte	0x14
	.byte	0x14
	.byte	0x24
	.byte	0x17
	.byte	0x1f
	.byte	0x23
	.uleb128 0x20
	.byte	0x25
	.byte	0x21
	.byte	0x27
	.byte	0x9f
	.4byte	.LVL207-.Ltext0
	.4byte	.LVL221-.Ltext0
	.2byte	0x1
	.byte	0x56
	.4byte	.LVL221-.Ltext0
	.4byte	.LVL223-.Ltext0
	.2byte	0x108
	.byte	0x72
	.sleb128 0
	.byte	0x71
	.sleb128 0
	.byte	0x6
	.byte	0x27
	.byte	0x91
	.sleb128 -68
	.byte	0x6
	.byte	0x6
	.byte	0x91
	.sleb128 -68
	.byte	0x6
	.byte	0x23
	.uleb128 0x10
	.byte	0x6
	.byte	0x27
	.byte	0x91
	.sleb128 -68
	.byte	0x6
	.byte	0x23
	.uleb128 0x20
	.byte	0x6
	.byte	0x27
	.byte	0x35
	.byte	0x14
	.byte	0x14
	.byte	0x24
	.byte	0x17
	.byte	0x1f
	.byte	0x23
	.uleb128 0x20
	.byte	0x25
	.byte	0x21
	.byte	0x91
	.sleb128 -68
	.byte	0x6
	.byte	0x6
	.byte	0x91
	.sleb128 -68
	.byte	0x6
	.byte	0x23
	.uleb128 0x10
	.byte	0x6
	.byte	0x27
	.byte	0x91
	.sleb128 -68
	.byte	0x6
	.byte	0x23
	.uleb128 0x20
	.byte	0x6
	.byte	0x27
	.byte	0x3e
	.byte	0x14
	.byte	0x14
	.byte	0x24
	.byte	0x17
	.byte	0x1f
	.byte	0x23
	.uleb128 0x20
	.byte	0x25
	.byte	0x21
	.byte	0x27
	.byte	0x91
	.sleb128 -68
	.byte	0x6
	.byte	0x23
	.uleb128 0x24
	.byte	0x6
	.byte	0x27
	.byte	0x3b
	.byte	0x14
	.byte	0x14
	.byte	0x24
	.byte	0x17
	.byte	0x1f
	.byte	0x23
	.uleb128 0x20
	.byte	0x25
	.byte	0x21
	.byte	0x72
	.sleb128 0
	.byte	0x27
	.byte	0x71
	.sleb128 0
	.byte	0x6
	.byte	0x1a
	.byte	0x91
	.sleb128 -68
	.byte	0x6
	.byte	0x23
	.uleb128 0xc
	.byte	0x6
	.byte	0x91
	.sleb128 -68
	.byte	0x6
	.byte	0x23
	.uleb128 0x1c
	.byte	0x6
	.byte	0x27
	.byte	0x91
	.sleb128 -68
	.byte	0x6
	.byte	0x23
	.uleb128 0x2c
	.byte	0x6
	.byte	0x27
	.byte	0x35
	.byte	0x14
	.byte	0x14
	.byte	0x24
	.byte	0x17
	.byte	0x1f
	.byte	0x23
	.uleb128 0x20
	.byte	0x25
	.byte	0x21
	.byte	0x27
	.byte	0x91
	.sleb128 -68
	.byte	0x6
	.byte	0x23
	.uleb128 0xc
	.byte	0x6
	.byte	0x91
	.sleb128 -68
	.byte	0x6
	.byte	0x23
	.uleb128 0x1c
	.byte	0x6
	.byte	0x27
	.byte	0x91
	.sleb128 -68
	.byte	0x6
	.byte	0x23
	.uleb128 0x2c
	.byte	0x6
	.byte	0x27
	.byte	0x3e
	.byte	0x14
	.byte	0x14
	.byte	0x24
	.byte	0x17
	.byte	0x1f
	.byte	0x23
	.uleb128 0x20
	.byte	0x25
	.byte	0x21
	.byte	0x27
	.byte	0x91
	.sleb128 -68
	.byte	0x6
	.byte	0x23
	.uleb128 0x10
	.byte	0x6
	.byte	0x27
	.byte	0x1a
	.byte	0x91
	.sleb128 -68
	.byte	0x6
	.byte	0x6
	.byte	0x91
	.sleb128 -68
	.byte	0x6
	.byte	0x23
	.uleb128 0x10
	.byte	0x6
	.byte	0x27
	.byte	0x91
	.sleb128 -68
	.byte	0x6
	.byte	0x23
	.uleb128 0x20
	.byte	0x6
	.byte	0x27
	.byte	0x35
	.byte	0x14
	.byte	0x14
	.byte	0x24
	.byte	0x17
	.byte	0x1f
	.byte	0x23
	.uleb128 0x20
	.byte	0x25
	.byte	0x21
	.byte	0x91
	.sleb128 -68
	.byte	0x6
	.byte	0x6
	.byte	0x91
	.sleb128 -68
	.byte	0x6
	.byte	0x23
	.uleb128 0x10
	.byte	0x6
	.byte	0x27
	.byte	0x91
	.sleb128 -68
	.byte	0x6
	.byte	0x23
	.uleb128 0x20
	.byte	0x6
	.byte	0x27
	.byte	0x3e
	.byte	0x14
	.byte	0x14
	.byte	0x24
	.byte	0x17
	.byte	0x1f
	.byte	0x23
	.uleb128 0x20
	.byte	0x25
	.byte	0x21
	.byte	0x27
	.byte	0x91
	.sleb128 -68
	.byte	0x6
	.byte	0x23
	.uleb128 0x24
	.byte	0x6
	.byte	0x27
	.byte	0x3b
	.byte	0x14
	.byte	0x14
	.byte	0x24
	.byte	0x17
	.byte	0x1f
	.byte	0x23
	.uleb128 0x20
	.byte	0x25
	.byte	0x21
	.byte	0x27
	.byte	0x38
	.byte	0x14
	.byte	0x14
	.byte	0x24
	.byte	0x17
	.byte	0x1f
	.byte	0x23
	.uleb128 0x20
	.byte	0x25
	.byte	0x21
	.byte	0x9f
	.4byte	.LVL223-.Ltext0
	.4byte	.LVL223-.Ltext0
	.2byte	0x48a
	.byte	0x91
	.sleb128 -68
	.byte	0x6
	.byte	0x6
	.byte	0x91
	.sleb128 -68
	.byte	0x6
	.byte	0x23
	.uleb128 0x10
	.byte	0x6
	.byte	0x27
	.byte	0x91
	.sleb128 -68
	.byte	0x6
	.byte	0x23
	.uleb128 0x20
	.byte	0x6
	.byte	0x27
	.byte	0x35
	.byte	0x14
	.byte	0x14
	.byte	0x24
	.byte	0x17
	.byte	0x1f
	.byte	0x23
	.uleb128 0x20
	.byte	0x25
	.byte	0x21
	.byte	0x91
	.sleb128 -68
	.byte	0x6
	.byte	0x6
	.byte	0x91
	.sleb128 -68
	.byte	0x6
	.byte	0x23
	.uleb128 0x10
	.byte	0x6
	.byte	0x27
	.byte	0x91
	.sleb128 -68
	.byte	0x6
	.byte	0x23
	.uleb128 0x20
	.byte	0x6
	.byte	0x27
	.byte	0x3e
	.byte	0x14
	.byte	0x14
	.byte	0x24
	.byte	0x17
	.byte	0x1f
	.byte	0x23
	.uleb128 0x20
	.byte	0x25
	.byte	0x21
	.byte	0x27
	.byte	0x91
	.sleb128 -68
	.byte	0x6
	.byte	0x23
	.uleb128 0x14
	.byte	0x6
	.byte	0x27
	.byte	0x72
	.sleb128 0
	.byte	0x27
	.byte	0x91
	.sleb128 -68
	.byte	0x6
	.byte	0x23
	.uleb128 0x4
	.byte	0x6
	.byte	0x91
	.sleb128 -68
	.byte	0x6
	.byte	0x23
	.uleb128 0x14
	.byte	0x6
	.byte	0x27
	.byte	0x91
	.sleb128 -68
	.byte	0x6
	.byte	0x23
	.uleb128 0x24
	.byte	0x6
	.byte	0x27
	.byte	0x35
	.byte	0x14
	.byte	0x14
	.byte	0x24
	.byte	0x17
	.byte	0x1f
	.byte	0x23
	.uleb128 0x20
	.byte	0x25
	.byte	0x21
	.byte	0x91
	.sleb128 -68
	.byte	0x6
	.byte	0x23
	.uleb128 0x4
	.byte	0x6
	.byte	0x91
	.sleb128 -68
	.byte	0x6
	.byte	0x23
	.uleb128 0x14
	.byte	0x6
	.byte	0x27
	.byte	0x91
	.sleb128 -68
	.byte	0x6
	.byte	0x23
	.uleb128 0x24
	.byte	0x6
	.byte	0x27
	.byte	0x3e
	.byte	0x14
	.byte	0x14
	.byte	0x24
	.byte	0x17
	.byte	0x1f
	.byte	0x23
	.uleb128 0x20
	.byte	0x25
	.byte	0x21
	.byte	0x27
	.byte	0x91
	.sleb128 -68
	.byte	0x6
	.byte	0x23
	.uleb128 0x28
	.byte	0x6
	.byte	0x27
	.byte	0x3b
	.byte	0x14
	.byte	0x14
	.byte	0x24
	.byte	0x17
	.byte	0x1f
	.byte	0x23
	.uleb128 0x20
	.byte	0x25
	.byte	0x21
	.byte	0x1a
	.byte	0x91
	.sleb128 -68
	.byte	0x6
	.byte	0x23
	.uleb128 0x4
	.byte	0x6
	.byte	0x91
	.sleb128 -68
	.byte	0x6
	.byte	0x23
	.uleb128 0x14
	.byte	0x6
	.byte	0x27
	.byte	0x91
	.sleb128 -68
	.byte	0x6
	.byte	0x23
	.uleb128 0x24
	.byte	0x6
	.byte	0x27
	.byte	0x35
	.byte	0x14
	.byte	0x14
	.byte	0x24
	.byte	0x17
	.byte	0x1f
	.byte	0x23
	.uleb128 0x20
	.byte	0x25
	.byte	0x21
	.byte	0x27
	.byte	0x91
	.sleb128 -68
	.byte	0x6
	.byte	0x23
	.uleb128 0x4
	.byte	0x6
	.byte	0x91
	.sleb128 -68
	.byte	0x6
	.byte	0x23
	.uleb128 0x14
	.byte	0x6
	.byte	0x27
	.byte	0x91
	.sleb128 -68
	.byte	0x6
	.byte	0x23
	.uleb128 0x24
	.byte	0x6
	.byte	0x27
	.byte	0x3e
	.byte	0x14
	.byte	0x14
	.byte	0x24
	.byte	0x17
	.byte	0x1f
	.byte	0x23
	.uleb128 0x20
	.byte	0x25
	.byte	0x21
	.byte	0x27
	.byte	0x91
	.sleb128 -68
	.byte	0x6
	.byte	0x23
	.uleb128 0xc
	.byte	0x6
	.byte	0x91
	.sleb128 -68
	.byte	0x6
	.byte	0x23
	.uleb128 0x1c
	.byte	0x6
	.byte	0x27
	.byte	0x91
	.sleb128 -68
	.byte	0x6
	.byte	0x23
	.uleb128 0x2c
	.byte	0x6
	.byte	0x27
	.byte	0x35
	.byte	0x14
	.byte	0x14
	.byte	0x24
	.byte	0x17
	.byte	0x1f
	.byte	0x23
	.uleb128 0x20
	.byte	0x25
	.byte	0x21
	.byte	0x91
	.sleb128 -68
	.byte	0x6
	.byte	0x23
	.uleb128 0xc
	.byte	0x6
	.byte	0x91
	.sleb128 -68
	.byte	0x6
	.byte	0x23
	.uleb128 0x1c
	.byte	0x6
	.byte	0x27
	.byte	0x91
	.sleb128 -68
	.byte	0x6
	.byte	0x23
	.uleb128 0x2c
	.byte	0x6
	.byte	0x27
	.byte	0x3e
	.byte	0x14
	.byte	0x14
	.byte	0x24
	.byte	0x17
	.byte	0x1f
	.byte	0x23
	.uleb128 0x20
	.byte	0x25
	.byte	0x21
	.byte	0x27
	.byte	0x91
	.sleb128 -68
	.byte	0x6
	.byte	0x23
	.uleb128 0x20
	.byte	0x6
	.byte	0x27
	.byte	0x3b
	.byte	0x14
	.byte	0x14
	.byte	0x24
	.byte	0x17
	.byte	0x1f
	.byte	0x23
	.uleb128 0x20
	.byte	0x25
	.byte	0x21
	.byte	0x72
	.sleb128 0
	.byte	0x27
	.byte	0x91
	.sleb128 -56
	.byte	0x6
	.byte	0x1a
	.byte	0x91
	.sleb128 -48
	.byte	0x6
	.byte	0x27
	.byte	0x91
	.sleb128 -56
	.byte	0x6
	.byte	0x20
	.byte	0x1a
	.byte	0x91
	.sleb128 -68
	.byte	0x6
	.byte	0x23
	.uleb128 0xc
	.byte	0x6
	.byte	0x91
	.sleb128 -68
	.byte	0x6
	.byte	0x23
	.uleb128 0x1c
	.byte	0x6
	.byte	0x27
	.byte	0x91
	.sleb128 -68
	.byte	0x6
	.byte	0x23
	.uleb128 0x2c
	.byte	0x6
	.byte	0x27
	.byte	0x35
	.byte	0x14
	.byte	0x14
	.byte	0x24
	.byte	0x17
	.byte	0x1f
	.byte	0x23
	.uleb128 0x20
	.byte	0x25
	.byte	0x21
	.byte	0x91
	.sleb128 -68
	.byte	0x6
	.byte	0x23
	.uleb128 0xc
	.byte	0x6
	.byte	0x91
	.sleb128 -68
	.byte	0x6
	.byte	0x23
	.uleb128 0x1c
	.byte	0x6
	.byte	0x27
	.byte	0x91
	.sleb128 -68
	.byte	0x6
	.byte	0x23
	.uleb128 0x2c
	.byte	0x6
	.byte	0x27
	.byte	0x3e
	.byte	0x14
	.byte	0x14
	.byte	0x24
	.byte	0x17
	.byte	0x1f
	.byte	0x23
	.uleb128 0x20
	.byte	0x25
	.byte	0x21
	.byte	0x27
	.byte	0x91
	.sleb128 -68
	.byte	0x6
	.byte	0x23
	.uleb128 0x20
	.byte	0x6
	.byte	0x27
	.byte	0x3b
	.byte	0x14
	.byte	0x14
	.byte	0x24
	.byte	0x17
	.byte	0x1f
	.byte	0x23
	.uleb128 0x20
	.byte	0x25
	.byte	0x21
	.byte	0x27
	.byte	0x38
	.byte	0x14
	.byte	0x14
	.byte	0x24
	.byte	0x17
	.byte	0x1f
	.byte	0x23
	.uleb128 0x20
	.byte	0x25
	.byte	0x21
	.byte	0x27
	.byte	0x91
	.sleb128 -68
	.byte	0x6
	.byte	0x23
	.uleb128 0x8
	.byte	0x6
	.byte	0x27
	.byte	0x91
	.sleb128 -64
	.byte	0x6
	.byte	0x27
	.byte	0x35
	.byte	0x14
	.byte	0x14
	.byte	0x24
	.byte	0x17
	.byte	0x1f
	.byte	0x23
	.uleb128 0x20
	.byte	0x25
	.byte	0x21
	.byte	0x91
	.sleb128 -68
	.byte	0x6
	.byte	0x6
	.byte	0x91
	.sleb128 -68
	.byte	0x6
	.byte	0x23
	.uleb128 0x10
	.byte	0x6
	.byte	0x27
	.byte	0x91
	.sleb128 -68
	.byte	0x6
	.byte	0x23
	.uleb128 0x20
	.byte	0x6
	.byte	0x27
	.byte	0x35
	.byte	0x14
	.byte	0x14
	.byte	0x24
	.byte	0x17
	.byte	0x1f
	.byte	0x23
	.uleb128 0x20
	.byte	0x25
	.byte	0x21
	.byte	0x91
	.sleb128 -68
	.byte	0x6
	.byte	0x6
	.byte	0x91
	.sleb128 -68
	.byte	0x6
	.byte	0x23
	.uleb128 0x10
	.byte	0x6
	.byte	0x27
	.byte	0x91
	.sleb128 -68
	.byte	0x6
	.byte	0x23
	.uleb128 0x20
	.byte	0x6
	.byte	0x27
	.byte	0x3e
	.byte	0x14
	.byte	0x14
	.byte	0x24
	.byte	0x17
	.byte	0x1f
	.byte	0x23
	.uleb128 0x20
	.byte	0x25
	.byte	0x21
	.byte	0x27
	.byte	0x91
	.sleb128 -68
	.byte	0x6
	.byte	0x23
	.uleb128 0x14
	.byte	0x6
	.byte	0x27
	.byte	0x72
	.sleb128 0
	.byte	0x27
	.byte	0x91
	.sleb128 -68
	.byte	0x6
	.byte	0x23
	.uleb128 0x4
	.byte	0x6
	.byte	0x91
	.sleb128 -68
	.byte	0x6
	.byte	0x23
	.uleb128 0x14
	.byte	0x6
	.byte	0x27
	.byte	0x91
	.sleb128 -68
	.byte	0x6
	.byte	0x23
	.uleb128 0x24
	.byte	0x6
	.byte	0x27
	.byte	0x35
	.byte	0x14
	.byte	0x14
	.byte	0x24
	.byte	0x17
	.byte	0x1f
	.byte	0x23
	.uleb128 0x20
	.byte	0x25
	.byte	0x21
	.byte	0x91
	.sleb128 -68
	.byte	0x6
	.byte	0x23
	.uleb128 0x4
	.byte	0x6
	.byte	0x91
	.sleb128 -68
	.byte	0x6
	.byte	0x23
	.uleb128 0x14
	.byte	0x6
	.byte	0x27
	.byte	0x91
	.sleb128 -68
	.byte	0x6
	.byte	0x23
	.uleb128 0x24
	.byte	0x6
	.byte	0x27
	.byte	0x3e
	.byte	0x14
	.byte	0x14
	.byte	0x24
	.byte	0x17
	.byte	0x1f
	.byte	0x23
	.uleb128 0x20
	.byte	0x25
	.byte	0x21
	.byte	0x27
	.byte	0x91
	.sleb128 -68
	.byte	0x6
	.byte	0x23
	.uleb128 0x28
	.byte	0x6
	.byte	0x27
	.byte	0x3b
	.byte	0x14
	.byte	0x14
	.byte	0x24
	.byte	0x17
	.byte	0x1f
	.byte	0x23
	.uleb128 0x20
	.byte	0x25
	.byte	0x21
	.byte	0x1a
	.byte	0x91
	.sleb128 -68
	.byte	0x6
	.byte	0x23
	.uleb128 0x4
	.byte	0x6
	.byte	0x91
	.sleb128 -68
	.byte	0x6
	.byte	0x23
	.uleb128 0x14
	.byte	0x6
	.byte	0x27
	.byte	0x91
	.sleb128 -68
	.byte	0x6
	.byte	0x23
	.uleb128 0x24
	.byte	0x6
	.byte	0x27
	.byte	0x35
	.byte	0x14
	.byte	0x14
	.byte	0x24
	.byte	0x17
	.byte	0x1f
	.byte	0x23
	.uleb128 0x20
	.byte	0x25
	.byte	0x21
	.byte	0x27
	.byte	0x91
	.sleb128 -68
	.byte	0x6
	.byte	0x23
	.uleb128 0x4
	.byte	0x6
	.byte	0x91
	.sleb128 -68
	.byte	0x6
	.byte	0x23
	.uleb128 0x14
	.byte	0x6
	.byte	0x27
	.byte	0x91
	.sleb128 -68
	.byte	0x6
	.byte	0x23
	.uleb128 0x24
	.byte	0x6
	.byte	0x27
	.byte	0x3e
	.byte	0x14
	.byte	0x14
	.byte	0x24
	.byte	0x17
	.byte	0x1f
	.byte	0x23
	.uleb128 0x20
	.byte	0x25
	.byte	0x21
	.byte	0x27
	.byte	0x91
	.sleb128 -68
	.byte	0x6
	.byte	0x23
	.uleb128 0xc
	.byte	0x6
	.byte	0x91
	.sleb128 -68
	.byte	0x6
	.byte	0x23
	.uleb128 0x1c
	.byte	0x6
	.byte	0x27
	.byte	0x91
	.sleb128 -68
	.byte	0x6
	.byte	0x23
	.uleb128 0x2c
	.byte	0x6
	.byte	0x27
	.byte	0x35
	.byte	0x14
	.byte	0x14
	.byte	0x24
	.byte	0x17
	.byte	0x1f
	.byte	0x23
	.uleb128 0x20
	.byte	0x25
	.byte	0x21
	.byte	0x91
	.sleb128 -68
	.byte	0x6
	.byte	0x23
	.uleb128 0xc
	.byte	0x6
	.byte	0x91
	.sleb128 -68
	.byte	0x6
	.byte	0x23
	.uleb128 0x1c
	.byte	0x6
	.byte	0x27
	.byte	0x91
	.sleb128 -68
	.byte	0x6
	.byte	0x23
	.uleb128 0x2c
	.byte	0x6
	.byte	0x27
	.byte	0x3e
	.byte	0x14
	.byte	0x14
	.byte	0x24
	.byte	0x17
	.byte	0x1f
	.byte	0x23
	.uleb128 0x20
	.byte	0x25
	.byte	0x21
	.byte	0x27
	.byte	0x91
	.sleb128 -68
	.byte	0x6
	.byte	0x23
	.uleb128 0x20
	.byte	0x6
	.byte	0x27
	.byte	0x3b
	.byte	0x14
	.byte	0x14
	.byte	0x24
	.byte	0x17
	.byte	0x1f
	.byte	0x23
	.uleb128 0x20
	.byte	0x25
	.byte	0x21
	.byte	0x72
	.sleb128 0
	.byte	0x27
	.byte	0x91
	.sleb128 -56
	.byte	0x6
	.byte	0x1a
	.byte	0x91
	.sleb128 -48
	.byte	0x6
	.byte	0x27
	.byte	0x91
	.sleb128 -56
	.byte	0x6
	.byte	0x20
	.byte	0x1a
	.byte	0x91
	.sleb128 -68
	.byte	0x6
	.byte	0x23
	.uleb128 0xc
	.byte	0x6
	.byte	0x91
	.sleb128 -68
	.byte	0x6
	.byte	0x23
	.uleb128 0x1c
	.byte	0x6
	.byte	0x27
	.byte	0x91
	.sleb128 -68
	.byte	0x6
	.byte	0x23
	.uleb128 0x2c
	.byte	0x6
	.byte	0x27
	.byte	0x35
	.byte	0x14
	.byte	0x14
	.byte	0x24
	.byte	0x17
	.byte	0x1f
	.byte	0x23
	.uleb128 0x20
	.byte	0x25
	.byte	0x21
	.byte	0x91
	.sleb128 -68
	.byte	0x6
	.byte	0x23
	.uleb128 0xc
	.byte	0x6
	.byte	0x91
	.sleb128 -68
	.byte	0x6
	.byte	0x23
	.uleb128 0x1c
	.byte	0x6
	.byte	0x27
	.byte	0x91
	.sleb128 -68
	.byte	0x6
	.byte	0x23
	.uleb128 0x2c
	.byte	0x6
	.byte	0x27
	.byte	0x3e
	.byte	0x14
	.byte	0x14
	.byte	0x24
	.byte	0x17
	.byte	0x1f
	.byte	0x23
	.uleb128 0x20
	.byte	0x25
	.byte	0x21
	.byte	0x27
	.byte	0x91
	.sleb128 -68
	.byte	0x6
	.byte	0x23
	.uleb128 0x20
	.byte	0x6
	.byte	0x27
	.byte	0x3b
	.byte	0x14
	.byte	0x14
	.byte	0x24
	.byte	0x17
	.byte	0x1f
	.byte	0x23
	.uleb128 0x20
	.byte	0x25
	.byte	0x21
	.byte	0x27
	.byte	0x38
	.byte	0x14
	.byte	0x14
	.byte	0x24
	.byte	0x17
	.byte	0x1f
	.byte	0x23
	.uleb128 0x20
	.byte	0x25
	.byte	0x21
	.byte	0x27
	.byte	0x91
	.sleb128 -68
	.byte	0x6
	.byte	0x23
	.uleb128 0x8
	.byte	0x6
	.byte	0x27
	.byte	0x91
	.sleb128 -64
	.byte	0x6
	.byte	0x27
	.byte	0x3e
	.byte	0x14
	.byte	0x14
	.byte	0x24
	.byte	0x17
	.byte	0x1f
	.byte	0x23
	.uleb128 0x20
	.byte	0x25
	.byte	0x21
	.byte	0x27
	.byte	0x72
	.sleb128 0
	.byte	0x71
	.sleb128 0
	.byte	0x6
	.byte	0x27
	.byte	0x91
	.sleb128 -68
	.byte	0x6
	.byte	0x6
	.byte	0x91
	.sleb128 -68
	.byte	0x6
	.byte	0x23
	.uleb128 0x10
	.byte	0x6
	.byte	0x27
	.byte	0x91
	.sleb128 -68
	.byte	0x6
	.byte	0x23
	.uleb128 0x20
	.byte	0x6
	.byte	0x27
	.byte	0x35
	.byte	0x14
	.byte	0x14
	.byte	0x24
	.byte	0x17
	.byte	0x1f
	.byte	0x23
	.uleb128 0x20
	.byte	0x25
	.byte	0x21
	.byte	0x91
	.sleb128 -68
	.byte	0x6
	.byte	0x6
	.byte	0x91
	.sleb128 -68
	.byte	0x6
	.byte	0x23
	.uleb128 0x10
	.byte	0x6
	.byte	0x27
	.byte	0x91
	.sleb128 -68
	.byte	0x6
	.byte	0x23
	.uleb128 0x20
	.byte	0x6
	.byte	0x27
	.byte	0x3e
	.byte	0x14
	.byte	0x14
	.byte	0x24
	.byte	0x17
	.byte	0x1f
	.byte	0x23
	.uleb128 0x20
	.byte	0x25
	.byte	0x21
	.byte	0x27
	.byte	0x91
	.sleb128 -68
	.byte	0x6
	.byte	0x23
	.uleb128 0x24
	.byte	0x6
	.byte	0x27
	.byte	0x3b
	.byte	0x14
	.byte	0x14
	.byte	0x24
	.byte	0x17
	.byte	0x1f
	.byte	0x23
	.uleb128 0x20
	.byte	0x25
	.byte	0x21
	.byte	0x72
	.sleb128 0
	.byte	0x27
	.byte	0x71
	.sleb128 0
	.byte	0x6
	.byte	0x1a
	.byte	0x91
	.sleb128 -68
	.byte	0x6
	.byte	0x23
	.uleb128 0xc
	.byte	0x6
	.byte	0x91
	.sleb128 -68
	.byte	0x6
	.byte	0x23
	.uleb128 0x1c
	.byte	0x6
	.byte	0x27
	.byte	0x91
	.sleb128 -68
	.byte	0x6
	.byte	0x23
	.uleb128 0x2c
	.byte	0x6
	.byte	0x27
	.byte	0x35
	.byte	0x14
	.byte	0x14
	.byte	0x24
	.byte	0x17
	.byte	0x1f
	.byte	0x23
	.uleb128 0x20
	.byte	0x25
	.byte	0x21
	.byte	0x27
	.byte	0x91
	.sleb128 -68
	.byte	0x6
	.byte	0x23
	.uleb128 0xc
	.byte	0x6
	.byte	0x91
	.sleb128 -68
	.byte	0x6
	.byte	0x23
	.uleb128 0x1c
	.byte	0x6
	.byte	0x27
	.byte	0x91
	.sleb128 -68
	.byte	0x6
	.byte	0x23
	.uleb128 0x2c
	.byte	0x6
	.byte	0x27
	.byte	0x3e
	.byte	0x14
	.byte	0x14
	.byte	0x24
	.byte	0x17
	.byte	0x1f
	.byte	0x23
	.uleb128 0x20
	.byte	0x25
	.byte	0x21
	.byte	0x27
	.byte	0x91
	.sleb128 -68
	.byte	0x6
	.byte	0x23
	.uleb128 0x10
	.byte	0x6
	.byte	0x27
	.byte	0x1a
	.byte	0x91
	.sleb128 -68
	.byte	0x6
	.byte	0x6
	.byte	0x91
	.sleb128 -68
	.byte	0x6
	.byte	0x23
	.uleb128 0x10
	.byte	0x6
	.byte	0x27
	.byte	0x91
	.sleb128 -68
	.byte	0x6
	.byte	0x23
	.uleb128 0x20
	.byte	0x6
	.byte	0x27
	.byte	0x35
	.byte	0x14
	.byte	0x14
	.byte	0x24
	.byte	0x17
	.byte	0x1f
	.byte	0x23
	.uleb128 0x20
	.byte	0x25
	.byte	0x21
	.byte	0x91
	.sleb128 -68
	.byte	0x6
	.byte	0x6
	.byte	0x91
	.sleb128 -68
	.byte	0x6
	.byte	0x23
	.uleb128 0x10
	.byte	0x6
	.byte	0x27
	.byte	0x91
	.sleb128 -68
	.byte	0x6
	.byte	0x23
	.uleb128 0x20
	.byte	0x6
	.byte	0x27
	.byte	0x3e
	.byte	0x14
	.byte	0x14
	.byte	0x24
	.byte	0x17
	.byte	0x1f
	.byte	0x23
	.uleb128 0x20
	.byte	0x25
	.byte	0x21
	.byte	0x27
	.byte	0x91
	.sleb128 -68
	.byte	0x6
	.byte	0x23
	.uleb128 0x24
	.byte	0x6
	.byte	0x27
	.byte	0x3b
	.byte	0x14
	.byte	0x14
	.byte	0x24
	.byte	0x17
	.byte	0x1f
	.byte	0x23
	.uleb128 0x20
	.byte	0x25
	.byte	0x21
	.byte	0x27
	.byte	0x38
	.byte	0x14
	.byte	0x14
	.byte	0x24
	.byte	0x17
	.byte	0x1f
	.byte	0x23
	.uleb128 0x20
	.byte	0x25
	.byte	0x21
	.byte	0x27
	.byte	0x9f
	.4byte	.LVL223-.Ltext0
	.4byte	.LVL231-.Ltext0
	.2byte	0x1
	.byte	0x56
	.4byte	.LVL231-.Ltext0
	.4byte	.LVL237-.Ltext0
	.2byte	0xc
	.byte	0x91
	.sleb128 -72
	.byte	0x6
	.byte	0x20
	.byte	0x7d
	.sleb128 0
	.byte	0x1a
	.byte	0x76
	.sleb128 0
	.byte	0x27
	.byte	0x9f
	.4byte	.LVL242-.Ltext0
	.4byte	.LVL258-.Ltext0
	.2byte	0x1
	.byte	0x54
	.4byte	.LVL259-.Ltext0
	.4byte	.LVL270-.Ltext0
	.2byte	0x1
	.byte	0x54
	.4byte	.LVL279-.Ltext0
	.4byte	.LVL294-.Ltext0
	.2byte	0x1
	.byte	0x56
	.4byte	.LVL296-.Ltext0
	.4byte	.LVL304-.Ltext0
	.2byte	0x1
	.byte	0x56
	.4byte	.LVL304-.Ltext0
	.4byte	.LVL305-.Ltext0
	.2byte	0xa
	.byte	0x7e
	.sleb128 0
	.byte	0x20
	.byte	0x7f
	.sleb128 0
	.byte	0x1a
	.byte	0x76
	.sleb128 0
	.byte	0x27
	.byte	0x9f
	.4byte	.LVL305-.Ltext0
	.4byte	.LVL307-.Ltext0
	.2byte	0xa
	.byte	0x7c
	.sleb128 0
	.byte	0x20
	.byte	0x7f
	.sleb128 0
	.byte	0x1a
	.byte	0x76
	.sleb128 0
	.byte	0x27
	.byte	0x9f
	.4byte	.LVL317-.Ltext0
	.4byte	.LVL330-.Ltext0
	.2byte	0x1
	.byte	0x5e
	.4byte	.LVL331-.Ltext0
	.4byte	.LVL342-.Ltext0
	.2byte	0x1
	.byte	0x5e
	.4byte	.LVL342-.Ltext0
	.4byte	.LVL344-.Ltext0
	.2byte	0xa
	.byte	0x75
	.sleb128 0
	.byte	0x20
	.byte	0x74
	.sleb128 0
	.byte	0x1a
	.byte	0x7e
	.sleb128 0
	.byte	0x27
	.byte	0x9f
	.4byte	.LVL350-.Ltext0
	.4byte	.LVL356-.Ltext0
	.2byte	0x1
	.byte	0x58
	.4byte	.LVL366-.Ltext0
	.4byte	.LVL371-.Ltext0
	.2byte	0x1
	.byte	0x57
	.4byte	.LVL371-.Ltext0
	.4byte	.LVL372-.Ltext0
	.2byte	0x1
	.byte	0x54
	.4byte	.LVL372-.Ltext0
	.4byte	.LVL376-.Ltext0
	.2byte	0x2
	.byte	0x91
	.sleb128 -52
	.4byte	.LVL376-.Ltext0
	.4byte	.LVL376-.Ltext0
	.2byte	0xb
	.byte	0x7b
	.sleb128 0
	.byte	0x20
	.byte	0x75
	.sleb128 0
	.byte	0x1a
	.byte	0x91
	.sleb128 -52
	.byte	0x6
	.byte	0x27
	.byte	0x9f
	.4byte	.LVL376-.Ltext0
	.4byte	.LVL381-.Ltext0
	.2byte	0x15
	.byte	0x7d
	.sleb128 0
	.byte	0x20
	.byte	0x77
	.sleb128 0
	.byte	0x1a
	.byte	0x91
	.sleb128 -64
	.byte	0x6
	.byte	0x27
	.byte	0x38
	.byte	0x14
	.byte	0x14
	.byte	0x24
	.byte	0x17
	.byte	0x1f
	.byte	0x23
	.uleb128 0x20
	.byte	0x25
	.byte	0x21
	.byte	0x9f
	.4byte	0
	.4byte	0
.LVUS72:
	.uleb128 .LVU473
	.uleb128 .LVU476
	.uleb128 .LVU476
	.uleb128 .LVU480
	.uleb128 .LVU480
	.uleb128 .LVU483
	.uleb128 .LVU483
	.uleb128 .LVU492
	.uleb128 .LVU492
	.uleb128 .LVU496
	.uleb128 .LVU496
	.uleb128 .LVU497
	.uleb128 .LVU497
	.uleb128 .LVU504
	.uleb128 .LVU504
	.uleb128 .LVU505
	.uleb128 .LVU505
	.uleb128 .LVU520
	.uleb128 .LVU520
	.uleb128 .LVU569
	.uleb128 .LVU569
	.uleb128 .LVU572
	.uleb128 .LVU572
	.uleb128 .LVU576
	.uleb128 .LVU579
	.uleb128 .LVU585
	.uleb128 .LVU585
	.uleb128 .LVU589
	.uleb128 .LVU589
	.uleb128 .LVU590
	.uleb128 .LVU590
	.uleb128 .LVU598
	.uleb128 .LVU613
	.uleb128 .LVU666
	.uleb128 .LVU666
	.uleb128 .LVU669
	.uleb128 .LVU669
	.uleb128 .LVU673
	.uleb128 .LVU673
	.uleb128 .LVU674
	.uleb128 .LVU674
	.uleb128 .LVU676
	.uleb128 .LVU676
	.uleb128 .LVU683
	.uleb128 .LVU683
	.uleb128 .LVU687
	.uleb128 .LVU713
	.uleb128 .LVU747
	.uleb128 .LVU761
	.uleb128 .LVU764
	.uleb128 .LVU764
	.uleb128 .LVU768
	.uleb128 .LVU768
	.uleb128 .LVU769
	.uleb128 .LVU769
	.uleb128 .LVU771
	.uleb128 .LVU771
	.uleb128 .LVU780
	.uleb128 .LVU780
	.uleb128 .LVU784
	.uleb128 .LVU806
	.uleb128 .LVU856
	.uleb128 .LVU856
	.uleb128 .LVU859
	.uleb128 .LVU859
	.uleb128 .LVU863
	.uleb128 .LVU865
	.uleb128 .LVU872
	.uleb128 .LVU900
	.uleb128 .LVU950
	.uleb128 .LVU950
	.uleb128 .LVU953
	.uleb128 .LVU953
	.uleb128 .LVU957
	.uleb128 .LVU960
	.uleb128 .LVU967
	.uleb128 .LVU967
	.uleb128 .LVU971
	.uleb128 .LVU981
	.uleb128 .LVU982
	.uleb128 .LVU994
	.uleb128 .LVU1025
	.uleb128 .LVU1025
	.uleb128 .LVU1028
	.uleb128 .LVU1028
	.uleb128 .LVU1035
.LLST72:
	.4byte	.LVL161-.Ltext0
	.4byte	.LVL164-.Ltext0
	.2byte	0x1
	.byte	0x53
	.4byte	.LVL164-.Ltext0
	.4byte	.LVL167-.Ltext0
	.2byte	0xe
	.byte	0x91
	.sleb128 -68
	.byte	0x6
	.byte	0x23
	.uleb128 0xc
	.byte	0x6
	.byte	0x7d
	.sleb128 0
	.byte	0x27
	.byte	0x78
	.sleb128 0
	.byte	0x27
	.byte	0x9f
	.4byte	.LVL167-.Ltext0
	.4byte	.LVL169-.Ltext0
	.2byte	0x13
	.byte	0x91
	.sleb128 -68
	.byte	0x6
	.byte	0x23
	.uleb128 0xc
	.byte	0x6
	.byte	0x7d
	.sleb128 0
	.byte	0x27
	.byte	0x91
	.sleb128 -68
	.byte	0x6
	.byte	0x23
	.uleb128 0x2c
	.byte	0x6
	.byte	0x27
	.byte	0x9f
	.4byte	.LVL169-.Ltext0
	.4byte	.LVL173-.Ltext0
	.2byte	0x1
	.byte	0x53
	.4byte	.LVL173-.Ltext0
	.4byte	.LVL176-.Ltext0
	.2byte	0xe
	.byte	0x91
	.sleb128 -68
	.byte	0x6
	.byte	0x23
	.uleb128 0x4
	.byte	0x6
	.byte	0x7a
	.sleb128 0
	.byte	0x27
	.byte	0x76
	.sleb128 0
	.byte	0x27
	.byte	0x9f
	.4byte	.LVL176-.Ltext0
	.4byte	.LVL177-.Ltext0
	.2byte	0x13
	.byte	0x91
	.sleb128 -68
	.byte	0x6
	.byte	0x23
	.uleb128 0x4
	.byte	0x6
	.byte	0x91
	.sleb128 -68
	.byte	0x6
	.byte	0x23
	.uleb128 0x14
	.byte	0x6
	.byte	0x27
	.byte	0x76
	.sleb128 0
	.byte	0x27
	.byte	0x9f
	.4byte	.LVL177-.Ltext0
	.4byte	.LVL180-.Ltext0
	.2byte	0x18
	.byte	0x91
	.sleb128 -68
	.byte	0x6
	.byte	0x23
	.uleb128 0x4
	.byte	0x6
	.byte	0x91
	.sleb128 -68
	.byte	0x6
	.byte	0x23
	.uleb128 0x14
	.byte	0x6
	.byte	0x27
	.byte	0x91
	.sleb128 -68
	.byte	0x6
	.byte	0x23
	.uleb128 0x24
	.byte	0x6
	.byte	0x27
	.byte	0x9f
	.4byte	.LVL180-.Ltext0
	.4byte	.LVL181-.Ltext0
	.2byte	0x1
	.byte	0x58
	.4byte	.LVL181-.Ltext0
	.4byte	.LVL185-.Ltext0
	.2byte	0x44
	.byte	0x91
	.sleb128 -68
	.byte	0x6
	.byte	0x23
	.uleb128 0x4
	.byte	0x6
	.byte	0x91
	.sleb128 -68
	.byte	0x6
	.byte	0x23
	.uleb128 0x14
	.byte	0x6
	.byte	0x27
	.byte	0x91
	.sleb128 -68
	.byte	0x6
	.byte	0x23
	.uleb128 0x24
	.byte	0x6
	.byte	0x27
	.byte	0x35
	.byte	0x14
	.byte	0x14
	.byte	0x24
	.byte	0x17
	.byte	0x1f
	.byte	0x23
	.uleb128 0x20
	.byte	0x25
	.byte	0x21
	.byte	0x91
	.sleb128 -68
	.byte	0x6
	.byte	0x23
	.uleb128 0x4
	.byte	0x6
	.byte	0x91
	.sleb128 -68
	.byte	0x6
	.byte	0x23
	.uleb128 0x14
	.byte	0x6
	.byte	0x27
	.byte	0x91
	.sleb128 -68
	.byte	0x6
	.byte	0x23
	.uleb128 0x24
	.byte	0x6
	.byte	0x27
	.byte	0x3e
	.byte	0x14
	.byte	0x14
	.byte	0x24
	.byte	0x17
	.byte	0x1f
	.byte	0x23
	.uleb128 0x20
	.byte	0x25
	.byte	0x21
	.byte	0x27
	.byte	0x9f
	.4byte	.LVL185-.Ltext0
	.4byte	.LVL207-.Ltext0
	.2byte	0x2
	.byte	0x91
	.sleb128 -48
	.4byte	.LVL207-.Ltext0
	.4byte	.LVL207-.Ltext0
	.2byte	0x1
	.byte	0x54
	.4byte	.LVL207-.Ltext0
	.4byte	.LVL207-.Ltext0
	.2byte	0x1
	.byte	0x5a
	.4byte	.LVL210-.Ltext0
	.4byte	.LVL213-.Ltext0
	.2byte	0x1
	.byte	0x5f
	.4byte	.LVL213-.Ltext0
	.4byte	.LVL216-.Ltext0
	.2byte	0xa
	.byte	0x71
	.sleb128 0
	.byte	0x6
	.byte	0x7b
	.sleb128 0
	.byte	0x27
	.byte	0x74
	.sleb128 0
	.byte	0x27
	.byte	0x9f
	.4byte	.LVL216-.Ltext0
	.4byte	.LVL217-.Ltext0
	.2byte	0xb6
	.byte	0x91
	.sleb128 -68
	.byte	0x6
	.byte	0x6
	.byte	0x91
	.sleb128 -68
	.byte	0x6
	.byte	0x23
	.uleb128 0x10
	.byte	0x6
	.byte	0x27
	.byte	0x91
	.sleb128 -68
	.byte	0x6
	.byte	0x23
	.uleb128 0x20
	.byte	0x6
	.byte	0x27
	.byte	0x35
	.byte	0x14
	.byte	0x14
	.byte	0x24
	.byte	0x17
	.byte	0x1f
	.byte	0x23
	.uleb128 0x20
	.byte	0x25
	.byte	0x21
	.byte	0x91
	.sleb128 -68
	.byte	0x6
	.byte	0x6
	.byte	0x91
	.sleb128 -68
	.byte	0x6
	.byte	0x23
	.uleb128 0x10
	.byte	0x6
	.byte	0x27
	.byte	0x91
	.sleb128 -68
	.byte	0x6
	.byte	0x23
	.uleb128 0x20
	.byte	0x6
	.byte	0x27
	.byte	0x3e
	.byte	0x14
	.byte	0x14
	.byte	0x24
	.byte	0x17
	.byte	0x1f
	.byte	0x23
	.uleb128 0x20
	.byte	0x25
	.byte	0x21
	.byte	0x27
	.byte	0x91
	.sleb128 -68
	.byte	0x6
	.byte	0x23
	.uleb128 0x24
	.byte	0x6
	.byte	0x27
	.byte	0x3b
	.byte	0x14
	.byte	0x14
	.byte	0x24
	.byte	0x17
	.byte	0x1f
	.byte	0x23
	.uleb128 0x20
	.byte	0x25
	.byte	0x21
	.byte	0x72
	.sleb128 0
	.byte	0x27
	.byte	0x71
	.sleb128 0
	.byte	0x6
	.byte	0x1a
	.byte	0x91
	.sleb128 -68
	.byte	0x6
	.byte	0x23
	.uleb128 0xc
	.byte	0x6
	.byte	0x91
	.sleb128 -68
	.byte	0x6
	.byte	0x23
	.uleb128 0x1c
	.byte	0x6
	.byte	0x27
	.byte	0x91
	.sleb128 -68
	.byte	0x6
	.byte	0x23
	.uleb128 0x2c
	.byte	0x6
	.byte	0x27
	.byte	0x35
	.byte	0x14
	.byte	0x14
	.byte	0x24
	.byte	0x17
	.byte	0x1f
	.byte	0x23
	.uleb128 0x20
	.byte	0x25
	.byte	0x21
	.byte	0x27
	.byte	0x91
	.sleb128 -68
	.byte	0x6
	.byte	0x23
	.uleb128 0xc
	.byte	0x6
	.byte	0x91
	.sleb128 -68
	.byte	0x6
	.byte	0x23
	.uleb128 0x1c
	.byte	0x6
	.byte	0x27
	.byte	0x91
	.sleb128 -68
	.byte	0x6
	.byte	0x23
	.uleb128 0x2c
	.byte	0x6
	.byte	0x27
	.byte	0x3e
	.byte	0x14
	.byte	0x14
	.byte	0x24
	.byte	0x17
	.byte	0x1f
	.byte	0x23
	.uleb128 0x20
	.byte	0x25
	.byte	0x21
	.byte	0x27
	.byte	0x91
	.sleb128 -68
	.byte	0x6
	.byte	0x23
	.uleb128 0x10
	.byte	0x6
	.byte	0x27
	.byte	0x31
	.byte	0x14
	.byte	0x14
	.byte	0x24
	.byte	0x17
	.byte	0x1f
	.byte	0x23
	.uleb128 0x20
	.byte	0x25
	.byte	0x21
	.byte	0x71
	.sleb128 0
	.byte	0x6
	.byte	0x27
	.byte	0x74
	.sleb128 0
	.byte	0x27
	.byte	0x9f
	.4byte	.LVL217-.Ltext0
	.4byte	.LVL221-.Ltext0
	.2byte	0x1c5
	.byte	0x91
	.sleb128 -68
	.byte	0x6
	.byte	0x6
	.byte	0x91
	.sleb128 -68
	.byte	0x6
	.byte	0x23
	.uleb128 0x10
	.byte	0x6
	.byte	0x27
	.byte	0x91
	.sleb128 -68
	.byte	0x6
	.byte	0x23
	.uleb128 0x20
	.byte	0x6
	.byte	0x27
	.byte	0x35
	.byte	0x14
	.byte	0x14
	.byte	0x24
	.byte	0x17
	.byte	0x1f
	.byte	0x23
	.uleb128 0x20
	.byte	0x25
	.byte	0x21
	.byte	0x91
	.sleb128 -68
	.byte	0x6
	.byte	0x6
	.byte	0x91
	.sleb128 -68
	.byte	0x6
	.byte	0x23
	.uleb128 0x10
	.byte	0x6
	.byte	0x27
	.byte	0x91
	.sleb128 -68
	.byte	0x6
	.byte	0x23
	.uleb128 0x20
	.byte	0x6
	.byte	0x27
	.byte	0x3e
	.byte	0x14
	.byte	0x14
	.byte	0x24
	.byte	0x17
	.byte	0x1f
	.byte	0x23
	.uleb128 0x20
	.byte	0x25
	.byte	0x21
	.byte	0x27
	.byte	0x91
	.sleb128 -68
	.byte	0x6
	.byte	0x23
	.uleb128 0x24
	.byte	0x6
	.byte	0x27
	.byte	0x3b
	.byte	0x14
	.byte	0x14
	.byte	0x24
	.byte	0x17
	.byte	0x1f
	.byte	0x23
	.uleb128 0x20
	.byte	0x25
	.byte	0x21
	.byte	0x72
	.sleb128 0
	.byte	0x27
	.byte	0x71
	.sleb128 0
	.byte	0x6
	.byte	0x1a
	.byte	0x91
	.sleb128 -68
	.byte	0x6
	.byte	0x23
	.uleb128 0xc
	.byte	0x6
	.byte	0x91
	.sleb128 -68
	.byte	0x6
	.byte	0x23
	.uleb128 0x1c
	.byte	0x6
	.byte	0x27
	.byte	0x91
	.sleb128 -68
	.byte	0x6
	.byte	0x23
	.uleb128 0x2c
	.byte	0x6
	.byte	0x27
	.byte	0x35
	.byte	0x14
	.byte	0x14
	.byte	0x24
	.byte	0x17
	.byte	0x1f
	.byte	0x23
	.uleb128 0x20
	.byte	0x25
	.byte	0x21
	.byte	0x27
	.byte	0x91
	.sleb128 -68
	.byte	0x6
	.byte	0x23
	.uleb128 0xc
	.byte	0x6
	.byte	0x91
	.sleb128 -68
	.byte	0x6
	.byte	0x23
	.uleb128 0x1c
	.byte	0x6
	.byte	0x27
	.byte	0x91
	.sleb128 -68
	.byte	0x6
	.byte	0x23
	.uleb128 0x2c
	.byte	0x6
	.byte	0x27
	.byte	0x3e
	.byte	0x14
	.byte	0x14
	.byte	0x24
	.byte	0x17
	.byte	0x1f
	.byte	0x23
	.uleb128 0x20
	.byte	0x25
	.byte	0x21
	.byte	0x27
	.byte	0x91
	.sleb128 -68
	.byte	0x6
	.byte	0x23
	.uleb128 0x10
	.byte	0x6
	.byte	0x27
	.byte	0x31
	.byte	0x14
	.byte	0x14
	.byte	0x24
	.byte	0x17
	.byte	0x1f
	.byte	0x23
	.uleb128 0x20
	.byte	0x25
	.byte	0x21
	.byte	0x72
	.sleb128 0
	.byte	0x91
	.sleb128 -72
	.byte	0x6
	.byte	0x27
	.byte	0x91
	.sleb128 -68
	.byte	0x6
	.byte	0x23
	.uleb128 0x8
	.byte	0x6
	.byte	0x91
	.sleb128 -68
	.byte	0x6
	.byte	0x23
	.uleb128 0x18
	.byte	0x6
	.byte	0x27
	.byte	0x91
	.sleb128 -68
	.byte	0x6
	.byte	0x23
	.uleb128 0x28
	.byte	0x6
	.byte	0x27
	.byte	0x35
	.byte	0x14
	.byte	0x14
	.byte	0x24
	.byte	0x17
	.byte	0x1f
	.byte	0x23
	.uleb128 0x20
	.byte	0x25
	.byte	0x21
	.byte	0x91
	.sleb128 -68
	.byte	0x6
	.byte	0x23
	.uleb128 0x8
	.byte	0x6
	.byte	0x91
	.sleb128 -68
	.byte	0x6
	.byte	0x23
	.uleb128 0x18
	.byte	0x6
	.byte	0x27
	.byte	0x91
	.sleb128 -68
	.byte	0x6
	.byte	0x23
	.uleb128 0x28
	.byte	0x6
	.byte	0x27
	.byte	0x3e
	.byte	0x14
	.byte	0x14
	.byte	0x24
	.byte	0x17
	.byte	0x1f
	.byte	0x23
	.uleb128 0x20
	.byte	0x25
	.byte	0x21
	.byte	0x27
	.byte	0x91
	.sleb128 -68
	.byte	0x6
	.byte	0x23
	.uleb128 0x2c
	.byte	0x6
	.byte	0x27
	.byte	0x3b
	.byte	0x14
	.byte	0x14
	.byte	0x24
	.byte	0x17
	.byte	0x1f
	.byte	0x23
	.uleb128 0x20
	.byte	0x25
	.byte	0x21
	.byte	0x72
	.sleb128 0
	.byte	0x27
	.byte	0x91
	.sleb128 -72
	.byte	0x6
	.byte	0x1a
	.byte	0x91
	.sleb128 -68
	.byte	0x6
	.byte	0x23
	.uleb128 0x4
	.byte	0x6
	.byte	0x91
	.sleb128 -68
	.byte	0x6
	.byte	0x23
	.uleb128 0x14
	.byte	0x6
	.byte	0x27
	.byte	0x91
	.sleb128 -68
	.byte	0x6
	.byte	0x23
	.uleb128 0x24
	.byte	0x6
	.byte	0x27
	.byte	0x35
	.byte	0x14
	.byte	0x14
	.byte	0x24
	.byte	0x17
	.byte	0x1f
	.byte	0x23
	.uleb128 0x20
	.byte	0x25
	.byte	0x21
	.byte	0x27
	.byte	0x91
	.sleb128 -68
	.byte	0x6
	.byte	0x23
	.uleb128 0x4
	.byte	0x6
	.byte	0x91
	.sleb128 -68
	.byte	0x6
	.byte	0x23
	.uleb128 0x14
	.byte	0x6
	.byte	0x27
	.byte	0x91
	.sleb128 -68
	.byte	0x6
	.byte	0x23
	.uleb128 0x24
	.byte	0x6
	.byte	0x27
	.byte	0x3e
	.byte	0x14
	.byte	0x14
	.byte	0x24
	.byte	0x17
	.byte	0x1f
	.byte	0x23
	.uleb128 0x20
	.byte	0x25
	.byte	0x21
	.byte	0x27
	.byte	0x91
	.sleb128 -68
	.byte	0x6
	.byte	0x23
	.uleb128 0x18
	.byte	0x6
	.byte	0x27
	.byte	0x1a
	.byte	0x91
	.sleb128 -68
	.byte	0x6
	.byte	0x23
	.uleb128 0x8
	.byte	0x6
	.byte	0x91
	.sleb128 -68
	.byte	0x6
	.byte	0x23
	.uleb128 0x18
	.byte	0x6
	.byte	0x27
	.byte	0x91
	.sleb128 -68
	.byte	0x6
	.byte	0x23
	.uleb128 0x28
	.byte	0x6
	.byte	0x27
	.byte	0x35
	.byte	0x14
	.byte	0x14
	.byte	0x24
	.byte	0x17
	.byte	0x1f
	.byte	0x23
	.uleb128 0x20
	.byte	0x25
	.byte	0x21
	.byte	0x91
	.sleb128 -68
	.byte	0x6
	.byte	0x23
	.uleb128 0x8
	.byte	0x6
	.byte	0x91
	.sleb128 -68
	.byte	0x6
	.byte	0x23
	.uleb128 0x18
	.byte	0x6
	.byte	0x27
	.byte	0x91
	.sleb128 -68
	.byte	0x6
	.byte	0x23
	.uleb128 0x28
	.byte	0x6
	.byte	0x27
	.byte	0x3e
	.byte	0x14
	.byte	0x14
	.byte	0x24
	.byte	0x17
	.byte	0x1f
	.byte	0x23
	.uleb128 0x20
	.byte	0x25
	.byte	0x21
	.byte	0x27
	.byte	0x91
	.sleb128 -68
	.byte	0x6
	.byte	0x23
	.uleb128 0x2c
	.byte	0x6
	.byte	0x27
	.byte	0x3b
	.byte	0x14
	.byte	0x14
	.byte	0x24
	.byte	0x17
	.byte	0x1f
	.byte	0x23
	.uleb128 0x20
	.byte	0x25
	.byte	0x21
	.byte	0x27
	.byte	0x38
	.byte	0x14
	.byte	0x14
	.byte	0x24
	.byte	0x17
	.byte	0x1f
	.byte	0x23
	.uleb128 0x20
	.byte	0x25
	.byte	0x21
	.byte	0x27
	.byte	0x71
	.sleb128 0
	.byte	0x6
	.byte	0x27
	.byte	0x9f
	.4byte	.LVL223-.Ltext0
	.4byte	.LVL242-.Ltext0
	.2byte	0x2
	.byte	0x91
	.sleb128 -52
	.4byte	.LVL242-.Ltext0
	.4byte	.LVL242-.Ltext0
	.2byte	0x1
	.byte	0x56
	.4byte	.LVL242-.Ltext0
	.4byte	.LVL242-.Ltext0
	.2byte	0x1
	.byte	0x53
	.4byte	.LVL242-.Ltext0
	.4byte	.LVL243-.Ltext0
	.2byte	0x1
	.byte	0x5d
	.4byte	.LVL243-.Ltext0
	.4byte	.LVL245-.Ltext0
	.2byte	0xc
	.byte	0x91
	.sleb128 -72
	.byte	0x6
	.byte	0x91
	.sleb128 -64
	.byte	0x6
	.byte	0x27
	.byte	0x74
	.sleb128 0
	.byte	0x27
	.byte	0x9f
	.4byte	.LVL245-.Ltext0
	.4byte	.LVL249-.Ltext0
	.2byte	0x1
	.byte	0x5d
	.4byte	.LVL249-.Ltext0
	.4byte	.LVL252-.Ltext0
	.2byte	0xa
	.byte	0x71
	.sleb128 0
	.byte	0x6
	.byte	0x75
	.sleb128 0
	.byte	0x27
	.byte	0x76
	.sleb128 0
	.byte	0x27
	.byte	0x9f
	.4byte	.LVL259-.Ltext0
	.4byte	.LVL274-.Ltext0
	.2byte	0x2
	.byte	0x91
	.sleb128 -64
	.4byte	.LVL279-.Ltext0
	.4byte	.LVL279-.Ltext0
	.2byte	0x1
	.byte	0x54
	.4byte	.LVL279-.Ltext0
	.4byte	.LVL279-.Ltext0
	.2byte	0x1
	.byte	0x53
	.4byte	.LVL279-.Ltext0
	.4byte	.LVL280-.Ltext0
	.2byte	0x1
	.byte	0x5d
	.4byte	.LVL280-.Ltext0
	.4byte	.LVL282-.Ltext0
	.2byte	0xb
	.byte	0x91
	.sleb128 -72
	.byte	0x6
	.byte	0x7c
	.sleb128 0
	.byte	0x27
	.byte	0x76
	.sleb128 0
	.byte	0x27
	.byte	0x9f
	.4byte	.LVL282-.Ltext0
	.4byte	.LVL287-.Ltext0
	.2byte	0x1
	.byte	0x5d
	.4byte	.LVL287-.Ltext0
	.4byte	.LVL290-.Ltext0
	.2byte	0xa
	.byte	0x71
	.sleb128 0
	.byte	0x6
	.byte	0x7b
	.sleb128 0
	.byte	0x27
	.byte	0x74
	.sleb128 0
	.byte	0x27
	.byte	0x9f
	.4byte	.LVL296-.Ltext0
	.4byte	.LVL317-.Ltext0
	.2byte	0x2
	.byte	0x91
	.sleb128 -52
	.4byte	.LVL317-.Ltext0
	.4byte	.LVL317-.Ltext0
	.2byte	0x1
	.byte	0x56
	.4byte	.LVL317-.Ltext0
	.4byte	.LVL317-.Ltext0
	.2byte	0x1
	.byte	0x54
	.4byte	.LVL318-.Ltext0
	.4byte	.LVL322-.Ltext0
	.2byte	0x1
	.byte	0x57
	.4byte	.LVL331-.Ltext0
	.4byte	.LVL350-.Ltext0
	.2byte	0x2
	.byte	0x91
	.sleb128 -52
	.4byte	.LVL350-.Ltext0
	.4byte	.LVL350-.Ltext0
	.2byte	0x1
	.byte	0x5f
	.4byte	.LVL350-.Ltext0
	.4byte	.LVL350-.Ltext0
	.2byte	0x1
	.byte	0x59
	.4byte	.LVL353-.Ltext0
	.4byte	.LVL357-.Ltext0
	.2byte	0x1
	.byte	0x57
	.4byte	.LVL357-.Ltext0
	.4byte	.LVL360-.Ltext0
	.2byte	0xa
	.byte	0x71
	.sleb128 0
	.byte	0x6
	.byte	0x7b
	.sleb128 0
	.byte	0x27
	.byte	0x7f
	.sleb128 0
	.byte	0x27
	.byte	0x9f
	.4byte	.LVL365-.Ltext0
	.4byte	.LVL366-.Ltext0
	.2byte	0x1
	.byte	0x55
	.4byte	.LVL366-.Ltext0
	.4byte	.LVL376-.Ltext0
	.2byte	0x2
	.byte	0x91
	.sleb128 -44
	.4byte	.LVL376-.Ltext0
	.4byte	.LVL376-.Ltext0
	.2byte	0x15
	.byte	0x7b
	.sleb128 0
	.byte	0x20
	.byte	0x75
	.sleb128 0
	.byte	0x1a
	.byte	0x91
	.sleb128 -52
	.byte	0x6
	.byte	0x27
	.byte	0x38
	.byte	0x14
	.byte	0x14
	.byte	0x24
	.byte	0x17
	.byte	0x1f
	.byte	0x23
	.uleb128 0x20
	.byte	0x25
	.byte	0x21
	.byte	0x9f
	.4byte	.LVL376-.Ltext0
	.4byte	.LVL378-.Ltext0
	.2byte	0x14
	.byte	0x7c
	.sleb128 0
	.byte	0x20
	.byte	0x76
	.sleb128 0
	.byte	0x1a
	.byte	0x73
	.sleb128 0
	.byte	0x27
	.byte	0x38
	.byte	0x14
	.byte	0x14
	.byte	0x24
	.byte	0x17
	.byte	0x1f
	.byte	0x23
	.uleb128 0x20
	.byte	0x25
	.byte	0x21
	.byte	0x9f
	.4byte	0
	.4byte	0
.LVUS73:
	.uleb128 .LVU482
	.uleb128 .LVU489
	.uleb128 .LVU489
	.uleb128 .LVU490
	.uleb128 .LVU490
	.uleb128 .LVU493
	.uleb128 .LVU493
	.uleb128 .LVU499
	.uleb128 .LVU499
	.uleb128 .LVU503
	.uleb128 .LVU508
	.uleb128 .LVU529
	.uleb128 .LVU529
	.uleb128 .LVU578
	.uleb128 .LVU578
	.uleb128 .LVU581
	.uleb128 .LVU581
	.uleb128 .LVU583
	.uleb128 .LVU583
	.uleb128 .LVU586
	.uleb128 .LVU586
	.uleb128 .LVU592
	.uleb128 .LVU597
	.uleb128 .LVU602
	.uleb128 .LVU602
	.uleb128 .LVU605
	.uleb128 .LVU605
	.uleb128 .LVU623
	.uleb128 .LVU675
	.uleb128 .LVU679
	.uleb128 .LVU684
	.uleb128 .LVU689
	.uleb128 .LVU702
	.uleb128 .LVU705
	.uleb128 .LVU770
	.uleb128 .LVU774
	.uleb128 .LVU781
	.uleb128 .LVU786
	.uleb128 .LVU796
	.uleb128 .LVU798
	.uleb128 .LVU873
	.uleb128 .LVU877
	.uleb128 .LVU890
	.uleb128 .LVU912
	.uleb128 .LVU959
	.uleb128 .LVU962
	.uleb128 .LVU968
	.uleb128 .LVU973
.LLST73:
	.4byte	.LVL169-.Ltext0
	.4byte	.LVL172-.Ltext0
	.2byte	0x1
	.byte	0x59
	.4byte	.LVL172-.Ltext0
	.4byte	.LVL173-.Ltext0
	.2byte	0x11
	.byte	0x91
	.sleb128 -68
	.byte	0x6
	.byte	0x6
	.byte	0x7b
	.sleb128 0
	.byte	0x27
	.byte	0x91
	.sleb128 -68
	.byte	0x6
	.byte	0x23
	.uleb128 0x20
	.byte	0x6
	.byte	0x27
	.byte	0x9f
	.4byte	.LVL173-.Ltext0
	.4byte	.LVL173-.Ltext0
	.2byte	0x16
	.byte	0x91
	.sleb128 -68
	.byte	0x6
	.byte	0x6
	.byte	0x91
	.sleb128 -68
	.byte	0x6
	.byte	0x23
	.uleb128 0x10
	.byte	0x6
	.byte	0x27
	.byte	0x91
	.sleb128 -68
	.byte	0x6
	.byte	0x23
	.uleb128 0x20
	.byte	0x6
	.byte	0x27
	.byte	0x9f
	.4byte	.LVL173-.Ltext0
	.4byte	.LVL179-.Ltext0
	.2byte	0x1
	.byte	0x59
	.4byte	.LVL179-.Ltext0
	.4byte	.LVL180-.Ltext0
	.2byte	0x40
	.byte	0x91
	.sleb128 -68
	.byte	0x6
	.byte	0x6
	.byte	0x91
	.sleb128 -68
	.byte	0x6
	.byte	0x23
	.uleb128 0x10
	.byte	0x6
	.byte	0x27
	.byte	0x91
	.sleb128 -68
	.byte	0x6
	.byte	0x23
	.uleb128 0x20
	.byte	0x6
	.byte	0x27
	.byte	0x35
	.byte	0x14
	.byte	0x14
	.byte	0x24
	.byte	0x17
	.byte	0x1f
	.byte	0x23
	.uleb128 0x20
	.byte	0x25
	.byte	0x21
	.byte	0x91
	.sleb128 -68
	.byte	0x6
	.byte	0x6
	.byte	0x91
	.sleb128 -68
	.byte	0x6
	.byte	0x23
	.uleb128 0x10
	.byte	0x6
	.byte	0x27
	.byte	0x91
	.sleb128 -68
	.byte	0x6
	.byte	0x23
	.uleb128 0x20
	.byte	0x6
	.byte	0x27
	.byte	0x3e
	.byte	0x14
	.byte	0x14
	.byte	0x24
	.byte	0x17
	.byte	0x1f
	.byte	0x23
	.uleb128 0x20
	.byte	0x25
	.byte	0x21
	.byte	0x27
	.byte	0x9f
	.4byte	.LVL181-.Ltext0
	.4byte	.LVL186-.Ltext0
	.2byte	0x1
	.byte	0x57
	.4byte	.LVL186-.Ltext0
	.4byte	.LVL209-.Ltext0
	.2byte	0x44
	.byte	0x91
	.sleb128 -68
	.byte	0x6
	.byte	0x23
	.uleb128 0x8
	.byte	0x6
	.byte	0x91
	.sleb128 -68
	.byte	0x6
	.byte	0x23
	.uleb128 0x18
	.byte	0x6
	.byte	0x27
	.byte	0x91
	.sleb128 -68
	.byte	0x6
	.byte	0x23
	.uleb128 0x28
	.byte	0x6
	.byte	0x27
	.byte	0x35
	.byte	0x14
	.byte	0x14
	.byte	0x24
	.byte	0x17
	.byte	0x1f
	.byte	0x23
	.uleb128 0x20
	.byte	0x25
	.byte	0x21
	.byte	0x91
	.sleb128 -68
	.byte	0x6
	.byte	0x23
	.uleb128 0x8
	.byte	0x6
	.byte	0x91
	.sleb128 -68
	.byte	0x6
	.byte	0x23
	.uleb128 0x18
	.byte	0x6
	.byte	0x27
	.byte	0x91
	.sleb128 -68
	.byte	0x6
	.byte	0x23
	.uleb128 0x28
	.byte	0x6
	.byte	0x27
	.byte	0x3e
	.byte	0x14
	.byte	0x14
	.byte	0x24
	.byte	0x17
	.byte	0x1f
	.byte	0x23
	.uleb128 0x20
	.byte	0x25
	.byte	0x21
	.byte	0x27
	.byte	0x9f
	.4byte	.LVL209-.Ltext0
	.4byte	.LVL211-.Ltext0
	.2byte	0x1
	.byte	0x59
	.4byte	.LVL211-.Ltext0
	.4byte	.LVL213-.Ltext0
	.2byte	0x115
	.byte	0x72
	.sleb128 0
	.byte	0x91
	.sleb128 -76
	.byte	0x6
	.byte	0x27
	.byte	0x91
	.sleb128 -68
	.byte	0x6
	.byte	0x23
	.uleb128 0x4
	.byte	0x6
	.byte	0x91
	.sleb128 -68
	.byte	0x6
	.byte	0x23
	.uleb128 0x14
	.byte	0x6
	.byte	0x27
	.byte	0x91
	.sleb128 -68
	.byte	0x6
	.byte	0x23
	.uleb128 0x24
	.byte	0x6
	.byte	0x27
	.byte	0x35
	.byte	0x14
	.byte	0x14
	.byte	0x24
	.byte	0x17
	.byte	0x1f
	.byte	0x23
	.uleb128 0x20
	.byte	0x25
	.byte	0x21
	.byte	0x91
	.sleb128 -68
	.byte	0x6
	.byte	0x23
	.uleb128 0x4
	.byte	0x6
	.byte	0x91
	.sleb128 -68
	.byte	0x6
	.byte	0x23
	.uleb128 0x14
	.byte	0x6
	.byte	0x27
	.byte	0x91
	.sleb128 -68
	.byte	0x6
	.byte	0x23
	.uleb128 0x24
	.byte	0x6
	.byte	0x27
	.byte	0x3e
	.byte	0x14
	.byte	0x14
	.byte	0x24
	.byte	0x17
	.byte	0x1f
	.byte	0x23
	.uleb128 0x20
	.byte	0x25
	.byte	0x21
	.byte	0x27
	.byte	0x91
	.sleb128 -68
	.byte	0x6
	.byte	0x23
	.uleb128 0x28
	.byte	0x6
	.byte	0x27
	.byte	0x3b
	.byte	0x14
	.byte	0x14
	.byte	0x24
	.byte	0x17
	.byte	0x1f
	.byte	0x23
	.uleb128 0x20
	.byte	0x25
	.byte	0x21
	.byte	0x72
	.sleb128 0
	.byte	0x27
	.byte	0x91
	.sleb128 -76
	.byte	0x6
	.byte	0x1a
	.byte	0x91
	.sleb128 -68
	.byte	0x6
	.byte	0x6
	.byte	0x91
	.sleb128 -68
	.byte	0x6
	.byte	0x23
	.uleb128 0x10
	.byte	0x6
	.byte	0x27
	.byte	0x91
	.sleb128 -68
	.byte	0x6
	.byte	0x23
	.uleb128 0x20
	.byte	0x6
	.byte	0x27
	.byte	0x35
	.byte	0x14
	.byte	0x14
	.byte	0x24
	.byte	0x17
	.byte	0x1f
	.byte	0x23
	.uleb128 0x20
	.byte	0x25
	.byte	0x21
	.byte	0x27
	.byte	0x91
	.sleb128 -68
	.byte	0x6
	.byte	0x6
	.byte	0x91
	.sleb128 -68
	.byte	0x6
	.byte	0x23
	.uleb128 0x10
	.byte	0x6
	.byte	0x27
	.byte	0x91
	.sleb128 -68
	.byte	0x6
	.byte	0x23
	.uleb128 0x20
	.byte	0x6
	.byte	0x27
	.byte	0x3e
	.byte	0x14
	.byte	0x14
	.byte	0x24
	.byte	0x17
	.byte	0x1f
	.byte	0x23
	.uleb128 0x20
	.byte	0x25
	.byte	0x21
	.byte	0x27
	.byte	0x91
	.sleb128 -68
	.byte	0x6
	.byte	0x23
	.uleb128 0x14
	.byte	0x6
	.byte	0x27
	.byte	0x1a
	.byte	0x91
	.sleb128 -68
	.byte	0x6
	.byte	0x23
	.uleb128 0x4
	.byte	0x6
	.byte	0x91
	.sleb128 -68
	.byte	0x6
	.byte	0x23
	.uleb128 0x14
	.byte	0x6
	.byte	0x27
	.byte	0x91
	.sleb128 -68
	.byte	0x6
	.byte	0x23
	.uleb128 0x24
	.byte	0x6
	.byte	0x27
	.byte	0x35
	.byte	0x14
	.byte	0x14
	.byte	0x24
	.byte	0x17
	.byte	0x1f
	.byte	0x23
	.uleb128 0x20
	.byte	0x25
	.byte	0x21
	.byte	0x91
	.sleb128 -68
	.byte	0x6
	.byte	0x23
	.uleb128 0x4
	.byte	0x6
	.byte	0x91
	.sleb128 -68
	.byte	0x6
	.byte	0x23
	.uleb128 0x14
	.byte	0x6
	.byte	0x27
	.byte	0x91
	.sleb128 -68
	.byte	0x6
	.byte	0x23
	.uleb128 0x24
	.byte	0x6
	.byte	0x27
	.byte	0x3e
	.byte	0x14
	.byte	0x14
	.byte	0x24
	.byte	0x17
	.byte	0x1f
	.byte	0x23
	.uleb128 0x20
	.byte	0x25
	.byte	0x21
	.byte	0x27
	.byte	0x91
	.sleb128 -68
	.byte	0x6
	.byte	0x23
	.uleb128 0x28
	.byte	0x6
	.byte	0x27
	.byte	0x3b
	.byte	0x14
	.byte	0x14
	.byte	0x24
	.byte	0x17
	.byte	0x1f
	.byte	0x23
	.uleb128 0x20
	.byte	0x25
	.byte	0x21
	.byte	0x27
	.byte	0x38
	.byte	0x14
	.byte	0x14
	.byte	0x24
	.byte	0x17
	.byte	0x1f
	.byte	0x23
	.uleb128 0x20
	.byte	0x25
	.byte	0x21
	.byte	0x75
	.sleb128 0
	.byte	0x27
	.byte	0x91
	.sleb128 -56
	.byte	0x6
	.byte	0x27
	.byte	0x9f
	.4byte	.LVL213-.Ltext0
	.4byte	.LVL213-.Ltext0
	.2byte	0x17d
	.byte	0x91
	.sleb128 -68
	.byte	0x6
	.byte	0x23
	.uleb128 0xc
	.byte	0x6
	.byte	0x91
	.sleb128 -68
	.byte	0x6
	.byte	0x23
	.uleb128 0x1c
	.byte	0x6
	.byte	0x27
	.byte	0x91
	.sleb128 -68
	.byte	0x6
	.byte	0x23
	.uleb128 0x2c
	.byte	0x6
	.byte	0x27
	.byte	0x35
	.byte	0x14
	.byte	0x14
	.byte	0x24
	.byte	0x17
	.byte	0x1f
	.byte	0x23
	.uleb128 0x20
	.byte	0x25
	.byte	0x21
	.byte	0x91
	.sleb128 -68
	.byte	0x6
	.byte	0x23
	.uleb128 0xc
	.byte	0x6
	.byte	0x91
	.sleb128 -68
	.byte	0x6
	.byte	0x23
	.uleb128 0x1c
	.byte	0x6
	.byte	0x27
	.byte	0x91
	.sleb128 -68
	.byte	0x6
	.byte	0x23
	.uleb128 0x2c
	.byte	0x6
	.byte	0x27
	.byte	0x3e
	.byte	0x14
	.byte	0x14
	.byte	0x24
	.byte	0x17
	.byte	0x1f
	.byte	0x23
	.uleb128 0x20
	.byte	0x25
	.byte	0x21
	.byte	0x27
	.byte	0x91
	.sleb128 -68
	.byte	0x6
	.byte	0x23
	.uleb128 0x20
	.byte	0x6
	.byte	0x27
	.byte	0x3b
	.byte	0x14
	.byte	0x14
	.byte	0x24
	.byte	0x17
	.byte	0x1f
	.byte	0x23
	.uleb128 0x20
	.byte	0x25
	.byte	0x21
	.byte	0x72
	.sleb128 0
	.byte	0x27
	.byte	0x91
	.sleb128 -56
	.byte	0x6
	.byte	0x1a
	.byte	0x91
	.sleb128 -48
	.byte	0x6
	.byte	0x27
	.byte	0x31
	.byte	0x14
	.byte	0x14
	.byte	0x24
	.byte	0x17
	.byte	0x1f
	.byte	0x23
	.uleb128 0x20
	.byte	0x25
	.byte	0x21
	.byte	0x72
	.sleb128 0
	.byte	0x91
	.sleb128 -76
	.byte	0x6
	.byte	0x27
	.byte	0x91
	.sleb128 -68
	.byte	0x6
	.byte	0x23
	.uleb128 0x4
	.byte	0x6
	.byte	0x91
	.sleb128 -68
	.byte	0x6
	.byte	0x23
	.uleb128 0x14
	.byte	0x6
	.byte	0x27
	.byte	0x91
	.sleb128 -68
	.byte	0x6
	.byte	0x23
	.uleb128 0x24
	.byte	0x6
	.byte	0x27
	.byte	0x35
	.byte	0x14
	.byte	0x14
	.byte	0x24
	.byte	0x17
	.byte	0x1f
	.byte	0x23
	.uleb128 0x20
	.byte	0x25
	.byte	0x21
	.byte	0x91
	.sleb128 -68
	.byte	0x6
	.byte	0x23
	.uleb128 0x4
	.byte	0x6
	.byte	0x91
	.sleb128 -68
	.byte	0x6
	.byte	0x23
	.uleb128 0x14
	.byte	0x6
	.byte	0x27
	.byte	0x91
	.sleb128 -68
	.byte	0x6
	.byte	0x23
	.uleb128 0x24
	.byte	0x6
	.byte	0x27
	.byte	0x3e
	.byte	0x14
	.byte	0x14
	.byte	0x24
	.byte	0x17
	.byte	0x1f
	.byte	0x23
	.uleb128 0x20
	.byte	0x25
	.byte	0x21
	.byte	0x27
	.byte	0x91
	.sleb128 -68
	.byte	0x6
	.byte	0x23
	.uleb128 0x28
	.byte	0x6
	.byte	0x27
	.byte	0x3b
	.byte	0x14
	.byte	0x14
	.byte	0x24
	.byte	0x17
	.byte	0x1f
	.byte	0x23
	.uleb128 0x20
	.byte	0x25
	.byte	0x21
	.byte	0x72
	.sleb128 0
	.byte	0x27
	.byte	0x91
	.sleb128 -76
	.byte	0x6
	.byte	0x1a
	.byte	0x91
	.sleb128 -68
	.byte	0x6
	.byte	0x6
	.byte	0x91
	.sleb128 -68
	.byte	0x6
	.byte	0x23
	.uleb128 0x10
	.byte	0x6
	.byte	0x27
	.byte	0x91
	.sleb128 -68
	.byte	0x6
	.byte	0x23
	.uleb128 0x20
	.byte	0x6
	.byte	0x27
	.byte	0x35
	.byte	0x14
	.byte	0x14
	.byte	0x24
	.byte	0x17
	.byte	0x1f
	.byte	0x23
	.uleb128 0x20
	.byte	0x25
	.byte	0x21
	.byte	0x27
	.byte	0x91
	.sleb128 -68
	.byte	0x6
	.byte	0x6
	.byte	0x91
	.sleb128 -68
	.byte	0x6
	.byte	0x23
	.uleb128 0x10
	.byte	0x6
	.byte	0x27
	.byte	0x91
	.sleb128 -68
	.byte	0x6
	.byte	0x23
	.uleb128 0x20
	.byte	0x6
	.byte	0x27
	.byte	0x3e
	.byte	0x14
	.byte	0x14
	.byte	0x24
	.byte	0x17
	.byte	0x1f
	.byte	0x23
	.uleb128 0x20
	.byte	0x25
	.byte	0x21
	.byte	0x27
	.byte	0x91
	.sleb128 -68
	.byte	0x6
	.byte	0x23
	.uleb128 0x14
	.byte	0x6
	.byte	0x27
	.byte	0x1a
	.byte	0x91
	.sleb128 -68
	.byte	0x6
	.byte	0x23
	.uleb128 0x4
	.byte	0x6
	.byte	0x91
	.sleb128 -68
	.byte	0x6
	.byte	0x23
	.uleb128 0x14
	.byte	0x6
	.byte	0x27
	.byte	0x91
	.sleb128 -68
	.byte	0x6
	.byte	0x23
	.uleb128 0x24
	.byte	0x6
	.byte	0x27
	.byte	0x35
	.byte	0x14
	.byte	0x14
	.byte	0x24
	.byte	0x17
	.byte	0x1f
	.byte	0x23
	.uleb128 0x20
	.byte	0x25
	.byte	0x21
	.byte	0x91
	.sleb128 -68
	.byte	0x6
	.byte	0x23
	.uleb128 0x4
	.byte	0x6
	.byte	0x91
	.sleb128 -68
	.byte	0x6
	.byte	0x23
	.uleb128 0x14
	.byte	0x6
	.byte	0x27
	.byte	0x91
	.sleb128 -68
	.byte	0x6
	.byte	0x23
	.uleb128 0x24
	.byte	0x6
	.byte	0x27
	.byte	0x3e
	.byte	0x14
	.byte	0x14
	.byte	0x24
	.byte	0x17
	.byte	0x1f
	.byte	0x23
	.uleb128 0x20
	.byte	0x25
	.byte	0x21
	.byte	0x27
	.byte	0x91
	.sleb128 -68
	.byte	0x6
	.byte	0x23
	.uleb128 0x28
	.byte	0x6
	.byte	0x27
	.byte	0x3b
	.byte	0x14
	.byte	0x14
	.byte	0x24
	.byte	0x17
	.byte	0x1f
	.byte	0x23
	.uleb128 0x20
	.byte	0x25
	.byte	0x21
	.byte	0x27
	.byte	0x38
	.byte	0x14
	.byte	0x14
	.byte	0x24
	.byte	0x17
	.byte	0x1f
	.byte	0x23
	.uleb128 0x20
	.byte	0x25
	.byte	0x21
	.byte	0x27
	.byte	0x91
	.sleb128 -56
	.byte	0x6
	.byte	0x27
	.byte	0x9f
	.4byte	.LVL213-.Ltext0
	.4byte	.LVL219-.Ltext0
	.2byte	0x1
	.byte	0x59
	.4byte	.LVL221-.Ltext0
	.4byte	.LVL221-.Ltext0
	.2byte	0xcd
	.byte	0x91
	.sleb128 -68
	.byte	0x6
	.byte	0x23
	.uleb128 0xc
	.byte	0x6
	.byte	0x91
	.sleb128 -68
	.byte	0x6
	.byte	0x23
	.uleb128 0x1c
	.byte	0x6
	.byte	0x27
	.byte	0x91
	.sleb128 -68
	.byte	0x6
	.byte	0x23
	.uleb128 0x2c
	.byte	0x6
	.byte	0x27
	.byte	0x35
	.byte	0x14
	.byte	0x14
	.byte	0x24
	.byte	0x17
	.byte	0x1f
	.byte	0x23
	.uleb128 0x20
	.byte	0x25
	.byte	0x21
	.byte	0x91
	.sleb128 -68
	.byte	0x6
	.byte	0x23
	.uleb128 0xc
	.byte	0x6
	.byte	0x91
	.sleb128 -68
	.byte	0x6
	.byte	0x23
	.uleb128 0x1c
	.byte	0x6
	.byte	0x27
	.byte	0x91
	.sleb128 -68
	.byte	0x6
	.byte	0x23
	.uleb128 0x2c
	.byte	0x6
	.byte	0x27
	.byte	0x3e
	.byte	0x14
	.byte	0x14
	.byte	0x24
	.byte	0x17
	.byte	0x1f
	.byte	0x23
	.uleb128 0x20
	.byte	0x25
	.byte	0x21
	.byte	0x27
	.byte	0x91
	.sleb128 -68
	.byte	0x6
	.byte	0x23
	.uleb128 0x20
	.byte	0x6
	.byte	0x27
	.byte	0x3b
	.byte	0x14
	.byte	0x14
	.byte	0x24
	.byte	0x17
	.byte	0x1f
	.byte	0x23
	.uleb128 0x20
	.byte	0x25
	.byte	0x21
	.byte	0x72
	.sleb128 0
	.byte	0x27
	.byte	0x91
	.sleb128 -56
	.byte	0x6
	.byte	0x1a
	.byte	0x91
	.sleb128 -48
	.byte	0x6
	.byte	0x27
	.byte	0x91
	.sleb128 -56
	.byte	0x6
	.byte	0x20
	.byte	0x1a
	.byte	0x91
	.sleb128 -68
	.byte	0x6
	.byte	0x23
	.uleb128 0xc
	.byte	0x6
	.byte	0x91
	.sleb128 -68
	.byte	0x6
	.byte	0x23
	.uleb128 0x1c
	.byte	0x6
	.byte	0x27
	.byte	0x91
	.sleb128 -68
	.byte	0x6
	.byte	0x23
	.uleb128 0x2c
	.byte	0x6
	.byte	0x27
	.byte	0x35
	.byte	0x14
	.byte	0x14
	.byte	0x24
	.byte	0x17
	.byte	0x1f
	.byte	0x23
	.uleb128 0x20
	.byte	0x25
	.byte	0x21
	.byte	0x91
	.sleb128 -68
	.byte	0x6
	.byte	0x23
	.uleb128 0xc
	.byte	0x6
	.byte	0x91
	.sleb128 -68
	.byte	0x6
	.byte	0x23
	.uleb128 0x1c
	.byte	0x6
	.byte	0x27
	.byte	0x91
	.sleb128 -68
	.byte	0x6
	.byte	0x23
	.uleb128 0x2c
	.byte	0x6
	.byte	0x27
	.byte	0x3e
	.byte	0x14
	.byte	0x14
	.byte	0x24
	.byte	0x17
	.byte	0x1f
	.byte	0x23
	.uleb128 0x20
	.byte	0x25
	.byte	0x21
	.byte	0x27
	.byte	0x91
	.sleb128 -68
	.byte	0x6
	.byte	0x23
	.uleb128 0x20
	.byte	0x6
	.byte	0x27
	.byte	0x3b
	.byte	0x14
	.byte	0x14
	.byte	0x24
	.byte	0x17
	.byte	0x1f
	.byte	0x23
	.uleb128 0x20
	.byte	0x25
	.byte	0x21
	.byte	0x27
	.byte	0x38
	.byte	0x14
	.byte	0x14
	.byte	0x24
	.byte	0x17
	.byte	0x1f
	.byte	0x23
	.uleb128 0x20
	.byte	0x25
	.byte	0x21
	.byte	0x7c
	.sleb128 0
	.byte	0x27
	.byte	0x91
	.sleb128 -64
	.byte	0x6
	.byte	0x27
	.byte	0x9f
	.4byte	.LVL221-.Ltext0
	.4byte	.LVL223-.Ltext0
	.2byte	0x1
	.byte	0x57
	.4byte	.LVL223-.Ltext0
	.4byte	.LVL224-.Ltext0
	.2byte	0x382
	.byte	0x91
	.sleb128 -68
	.byte	0x6
	.byte	0x6
	.byte	0x91
	.sleb128 -68
	.byte	0x6
	.byte	0x23
	.uleb128 0x10
	.byte	0x6
	.byte	0x27
	.byte	0x91
	.sleb128 -68
	.byte	0x6
	.byte	0x23
	.uleb128 0x20
	.byte	0x6
	.byte	0x27
	.byte	0x35
	.byte	0x14
	.byte	0x14
	.byte	0x24
	.byte	0x17
	.byte	0x1f
	.byte	0x23
	.uleb128 0x20
	.byte	0x25
	.byte	0x21
	.byte	0x91
	.sleb128 -68
	.byte	0x6
	.byte	0x6
	.byte	0x91
	.sleb128 -68
	.byte	0x6
	.byte	0x23
	.uleb128 0x10
	.byte	0x6
	.byte	0x27
	.byte	0x91
	.sleb128 -68
	.byte	0x6
	.byte	0x23
	.uleb128 0x20
	.byte	0x6
	.byte	0x27
	.byte	0x3e
	.byte	0x14
	.byte	0x14
	.byte	0x24
	.byte	0x17
	.byte	0x1f
	.byte	0x23
	.uleb128 0x20
	.byte	0x25
	.byte	0x21
	.byte	0x27
	.byte	0x91
	.sleb128 -68
	.byte	0x6
	.byte	0x23
	.uleb128 0x14
	.byte	0x6
	.byte	0x27
	.byte	0x72
	.sleb128 0
	.byte	0x27
	.byte	0x91
	.sleb128 -68
	.byte	0x6
	.byte	0x23
	.uleb128 0x4
	.byte	0x6
	.byte	0x91
	.sleb128 -68
	.byte	0x6
	.byte	0x23
	.uleb128 0x14
	.byte	0x6
	.byte	0x27
	.byte	0x91
	.sleb128 -68
	.byte	0x6
	.byte	0x23
	.uleb128 0x24
	.byte	0x6
	.byte	0x27
	.byte	0x35
	.byte	0x14
	.byte	0x14
	.byte	0x24
	.byte	0x17
	.byte	0x1f
	.byte	0x23
	.uleb128 0x20
	.byte	0x25
	.byte	0x21
	.byte	0x91
	.sleb128 -68
	.byte	0x6
	.byte	0x23
	.uleb128 0x4
	.byte	0x6
	.byte	0x91
	.sleb128 -68
	.byte	0x6
	.byte	0x23
	.uleb128 0x14
	.byte	0x6
	.byte	0x27
	.byte	0x91
	.sleb128 -68
	.byte	0x6
	.byte	0x23
	.uleb128 0x24
	.byte	0x6
	.byte	0x27
	.byte	0x3e
	.byte	0x14
	.byte	0x14
	.byte	0x24
	.byte	0x17
	.byte	0x1f
	.byte	0x23
	.uleb128 0x20
	.byte	0x25
	.byte	0x21
	.byte	0x27
	.byte	0x91
	.sleb128 -68
	.byte	0x6
	.byte	0x23
	.uleb128 0x28
	.byte	0x6
	.byte	0x27
	.byte	0x3b
	.byte	0x14
	.byte	0x14
	.byte	0x24
	.byte	0x17
	.byte	0x1f
	.byte	0x23
	.uleb128 0x20
	.byte	0x25
	.byte	0x21
	.byte	0x1a
	.byte	0x91
	.sleb128 -68
	.byte	0x6
	.byte	0x23
	.uleb128 0x4
	.byte	0x6
	.byte	0x91
	.sleb128 -68
	.byte	0x6
	.byte	0x23
	.uleb128 0x14
	.byte	0x6
	.byte	0x27
	.byte	0x91
	.sleb128 -68
	.byte	0x6
	.byte	0x23
	.uleb128 0x24
	.byte	0x6
	.byte	0x27
	.byte	0x35
	.byte	0x14
	.byte	0x14
	.byte	0x24
	.byte	0x17
	.byte	0x1f
	.byte	0x23
	.uleb128 0x20
	.byte	0x25
	.byte	0x21
	.byte	0x27
	.byte	0x91
	.sleb128 -68
	.byte	0x6
	.byte	0x23
	.uleb128 0x4
	.byte	0x6
	.byte	0x91
	.sleb128 -68
	.byte	0x6
	.byte	0x23
	.uleb128 0x14
	.byte	0x6
	.byte	0x27
	.byte	0x91
	.sleb128 -68
	.byte	0x6
	.byte	0x23
	.uleb128 0x24
	.byte	0x6
	.byte	0x27
	.byte	0x3e
	.byte	0x14
	.byte	0x14
	.byte	0x24
	.byte	0x17
	.byte	0x1f
	.byte	0x23
	.uleb128 0x20
	.byte	0x25
	.byte	0x21
	.byte	0x27
	.byte	0x91
	.sleb128 -68
	.byte	0x6
	.byte	0x23
	.uleb128 0xc
	.byte	0x6
	.byte	0x91
	.sleb128 -68
	.byte	0x6
	.byte	0x23
	.uleb128 0x1c
	.byte	0x6
	.byte	0x27
	.byte	0x91
	.sleb128 -68
	.byte	0x6
	.byte	0x23
	.uleb128 0x2c
	.byte	0x6
	.byte	0x27
	.byte	0x35
	.byte	0x14
	.byte	0x14
	.byte	0x24
	.byte	0x17
	.byte	0x1f
	.byte	0x23
	.uleb128 0x20
	.byte	0x25
	.byte	0x21
	.byte	0x91
	.sleb128 -68
	.byte	0x6
	.byte	0x23
	.uleb128 0xc
	.byte	0x6
	.byte	0x91
	.sleb128 -68
	.byte	0x6
	.byte	0x23
	.uleb128 0x1c
	.byte	0x6
	.byte	0x27
	.byte	0x91
	.sleb128 -68
	.byte	0x6
	.byte	0x23
	.uleb128 0x2c
	.byte	0x6
	.byte	0x27
	.byte	0x3e
	.byte	0x14
	.byte	0x14
	.byte	0x24
	.byte	0x17
	.byte	0x1f
	.byte	0x23
	.uleb128 0x20
	.byte	0x25
	.byte	0x21
	.byte	0x27
	.byte	0x91
	.sleb128 -68
	.byte	0x6
	.byte	0x23
	.uleb128 0x20
	.byte	0x6
	.byte	0x27
	.byte	0x3b
	.byte	0x14
	.byte	0x14
	.byte	0x24
	.byte	0x17
	.byte	0x1f
	.byte	0x23
	.uleb128 0x20
	.byte	0x25
	.byte	0x21
	.byte	0x72
	.sleb128 0
	.byte	0x27
	.byte	0x91
	.sleb128 -56
	.byte	0x6
	.byte	0x1a
	.byte	0x91
	.sleb128 -48
	.byte	0x6
	.byte	0x27
	.byte	0x91
	.sleb128 -56
	.byte	0x6
	.byte	0x20
	.byte	0x1a
	.byte	0x91
	.sleb128 -68
	.byte	0x6
	.byte	0x23
	.uleb128 0xc
	.byte	0x6
	.byte	0x91
	.sleb128 -68
	.byte	0x6
	.byte	0x23
	.uleb128 0x1c
	.byte	0x6
	.byte	0x27
	.byte	0x91
	.sleb128 -68
	.byte	0x6
	.byte	0x23
	.uleb128 0x2c
	.byte	0x6
	.byte	0x27
	.byte	0x35
	.byte	0x14
	.byte	0x14
	.byte	0x24
	.byte	0x17
	.byte	0x1f
	.byte	0x23
	.uleb128 0x20
	.byte	0x25
	.byte	0x21
	.byte	0x91
	.sleb128 -68
	.byte	0x6
	.byte	0x23
	.uleb128 0xc
	.byte	0x6
	.byte	0x91
	.sleb128 -68
	.byte	0x6
	.byte	0x23
	.uleb128 0x1c
	.byte	0x6
	.byte	0x27
	.byte	0x91
	.sleb128 -68
	.byte	0x6
	.byte	0x23
	.uleb128 0x2c
	.byte	0x6
	.byte	0x27
	.byte	0x3e
	.byte	0x14
	.byte	0x14
	.byte	0x24
	.byte	0x17
	.byte	0x1f
	.byte	0x23
	.uleb128 0x20
	.byte	0x25
	.byte	0x21
	.byte	0x27
	.byte	0x91
	.sleb128 -68
	.byte	0x6
	.byte	0x23
	.uleb128 0x20
	.byte	0x6
	.byte	0x27
	.byte	0x3b
	.byte	0x14
	.byte	0x14
	.byte	0x24
	.byte	0x17
	.byte	0x1f
	.byte	0x23
	.uleb128 0x20
	.byte	0x25
	.byte	0x21
	.byte	0x27
	.byte	0x38
	.byte	0x14
	.byte	0x14
	.byte	0x24
	.byte	0x17
	.byte	0x1f
	.byte	0x23
	.uleb128 0x20
	.byte	0x25
	.byte	0x21
	.byte	0x27
	.byte	0x91
	.sleb128 -68
	.byte	0x6
	.byte	0x23
	.uleb128 0x8
	.byte	0x6
	.byte	0x27
	.byte	0x91
	.sleb128 -64
	.byte	0x6
	.byte	0x27
	.byte	0x35
	.byte	0x14
	.byte	0x14
	.byte	0x24
	.byte	0x17
	.byte	0x1f
	.byte	0x23
	.uleb128 0x20
	.byte	0x25
	.byte	0x21
	.byte	0x91
	.sleb128 -68
	.byte	0x6
	.byte	0x6
	.byte	0x91
	.sleb128 -68
	.byte	0x6
	.byte	0x23
	.uleb128 0x10
	.byte	0x6
	.byte	0x27
	.byte	0x91
	.sleb128 -68
	.byte	0x6
	.byte	0x23
	.uleb128 0x20
	.byte	0x6
	.byte	0x27
	.byte	0x35
	.byte	0x14
	.byte	0x14
	.byte	0x24
	.byte	0x17
	.byte	0x1f
	.byte	0x23
	.uleb128 0x20
	.byte	0x25
	.byte	0x21
	.byte	0x91
	.sleb128 -68
	.byte	0x6
	.byte	0x6
	.byte	0x91
	.sleb128 -68
	.byte	0x6
	.byte	0x23
	.uleb128 0x10
	.byte	0x6
	.byte	0x27
	.byte	0x91
	.sleb128 -68
	.byte	0x6
	.byte	0x23
	.uleb128 0x20
	.byte	0x6
	.byte	0x27
	.byte	0x3e
	.byte	0x14
	.byte	0x14
	.byte	0x24
	.byte	0x17
	.byte	0x1f
	.byte	0x23
	.uleb128 0x20
	.byte	0x25
	.byte	0x21
	.byte	0x27
	.byte	0x91
	.sleb128 -68
	.byte	0x6
	.byte	0x23
	.uleb128 0x14
	.byte	0x6
	.byte	0x27
	.byte	0x72
	.sleb128 0
	.byte	0x27
	.byte	0x91
	.sleb128 -68
	.byte	0x6
	.byte	0x23
	.uleb128 0x4
	.byte	0x6
	.byte	0x91
	.sleb128 -68
	.byte	0x6
	.byte	0x23
	.uleb128 0x14
	.byte	0x6
	.byte	0x27
	.byte	0x91
	.sleb128 -68
	.byte	0x6
	.byte	0x23
	.uleb128 0x24
	.byte	0x6
	.byte	0x27
	.byte	0x35
	.byte	0x14
	.byte	0x14
	.byte	0x24
	.byte	0x17
	.byte	0x1f
	.byte	0x23
	.uleb128 0x20
	.byte	0x25
	.byte	0x21
	.byte	0x91
	.sleb128 -68
	.byte	0x6
	.byte	0x23
	.uleb128 0x4
	.byte	0x6
	.byte	0x91
	.sleb128 -68
	.byte	0x6
	.byte	0x23
	.uleb128 0x14
	.byte	0x6
	.byte	0x27
	.byte	0x91
	.sleb128 -68
	.byte	0x6
	.byte	0x23
	.uleb128 0x24
	.byte	0x6
	.byte	0x27
	.byte	0x3e
	.byte	0x14
	.byte	0x14
	.byte	0x24
	.byte	0x17
	.byte	0x1f
	.byte	0x23
	.uleb128 0x20
	.byte	0x25
	.byte	0x21
	.byte	0x27
	.byte	0x91
	.sleb128 -68
	.byte	0x6
	.byte	0x23
	.uleb128 0x28
	.byte	0x6
	.byte	0x27
	.byte	0x3b
	.byte	0x14
	.byte	0x14
	.byte	0x24
	.byte	0x17
	.byte	0x1f
	.byte	0x23
	.uleb128 0x20
	.byte	0x25
	.byte	0x21
	.byte	0x1a
	.byte	0x91
	.sleb128 -68
	.byte	0x6
	.byte	0x23
	.uleb128 0x4
	.byte	0x6
	.byte	0x91
	.sleb128 -68
	.byte	0x6
	.byte	0x23
	.uleb128 0x14
	.byte	0x6
	.byte	0x27
	.byte	0x91
	.sleb128 -68
	.byte	0x6
	.byte	0x23
	.uleb128 0x24
	.byte	0x6
	.byte	0x27
	.byte	0x35
	.byte	0x14
	.byte	0x14
	.byte	0x24
	.byte	0x17
	.byte	0x1f
	.byte	0x23
	.uleb128 0x20
	.byte	0x25
	.byte	0x21
	.byte	0x27
	.byte	0x91
	.sleb128 -68
	.byte	0x6
	.byte	0x23
	.uleb128 0x4
	.byte	0x6
	.byte	0x91
	.sleb128 -68
	.byte	0x6
	.byte	0x23
	.uleb128 0x14
	.byte	0x6
	.byte	0x27
	.byte	0x91
	.sleb128 -68
	.byte	0x6
	.byte	0x23
	.uleb128 0x24
	.byte	0x6
	.byte	0x27
	.byte	0x3e
	.byte	0x14
	.byte	0x14
	.byte	0x24
	.byte	0x17
	.byte	0x1f
	.byte	0x23
	.uleb128 0x20
	.byte	0x25
	.byte	0x21
	.byte	0x27
	.byte	0x91
	.sleb128 -68
	.byte	0x6
	.byte	0x23
	.uleb128 0xc
	.byte	0x6
	.byte	0x91
	.sleb128 -68
	.byte	0x6
	.byte	0x23
	.uleb128 0x1c
	.byte	0x6
	.byte	0x27
	.byte	0x91
	.sleb128 -68
	.byte	0x6
	.byte	0x23
	.uleb128 0x2c
	.byte	0x6
	.byte	0x27
	.byte	0x35
	.byte	0x14
	.byte	0x14
	.byte	0x24
	.byte	0x17
	.byte	0x1f
	.byte	0x23
	.uleb128 0x20
	.byte	0x25
	.byte	0x21
	.byte	0x91
	.sleb128 -68
	.byte	0x6
	.byte	0x23
	.uleb128 0xc
	.byte	0x6
	.byte	0x91
	.sleb128 -68
	.byte	0x6
	.byte	0x23
	.uleb128 0x1c
	.byte	0x6
	.byte	0x27
	.byte	0x91
	.sleb128 -68
	.byte	0x6
	.byte	0x23
	.uleb128 0x2c
	.byte	0x6
	.byte	0x27
	.byte	0x3e
	.byte	0x14
	.byte	0x14
	.byte	0x24
	.byte	0x17
	.byte	0x1f
	.byte	0x23
	.uleb128 0x20
	.byte	0x25
	.byte	0x21
	.byte	0x27
	.byte	0x91
	.sleb128 -68
	.byte	0x6
	.byte	0x23
	.uleb128 0x20
	.byte	0x6
	.byte	0x27
	.byte	0x3b
	.byte	0x14
	.byte	0x14
	.byte	0x24
	.byte	0x17
	.byte	0x1f
	.byte	0x23
	.uleb128 0x20
	.byte	0x25
	.byte	0x21
	.byte	0x72
	.sleb128 0
	.byte	0x27
	.byte	0x91
	.sleb128 -56
	.byte	0x6
	.byte	0x1a
	.byte	0x91
	.sleb128 -48
	.byte	0x6
	.byte	0x27
	.byte	0x91
	.sleb128 -56
	.byte	0x6
	.byte	0x20
	.byte	0x1a
	.byte	0x91
	.sleb128 -68
	.byte	0x6
	.byte	0x23
	.uleb128 0xc
	.byte	0x6
	.byte	0x91
	.sleb128 -68
	.byte	0x6
	.byte	0x23
	.uleb128 0x1c
	.byte	0x6
	.byte	0x27
	.byte	0x91
	.sleb128 -68
	.byte	0x6
	.byte	0x23
	.uleb128 0x2c
	.byte	0x6
	.byte	0x27
	.byte	0x35
	.byte	0x14
	.byte	0x14
	.byte	0x24
	.byte	0x17
	.byte	0x1f
	.byte	0x23
	.uleb128 0x20
	.byte	0x25
	.byte	0x21
	.byte	0x91
	.sleb128 -68
	.byte	0x6
	.byte	0x23
	.uleb128 0xc
	.byte	0x6
	.byte	0x91
	.sleb128 -68
	.byte	0x6
	.byte	0x23
	.uleb128 0x1c
	.byte	0x6
	.byte	0x27
	.byte	0x91
	.sleb128 -68
	.byte	0x6
	.byte	0x23
	.uleb128 0x2c
	.byte	0x6
	.byte	0x27
	.byte	0x3e
	.byte	0x14
	.byte	0x14
	.byte	0x24
	.byte	0x17
	.byte	0x1f
	.byte	0x23
	.uleb128 0x20
	.byte	0x25
	.byte	0x21
	.byte	0x27
	.byte	0x91
	.sleb128 -68
	.byte	0x6
	.byte	0x23
	.uleb128 0x20
	.byte	0x6
	.byte	0x27
	.byte	0x3b
	.byte	0x14
	.byte	0x14
	.byte	0x24
	.byte	0x17
	.byte	0x1f
	.byte	0x23
	.uleb128 0x20
	.byte	0x25
	.byte	0x21
	.byte	0x27
	.byte	0x38
	.byte	0x14
	.byte	0x14
	.byte	0x24
	.byte	0x17
	.byte	0x1f
	.byte	0x23
	.uleb128 0x20
	.byte	0x25
	.byte	0x21
	.byte	0x27
	.byte	0x91
	.sleb128 -68
	.byte	0x6
	.byte	0x23
	.uleb128 0x8
	.byte	0x6
	.byte	0x27
	.byte	0x91
	.sleb128 -64
	.byte	0x6
	.byte	0x27
	.byte	0x3e
	.byte	0x14
	.byte	0x14
	.byte	0x24
	.byte	0x17
	.byte	0x1f
	.byte	0x23
	.uleb128 0x20
	.byte	0x25
	.byte	0x21
	.byte	0x27
	.byte	0x9f
	.4byte	.LVL244-.Ltext0
	.4byte	.LVL247-.Ltext0
	.2byte	0x1
	.byte	0x59
	.4byte	.LVL249-.Ltext0
	.4byte	.LVL254-.Ltext0
	.2byte	0x1
	.byte	0x59
	.4byte	.LVL258-.Ltext0
	.4byte	.LVL259-.Ltext0
	.2byte	0x1
	.byte	0x57
	.4byte	.LVL281-.Ltext0
	.4byte	.LVL284-.Ltext0
	.2byte	0x1
	.byte	0x59
	.4byte	.LVL287-.Ltext0
	.4byte	.LVL292-.Ltext0
	.2byte	0x1
	.byte	0x59
	.4byte	.LVL294-.Ltext0
	.4byte	.LVL296-.Ltext0
	.2byte	0x1
	.byte	0x57
	.4byte	.LVL322-.Ltext0
	.4byte	.LVL326-.Ltext0
	.2byte	0x1
	.byte	0x5d
	.4byte	.LVL330-.Ltext0
	.4byte	.LVL335-.Ltext0
	.2byte	0x1
	.byte	0x5b
	.4byte	.LVL352-.Ltext0
	.4byte	.LVL354-.Ltext0
	.2byte	0x1
	.byte	0x56
	.4byte	.LVL357-.Ltext0
	.4byte	.LVL362-.Ltext0
	.2byte	0x1
	.byte	0x56
	.4byte	0
	.4byte	0
.LVUS42:
	.uleb128 0
	.uleb128 .LVU316
	.uleb128 .LVU316
	.uleb128 .LVU317
	.uleb128 .LVU317
	.uleb128 .LVU318
	.uleb128 .LVU318
	.uleb128 .LVU319
	.uleb128 .LVU319
	.uleb128 .LVU443
	.uleb128 .LVU443
	.uleb128 0
.LLST42:
	.4byte	.LVL85-.Ltext0
	.4byte	.LVL86-.Ltext0
	.2byte	0x1
	.byte	0x52
	.4byte	.LVL86-.Ltext0
	.4byte	.LVL87-.Ltext0
	.2byte	0x1
	.byte	0x56
	.4byte	.LVL87-.Ltext0
	.4byte	.LVL88-.Ltext0
	.2byte	0x1
	.byte	0x57
	.4byte	.LVL88-.Ltext0
	.4byte	.LVL89-.Ltext0
	.2byte	0x1
	.byte	0x58
	.4byte	.LVL89-.Ltext0
	.4byte	.LVL148-.Ltext0
	.2byte	0x2
	.byte	0x91
	.sleb128 -32
	.4byte	.LVL148-.Ltext0
	.4byte	.LFE9-.Ltext0
	.2byte	0x2
	.byte	0x71
	.sleb128 -32
	.4byte	0
	.4byte	0
.LVUS43:
	.uleb128 0
	.uleb128 .LVU334
	.uleb128 .LVU334
	.uleb128 0
.LLST43:
	.4byte	.LVL85-.Ltext0
	.4byte	.LVL98-.Ltext0
	.2byte	0x1
	.byte	0x53
	.4byte	.LVL98-.Ltext0
	.4byte	.LFE9-.Ltext0
	.2byte	0x4
	.byte	0xf3
	.uleb128 0x1
	.byte	0x53
	.byte	0x9f
	.4byte	0
	.4byte	0
.LVUS44:
	.uleb128 .LVU323
	.uleb128 .LVU325
	.uleb128 .LVU325
	.uleb128 .LVU343
	.uleb128 .LVU343
	.uleb128 .LVU351
	.uleb128 .LVU351
	.uleb128 .LVU384
	.uleb128 .LVU386
	.uleb128 .LVU389
	.uleb128 .LVU391
	.uleb128 .LVU392
	.uleb128 .LVU392
	.uleb128 .LVU443
	.uleb128 .LVU443
	.uleb128 0
.LLST44:
	.4byte	.LVL90-.Ltext0
	.4byte	.LVL92-.Ltext0
	.2byte	0x1
	.byte	0x52
	.4byte	.LVL92-.Ltext0
	.4byte	.LVL104-.Ltext0
	.2byte	0x3
	.byte	0x91
	.sleb128 -32
	.byte	0x6
	.4byte	.LVL104-.Ltext0
	.4byte	.LVL110-.Ltext0
	.2byte	0x2
	.byte	0x71
	.sleb128 0
	.4byte	.LVL110-.Ltext0
	.4byte	.LVL117-.Ltext0
	.2byte	0x7
	.byte	0x71
	.sleb128 0
	.byte	0x6
	.byte	0x76
	.sleb128 0
	.byte	0x27
	.byte	0x9f
	.4byte	.LVL119-.Ltext0
	.4byte	.LVL121-.Ltext0
	.2byte	0x1
	.byte	0x56
	.4byte	.LVL123-.Ltext0
	.4byte	.LVL124-.Ltext0
	.2byte	0x1
	.byte	0x58
	.4byte	.LVL124-.Ltext0
	.4byte	.LVL148-.Ltext0
	.2byte	0x2
	.byte	0x71
	.sleb128 0
	.4byte	.LVL148-.Ltext0
	.4byte	.LFE9-.Ltext0
	.2byte	0x2
	.byte	0x71
	.sleb128 -64
	.4byte	0
	.4byte	0
.LVUS45:
	.uleb128 .LVU324
	.uleb128 .LVU326
	.uleb128 .LVU326
	.uleb128 .LVU343
	.uleb128 .LVU343
	.uleb128 .LVU361
	.uleb128 .LVU361
	.uleb128 .LVU390
	.uleb128 .LVU399
	.uleb128 .LVU443
	.uleb128 .LVU443
	.uleb128 0
.LLST45:
	.4byte	.LVL91-.Ltext0
	.4byte	.LVL93-.Ltext0
	.2byte	0x1
	.byte	0x56
	.4byte	.LVL93-.Ltext0
	.4byte	.LVL104-.Ltext0
	.2byte	0x5
	.byte	0x91
	.sleb128 -32
	.byte	0x6
	.byte	0x23
	.uleb128 0x4
	.4byte	.LVL104-.Ltext0
	.4byte	.LVL116-.Ltext0
	.2byte	0x2
	.byte	0x91
	.sleb128 -60
	.4byte	.LVL116-.Ltext0
	.4byte	.LVL122-.Ltext0
	.2byte	0x7
	.byte	0x91
	.sleb128 -60
	.byte	0x6
	.byte	0x77
	.sleb128 0
	.byte	0x27
	.byte	0x9f
	.4byte	.LVL126-.Ltext0
	.4byte	.LVL148-.Ltext0
	.2byte	0x2
	.byte	0x91
	.sleb128 -60
	.4byte	.LVL148-.Ltext0
	.4byte	.LFE9-.Ltext0
	.2byte	0x2
	.byte	0x71
	.sleb128 -60
	.4byte	0
	.4byte	0
.LVUS46:
	.uleb128 .LVU330
	.uleb128 .LVU343
	.uleb128 .LVU343
	.uleb128 .LVU366
	.uleb128 .LVU366
	.uleb128 .LVU388
	.uleb128 .LVU402
	.uleb128 .LVU443
	.uleb128 .LVU443
	.uleb128 0
.LLST46:
	.4byte	.LVL94-.Ltext0
	.4byte	.LVL104-.Ltext0
	.2byte	0x1
	.byte	0x57
	.4byte	.LVL104-.Ltext0
	.4byte	.LVL116-.Ltext0
	.2byte	0x2
	.byte	0x91
	.sleb128 -56
	.4byte	.LVL116-.Ltext0
	.4byte	.LVL120-.Ltext0
	.2byte	0x7
	.byte	0x91
	.sleb128 -56
	.byte	0x6
	.byte	0x75
	.sleb128 0
	.byte	0x27
	.byte	0x9f
	.4byte	.LVL127-.Ltext0
	.4byte	.LVL148-.Ltext0
	.2byte	0x2
	.byte	0x91
	.sleb128 -56
	.4byte	.LVL148-.Ltext0
	.4byte	.LFE9-.Ltext0
	.2byte	0x2
	.byte	0x71
	.sleb128 -56
	.4byte	0
	.4byte	0
.LVUS47:
	.uleb128 .LVU331
	.uleb128 .LVU343
	.uleb128 .LVU343
	.uleb128 .LVU370
	.uleb128 .LVU370
	.uleb128 .LVU393
	.uleb128 .LVU405
	.uleb128 .LVU406
	.uleb128 .LVU406
	.uleb128 .LVU412
	.uleb128 .LVU412
	.uleb128 .LVU443
	.uleb128 .LVU443
	.uleb128 0
.LLST47:
	.4byte	.LVL95-.Ltext0
	.4byte	.LVL104-.Ltext0
	.2byte	0x1
	.byte	0x58
	.4byte	.LVL104-.Ltext0
	.4byte	.LVL116-.Ltext0
	.2byte	0x2
	.byte	0x91
	.sleb128 -52
	.4byte	.LVL116-.Ltext0
	.4byte	.LVL125-.Ltext0
	.2byte	0x7
	.byte	0x91
	.sleb128 -52
	.byte	0x6
	.byte	0x74
	.sleb128 0
	.byte	0x27
	.byte	0x9f
	.4byte	.LVL128-.Ltext0
	.4byte	.LVL129-.Ltext0
	.2byte	0x1
	.byte	0x5e
	.4byte	.LVL129-.Ltext0
	.4byte	.LVL133-.Ltext0
	.2byte	0x1
	.byte	0x57
	.4byte	.LVL133-.Ltext0
	.4byte	.LVL148-.Ltext0
	.2byte	0x2
	.byte	0x91
	.sleb128 -52
	.4byte	.LVL148-.Ltext0
	.4byte	.LFE9-.Ltext0
	.2byte	0x2
	.byte	0x71
	.sleb128 -52
	.4byte	0
	.4byte	0
.LVUS48:
	.uleb128 .LVU332
	.uleb128 .LVU355
	.uleb128 .LVU357
	.uleb128 .LVU382
	.uleb128 .LVU382
	.uleb128 .LVU397
	.uleb128 .LVU397
	.uleb128 .LVU418
	.uleb128 .LVU418
	.uleb128 .LVU436
	.uleb128 .LVU436
	.uleb128 0
.LLST48:
	.4byte	.LVL96-.Ltext0
	.4byte	.LVL114-.Ltext0
	.2byte	0x1
	.byte	0x5c
	.4byte	.LVL116-.Ltext0
	.4byte	.LVL116-.Ltext0
	.2byte	0x1
	.byte	0x5c
	.4byte	.LVL116-.Ltext0
	.4byte	.LVL126-.Ltext0
	.2byte	0x1
	.byte	0x5a
	.4byte	.LVL126-.Ltext0
	.4byte	.LVL137-.Ltext0
	.2byte	0x1
	.byte	0x56
	.4byte	.LVL137-.Ltext0
	.4byte	.LVL144-.Ltext0
	.2byte	0x1
	.byte	0x5c
	.4byte	.LVL144-.Ltext0
	.4byte	.LFE9-.Ltext0
	.2byte	0x2
	.byte	0x76
	.sleb128 16
	.4byte	0
	.4byte	0
.LVUS49:
	.uleb128 .LVU333
	.uleb128 .LVU349
	.uleb128 .LVU362
	.uleb128 .LVU381
	.uleb128 .LVU381
	.uleb128 .LVU385
	.uleb128 .LVU385
	.uleb128 .LVU400
	.uleb128 .LVU400
	.uleb128 0
.LLST49:
	.4byte	.LVL97-.Ltext0
	.4byte	.LVL109-.Ltext0
	.2byte	0x1
	.byte	0x5b
	.4byte	.LVL116-.Ltext0
	.4byte	.LVL116-.Ltext0
	.2byte	0x2
	.byte	0x91
	.sleb128 -44
	.4byte	.LVL116-.Ltext0
	.4byte	.LVL118-.Ltext0
	.2byte	0x1
	.byte	0x5c
	.4byte	.LVL118-.Ltext0
	.4byte	.LVL127-.Ltext0
	.2byte	0x2
	.byte	0x91
	.sleb128 -48
	.4byte	.LVL127-.Ltext0
	.4byte	.LFE9-.Ltext0
	.2byte	0x1
	.byte	0x5b
	.4byte	0
	.4byte	0
.LVUS50:
	.uleb128 .LVU335
	.uleb128 .LVU348
	.uleb128 .LVU367
	.uleb128 .LVU380
	.uleb128 .LVU380
	.uleb128 .LVU403
	.uleb128 .LVU403
	.uleb128 0
.LLST50:
	.4byte	.LVL99-.Ltext0
	.4byte	.LVL108-.Ltext0
	.2byte	0x1
	.byte	0x5a
	.4byte	.LVL116-.Ltext0
	.4byte	.LVL116-.Ltext0
	.2byte	0x2
	.byte	0x91
	.sleb128 -28
	.4byte	.LVL116-.Ltext0
	.4byte	.LVL128-.Ltext0
	.2byte	0x2
	.byte	0x91
	.sleb128 -44
	.4byte	.LVL128-.Ltext0
	.4byte	.LFE9-.Ltext0
	.2byte	0x1
	.byte	0x5a
	.4byte	0
	.4byte	0
.LVUS51:
	.uleb128 .LVU335
	.uleb128 .LVU343
	.uleb128 .LVU343
	.uleb128 .LVU352
	.uleb128 .LVU371
	.uleb128 .LVU379
	.uleb128 .LVU379
	.uleb128 .LVU407
	.uleb128 .LVU407
	.uleb128 .LVU415
	.uleb128 .LVU421
	.uleb128 .LVU433
	.uleb128 .LVU433
	.uleb128 .LVU437
	.uleb128 .LVU437
	.uleb128 0
.LLST51:
	.4byte	.LVL99-.Ltext0
	.4byte	.LVL104-.Ltext0
	.2byte	0x1
	.byte	0x5d
	.4byte	.LVL104-.Ltext0
	.4byte	.LVL111-.Ltext0
	.2byte	0x1
	.byte	0x5e
	.4byte	.LVL116-.Ltext0
	.4byte	.LVL116-.Ltext0
	.2byte	0x1
	.byte	0x5a
	.4byte	.LVL116-.Ltext0
	.4byte	.LVL130-.Ltext0
	.2byte	0x2
	.byte	0x91
	.sleb128 -28
	.4byte	.LVL130-.Ltext0
	.4byte	.LVL135-.Ltext0
	.2byte	0x1
	.byte	0x54
	.4byte	.LVL139-.Ltext0
	.4byte	.LVL143-.Ltext0
	.2byte	0x1
	.byte	0x5e
	.4byte	.LVL143-.Ltext0
	.4byte	.LVL145-.Ltext0
	.2byte	0x1
	.byte	0x5d
	.4byte	.LVL145-.Ltext0
	.4byte	.LFE9-.Ltext0
	.2byte	0x2
	.byte	0x76
	.sleb128 28
	.4byte	0
	.4byte	0
.LVUS52:
	.uleb128 .LVU336
	.uleb128 .LVU343
	.uleb128 .LVU343
	.uleb128 .LVU358
	.uleb128 .LVU374
	.uleb128 .LVU398
	.uleb128 .LVU398
	.uleb128 .LVU417
	.uleb128 .LVU427
	.uleb128 .LVU432
	.uleb128 .LVU432
	.uleb128 .LVU433
	.uleb128 .LVU433
	.uleb128 .LVU438
	.uleb128 .LVU438
	.uleb128 0
.LLST52:
	.4byte	.LVL100-.Ltext0
	.4byte	.LVL104-.Ltext0
	.2byte	0x1
	.byte	0x5e
	.4byte	.LVL104-.Ltext0
	.4byte	.LVL116-.Ltext0
	.2byte	0x2
	.byte	0x91
	.sleb128 -36
	.4byte	.LVL116-.Ltext0
	.4byte	.LVL126-.Ltext0
	.2byte	0x1
	.byte	0x52
	.4byte	.LVL126-.Ltext0
	.4byte	.LVL136-.Ltext0
	.2byte	0xb
	.byte	0x71
	.sleb128 0
	.byte	0x6
	.byte	0x20
	.byte	0x76
	.sleb128 0
	.byte	0x1a
	.byte	0x72
	.sleb128 0
	.byte	0x27
	.byte	0x9f
	.4byte	.LVL141-.Ltext0
	.4byte	.LVL142-.Ltext0
	.2byte	0x1
	.byte	0x5d
	.4byte	.LVL142-.Ltext0
	.4byte	.LVL143-.Ltext0
	.2byte	0x2
	.byte	0x91
	.sleb128 -36
	.4byte	.LVL143-.Ltext0
	.4byte	.LVL146-.Ltext0
	.2byte	0x1
	.byte	0x5e
	.4byte	.LVL146-.Ltext0
	.4byte	.LFE9-.Ltext0
	.2byte	0x2
	.byte	0x76
	.sleb128 32
	.4byte	0
	.4byte	0
.LVUS53:
	.uleb128 .LVU336
	.uleb128 .LVU356
	.uleb128 .LVU375
	.uleb128 .LVU401
	.uleb128 .LVU401
	.uleb128 .LVU411
	.uleb128 .LVU424
	.uleb128 0
.LLST53:
	.4byte	.LVL100-.Ltext0
	.4byte	.LVL115-.Ltext0
	.2byte	0x1
	.byte	0x53
	.4byte	.LVL116-.Ltext0
	.4byte	.LVL127-.Ltext0
	.2byte	0x1
	.byte	0x53
	.4byte	.LVL127-.Ltext0
	.4byte	.LVL132-.Ltext0
	.2byte	0xb
	.byte	0x91
	.sleb128 -60
	.byte	0x6
	.byte	0x20
	.byte	0x7b
	.sleb128 0
	.byte	0x1a
	.byte	0x73
	.sleb128 0
	.byte	0x27
	.byte	0x9f
	.4byte	.LVL140-.Ltext0
	.4byte	.LFE9-.Ltext0
	.2byte	0x1
	.byte	0x53
	.4byte	0
	.4byte	0
.LVUS54:
	.uleb128 .LVU337
	.uleb128 .LVU353
	.uleb128 .LVU376
	.uleb128 .LVU404
	.uleb128 .LVU404
	.uleb128 .LVU413
	.uleb128 .LVU426
	.uleb128 0
.LLST54:
	.4byte	.LVL101-.Ltext0
	.4byte	.LVL112-.Ltext0
	.2byte	0x1
	.byte	0x52
	.4byte	.LVL116-.Ltext0
	.4byte	.LVL128-.Ltext0
	.2byte	0x1
	.byte	0x5d
	.4byte	.LVL128-.Ltext0
	.4byte	.LVL134-.Ltext0
	.2byte	0xb
	.byte	0x91
	.sleb128 -56
	.byte	0x6
	.byte	0x20
	.byte	0x7a
	.sleb128 0
	.byte	0x1a
	.byte	0x7d
	.sleb128 0
	.byte	0x27
	.byte	0x9f
	.4byte	.LVL141-.Ltext0
	.4byte	.LFE9-.Ltext0
	.2byte	0x1
	.byte	0x52
	.4byte	0
	.4byte	0
.LVUS55:
	.uleb128 .LVU338
	.uleb128 .LVU354
	.uleb128 .LVU377
	.uleb128 .LVU408
	.uleb128 .LVU408
	.uleb128 .LVU410
	.uleb128 .LVU423
	.uleb128 .LVU439
	.uleb128 .LVU439
	.uleb128 0
.LLST55:
	.4byte	.LVL102-.Ltext0
	.4byte	.LVL113-.Ltext0
	.2byte	0x1
	.byte	0x5f
	.4byte	.LVL116-.Ltext0
	.4byte	.LVL130-.Ltext0
	.2byte	0x1
	.byte	0x5f
	.4byte	.LVL130-.Ltext0
	.4byte	.LVL131-.Ltext0
	.2byte	0xa
	.byte	0x77
	.sleb128 0
	.byte	0x20
	.byte	0x74
	.sleb128 0
	.byte	0x1a
	.byte	0x7f
	.sleb128 0
	.byte	0x27
	.byte	0x9f
	.4byte	.LVL140-.Ltext0
	.4byte	.LVL147-.Ltext0
	.2byte	0x1
	.byte	0x5f
	.4byte	.LVL147-.Ltext0
	.4byte	.LFE9-.Ltext0
	.2byte	0x2
	.byte	0x76
	.sleb128 44
	.4byte	0
	.4byte	0
.LVUS56:
	.uleb128 .LVU344
	.uleb128 .LVU346
	.uleb128 .LVU346
	.uleb128 .LVU350
	.uleb128 .LVU350
	.uleb128 .LVU359
	.uleb128 .LVU365
	.uleb128 .LVU378
	.uleb128 .LVU378
	.uleb128 .LVU403
	.uleb128 .LVU422
	.uleb128 .LVU425
	.uleb128 .LVU425
	.uleb128 .LVU432
	.uleb128 .LVU432
	.uleb128 .LVU433
.LLST56:
	.4byte	.LVL105-.Ltext0
	.4byte	.LVL106-.Ltext0
	.2byte	0x1
	.byte	0x58
	.4byte	.LVL106-.Ltext0
	.4byte	.LVL110-.Ltext0
	.2byte	0xa
	.byte	0x91
	.sleb128 -52
	.byte	0x6
	.byte	0x7e
	.sleb128 0
	.byte	0x27
	.byte	0x7f
	.sleb128 0
	.byte	0x27
	.byte	0x9f
	.4byte	.LVL110-.Ltext0
	.4byte	.LVL116-.Ltext0
	.2byte	0x1
	.byte	0x56
	.4byte	.LVL116-.Ltext0
	.4byte	.LVL116-.Ltext0
	.2byte	0x1
	.byte	0x55
	.4byte	.LVL116-.Ltext0
	.4byte	.LVL128-.Ltext0
	.2byte	0x1
	.byte	0x5a
	.4byte	.LVL139-.Ltext0
	.4byte	.LVL140-.Ltext0
	.2byte	0x1
	.byte	0x53
	.4byte	.LVL140-.Ltext0
	.4byte	.LVL142-.Ltext0
	.2byte	0x1
	.byte	0x5d
	.4byte	.LVL142-.Ltext0
	.4byte	.LVL143-.Ltext0
	.2byte	0x2
	.byte	0x91
	.sleb128 -36
	.4byte	0
	.4byte	0
.LVUS57:
	.uleb128 .LVU345
	.uleb128 .LVU347
	.uleb128 .LVU347
	.uleb128 .LVU355
	.uleb128 .LVU360
	.uleb128 .LVU364
	.uleb128 .LVU369
	.uleb128 .LVU393
.LLST57:
	.4byte	.LVL105-.Ltext0
	.4byte	.LVL107-.Ltext0
	.2byte	0x1
	.byte	0x57
	.4byte	.LVL107-.Ltext0
	.4byte	.LVL114-.Ltext0
	.2byte	0xb
	.byte	0x71
	.sleb128 0
	.byte	0x6
	.byte	0x7c
	.sleb128 0
	.byte	0x27
	.byte	0x91
	.sleb128 -36
	.byte	0x6
	.byte	0x27
	.byte	0x9f
	.4byte	.LVL116-.Ltext0
	.4byte	.LVL116-.Ltext0
	.2byte	0x1
	.byte	0x57
	.4byte	.LVL116-.Ltext0
	.4byte	.LVL125-.Ltext0
	.2byte	0x1
	.byte	0x54
	.4byte	0
	.4byte	0
.LVUS58:
	.uleb128 .LVU339
	.uleb128 .LVU341
	.uleb128 .LVU341
	.uleb128 .LVU343
.LLST58:
	.4byte	.LVL102-.Ltext0
	.4byte	.LVL103-.Ltext0
	.2byte	0x1
	.byte	0x54
	.4byte	.LVL103-.Ltext0
	.4byte	.LVL104-.Ltext0
	.2byte	0x6
	.byte	0x3c
	.byte	0xf3
	.uleb128 0x1
	.byte	0x53
	.byte	0x1c
	.byte	0x9f
	.4byte	0
	.4byte	0
.LVUS25:
	.uleb128 0
	.uleb128 .LVU210
	.uleb128 .LVU210
	.uleb128 .LVU213
	.uleb128 .LVU213
	.uleb128 .LVU217
	.uleb128 .LVU217
	.uleb128 0
.LLST25:
	.4byte	.LVL45-.Ltext0
	.4byte	.LVL49-.Ltext0
	.2byte	0x1
	.byte	0x52
	.4byte	.LVL49-.Ltext0
	.4byte	.LVL51-.Ltext0
	.2byte	0x4
	.byte	0xf3
	.uleb128 0x1
	.byte	0x52
	.byte	0x9f
	.4byte	.LVL51-.Ltext0
	.4byte	.LVL52-.Ltext0
	.2byte	0x1
	.byte	0x52
	.4byte	.LVL52-.Ltext0
	.4byte	.LFE8-.Ltext0
	.2byte	0x4
	.byte	0xf3
	.uleb128 0x1
	.byte	0x52
	.byte	0x9f
	.4byte	0
	.4byte	0
.LVUS26:
	.uleb128 0
	.uleb128 .LVU211
	.uleb128 .LVU211
	.uleb128 .LVU213
	.uleb128 .LVU213
	.uleb128 .LVU261
	.uleb128 .LVU261
	.uleb128 0
.LLST26:
	.4byte	.LVL45-.Ltext0
	.4byte	.LVL50-.Ltext0
	.2byte	0x1
	.byte	0x53
	.4byte	.LVL50-.Ltext0
	.4byte	.LVL51-.Ltext0
	.2byte	0x4
	.byte	0xf3
	.uleb128 0x1
	.byte	0x53
	.byte	0x9f
	.4byte	.LVL51-.Ltext0
	.4byte	.LVL66-.Ltext0
	.2byte	0x1
	.byte	0x53
	.4byte	.LVL66-.Ltext0
	.4byte	.LFE8-.Ltext0
	.2byte	0x4
	.byte	0xf3
	.uleb128 0x1
	.byte	0x53
	.byte	0x9f
	.4byte	0
	.4byte	0
.LVUS27:
	.uleb128 0
	.uleb128 .LVU262
	.uleb128 .LVU262
	.uleb128 0
.LLST27:
	.4byte	.LVL45-.Ltext0
	.4byte	.LVL67-.Ltext0
	.2byte	0x1
	.byte	0x54
	.4byte	.LVL67-.Ltext0
	.4byte	.LFE8-.Ltext0
	.2byte	0x4
	.byte	0xf3
	.uleb128 0x1
	.byte	0x54
	.byte	0x9f
	.4byte	0
	.4byte	0
.LVUS28:
	.uleb128 0
	.uleb128 .LVU176
	.uleb128 .LVU176
	.uleb128 .LVU213
	.uleb128 .LVU213
	.uleb128 .LVU218
	.uleb128 .LVU218
	.uleb128 0
.LLST28:
	.4byte	.LVL45-.Ltext0
	.4byte	.LVL48-.Ltext0
	.2byte	0x1
	.byte	0x55
	.4byte	.LVL48-.Ltext0
	.4byte	.LVL51-.Ltext0
	.2byte	0x4
	.byte	0xf3
	.uleb128 0x1
	.byte	0x55
	.byte	0x9f
	.4byte	.LVL51-.Ltext0
	.4byte	.LVL53-.Ltext0
	.2byte	0x1
	.byte	0x55
	.4byte	.LVL53-.Ltext0
	.4byte	.LFE8-.Ltext0
	.2byte	0x4
	.byte	0xf3
	.uleb128 0x1
	.byte	0x55
	.byte	0x9f
	.4byte	0
	.4byte	0
.LVUS29:
	.uleb128 0
	.uleb128 .LVU175
	.uleb128 .LVU175
	.uleb128 .LVU213
	.uleb128 .LVU213
	.uleb128 .LVU239
	.uleb128 .LVU239
	.uleb128 0
.LLST29:
	.4byte	.LVL45-.Ltext0
	.4byte	.LVL47-.Ltext0
	.2byte	0x1
	.byte	0x56
	.4byte	.LVL47-.Ltext0
	.4byte	.LVL51-.Ltext0
	.2byte	0x4
	.byte	0xf3
	.uleb128 0x1
	.byte	0x56
	.byte	0x9f
	.4byte	.LVL51-.Ltext0
	.4byte	.LVL58-.Ltext0
	.2byte	0x1
	.byte	0x56
	.4byte	.LVL58-.Ltext0
	.4byte	.LFE8-.Ltext0
	.2byte	0x4
	.byte	0xf3
	.uleb128 0x1
	.byte	0x56
	.byte	0x9f
	.4byte	0
	.4byte	0
.LVUS30:
	.uleb128 .LVU171
	.uleb128 .LVU210
	.uleb128 .LVU210
	.uleb128 .LVU213
.LLST30:
	.4byte	.LVL46-.Ltext0
	.4byte	.LVL49-.Ltext0
	.2byte	0x1
	.byte	0x52
	.4byte	.LVL49-.Ltext0
	.4byte	.LVL51-.Ltext0
	.2byte	0x4
	.byte	0xf3
	.uleb128 0x1
	.byte	0x52
	.byte	0x9f
	.4byte	0
	.4byte	0
.LVUS31:
	.uleb128 .LVU172
	.uleb128 .LVU211
	.uleb128 .LVU211
	.uleb128 .LVU213
.LLST31:
	.4byte	.LVL46-.Ltext0
	.4byte	.LVL50-.Ltext0
	.2byte	0x1
	.byte	0x53
	.4byte	.LVL50-.Ltext0
	.4byte	.LVL51-.Ltext0
	.2byte	0x4
	.byte	0xf3
	.uleb128 0x1
	.byte	0x53
	.byte	0x9f
	.4byte	0
	.4byte	0
.LVUS32:
	.uleb128 .LVU173
	.uleb128 .LVU213
.LLST32:
	.4byte	.LVL46-.Ltext0
	.4byte	.LVL51-.Ltext0
	.2byte	0x1
	.byte	0x54
	.4byte	0
	.4byte	0
.LVUS33:
	.uleb128 .LVU214
	.uleb128 .LVU265
	.uleb128 .LVU265
	.uleb128 .LVU268
	.uleb128 .LVU268
	.uleb128 .LVU270
	.uleb128 .LVU275
	.uleb128 .LVU277
	.uleb128 .LVU281
	.uleb128 .LVU285
	.uleb128 .LVU285
	.uleb128 .LVU289
	.uleb128 .LVU289
	.uleb128 .LVU298
	.uleb128 .LVU298
	.uleb128 .LVU299
	.uleb128 .LVU299
	.uleb128 .LVU305
.LLST33:
	.4byte	.LVL51-.Ltext0
	.4byte	.LVL69-.Ltext0
	.2byte	0x1
	.byte	0x56
	.4byte	.LVL69-.Ltext0
	.4byte	.LVL70-.Ltext0
	.2byte	0x9
	.byte	0x73
	.sleb128 0
	.byte	0x76
	.sleb128 0
	.byte	0x22
	.byte	0x77
	.sleb128 0
	.byte	0x1c
	.byte	0x9f
	.4byte	.LVL70-.Ltext0
	.4byte	.LVL71-.Ltext0
	.2byte	0xb
	.byte	0x73
	.sleb128 0
	.byte	0x77
	.sleb128 0
	.byte	0x1c
	.byte	0x76
	.sleb128 0
	.byte	0x22
	.byte	0x23
	.uleb128 0x4
	.byte	0x9f
	.4byte	.LVL74-.Ltext0
	.4byte	.LVL75-.Ltext0
	.2byte	0x1
	.byte	0x56
	.4byte	.LVL76-.Ltext0
	.4byte	.LVL77-.Ltext0
	.2byte	0x1
	.byte	0x56
	.4byte	.LVL77-.Ltext0
	.4byte	.LVL78-.Ltext0
	.2byte	0x3
	.byte	0x76
	.sleb128 1
	.byte	0x9f
	.4byte	.LVL78-.Ltext0
	.4byte	.LVL81-.Ltext0
	.2byte	0x1
	.byte	0x56
	.4byte	.LVL81-.Ltext0
	.4byte	.LVL82-.Ltext0
	.2byte	0x5
	.byte	0x76
	.sleb128 0
	.byte	0x31
	.byte	0x2e
	.byte	0x9f
	.4byte	.LVL82-.Ltext0
	.4byte	.LVL84-.Ltext0
	.2byte	0x2
	.byte	0x31
	.byte	0x9f
	.4byte	0
	.4byte	0
.LVUS34:
	.uleb128 .LVU215
	.uleb128 .LVU218
	.uleb128 .LVU218
	.uleb128 .LVU305
.LLST34:
	.4byte	.LVL51-.Ltext0
	.4byte	.LVL53-.Ltext0
	.2byte	0x5
	.byte	0x75
	.sleb128 0
	.byte	0x32
	.byte	0x25
	.byte	0x9f
	.4byte	.LVL53-.Ltext0
	.4byte	.LVL84-.Ltext0
	.2byte	0x6
	.byte	0xf3
	.uleb128 0x1
	.byte	0x55
	.byte	0x32
	.byte	0x25
	.byte	0x9f
	.4byte	0
	.4byte	0
.LVUS35:
	.uleb128 .LVU218
	.uleb128 .LVU229
	.uleb128 .LVU229
	.uleb128 .LVU305
.LLST35:
	.4byte	.LVL53-.Ltext0
	.4byte	.LVL54-.Ltext0
	.2byte	0x1
	.byte	0x55
	.4byte	.LVL54-.Ltext0
	.4byte	.LVL84-.Ltext0
	.2byte	0x6
	.byte	0xf3
	.uleb128 0x1
	.byte	0x55
	.byte	0x33
	.byte	0x1a
	.byte	0x9f
	.4byte	0
	.4byte	0
.LVUS36:
	.uleb128 .LVU219
	.uleb128 .LVU241
	.uleb128 .LVU241
	.uleb128 .LVU247
	.uleb128 .LVU247
	.uleb128 .LVU256
	.uleb128 .LVU256
	.uleb128 .LVU260
	.uleb128 .LVU263
	.uleb128 .LVU265
	.uleb128 .LVU265
	.uleb128 .LVU268
	.uleb128 .LVU268
	.uleb128 .LVU271
	.uleb128 .LVU271
	.uleb128 .LVU275
	.uleb128 .LVU275
	.uleb128 .LVU277
	.uleb128 .LVU281
	.uleb128 .LVU283
	.uleb128 .LVU283
	.uleb128 .LVU292
	.uleb128 .LVU292
	.uleb128 .LVU301
	.uleb128 .LVU301
	.uleb128 .LVU302
.LLST36:
	.4byte	.LVL53-.Ltext0
	.4byte	.LVL58-.Ltext0
	.2byte	0x1
	.byte	0x53
	.4byte	.LVL58-.Ltext0
	.4byte	.LVL60-.Ltext0
	.2byte	0x3
	.byte	0x73
	.sleb128 1
	.byte	0x9f
	.4byte	.LVL60-.Ltext0
	.4byte	.LVL63-.Ltext0
	.2byte	0x3
	.byte	0x73
	.sleb128 2
	.byte	0x9f
	.4byte	.LVL63-.Ltext0
	.4byte	.LVL65-.Ltext0
	.2byte	0x3
	.byte	0x73
	.sleb128 3
	.byte	0x9f
	.4byte	.LVL68-.Ltext0
	.4byte	.LVL69-.Ltext0
	.2byte	0x1
	.byte	0x53
	.4byte	.LVL69-.Ltext0
	.4byte	.LVL70-.Ltext0
	.2byte	0x1
	.byte	0x57
	.4byte	.LVL70-.Ltext0
	.4byte	.LVL71-.Ltext0
	.2byte	0x3
	.byte	0x77
	.sleb128 -4
	.byte	0x9f
	.4byte	.LVL71-.Ltext0
	.4byte	.LVL74-.Ltext0
	.2byte	0x1
	.byte	0x57
	.4byte	.LVL74-.Ltext0
	.4byte	.LVL75-.Ltext0
	.2byte	0x1
	.byte	0x53
	.4byte	.LVL76-.Ltext0
	.4byte	.LVL76-.Ltext0
	.2byte	0x1
	.byte	0x53
	.4byte	.LVL76-.Ltext0
	.4byte	.LVL79-.Ltext0
	.2byte	0x3
	.byte	0x73
	.sleb128 1
	.byte	0x9f
	.4byte	.LVL79-.Ltext0
	.4byte	.LVL82-.Ltext0
	.2byte	0x3
	.byte	0x73
	.sleb128 2
	.byte	0x9f
	.4byte	.LVL82-.Ltext0
	.4byte	.LVL83-.Ltext0
	.2byte	0x3
	.byte	0x73
	.sleb128 3
	.byte	0x9f
	.4byte	0
	.4byte	0
.LVUS37:
	.uleb128 .LVU220
	.uleb128 .LVU241
	.uleb128 .LVU241
	.uleb128 .LVU247
	.uleb128 .LVU247
	.uleb128 .LVU256
	.uleb128 .LVU256
	.uleb128 .LVU260
	.uleb128 .LVU263
	.uleb128 .LVU281
	.uleb128 .LVU281
	.uleb128 .LVU283
	.uleb128 .LVU283
	.uleb128 .LVU292
	.uleb128 .LVU292
	.uleb128 .LVU301
	.uleb128 .LVU301
	.uleb128 .LVU305
.LLST37:
	.4byte	.LVL53-.Ltext0
	.4byte	.LVL58-.Ltext0
	.2byte	0x1
	.byte	0x54
	.4byte	.LVL58-.Ltext0
	.4byte	.LVL60-.Ltext0
	.2byte	0x3
	.byte	0x74
	.sleb128 1
	.byte	0x9f
	.4byte	.LVL60-.Ltext0
	.4byte	.LVL63-.Ltext0
	.2byte	0x3
	.byte	0x74
	.sleb128 2
	.byte	0x9f
	.4byte	.LVL63-.Ltext0
	.4byte	.LVL65-.Ltext0
	.2byte	0x3
	.byte	0x74
	.sleb128 3
	.byte	0x9f
	.4byte	.LVL68-.Ltext0
	.4byte	.LVL76-.Ltext0
	.2byte	0x1
	.byte	0x54
	.4byte	.LVL76-.Ltext0
	.4byte	.LVL76-.Ltext0
	.2byte	0x1
	.byte	0x5a
	.4byte	.LVL76-.Ltext0
	.4byte	.LVL79-.Ltext0
	.2byte	0x3
	.byte	0x7a
	.sleb128 1
	.byte	0x9f
	.4byte	.LVL79-.Ltext0
	.4byte	.LVL82-.Ltext0
	.2byte	0x3
	.byte	0x7a
	.sleb128 2
	.byte	0x9f
	.4byte	.LVL82-.Ltext0
	.4byte	.LVL84-.Ltext0
	.2byte	0x3
	.byte	0x7a
	.sleb128 3
	.byte	0x9f
	.4byte	0
	.4byte	0
.LVUS38:
	.uleb128 .LVU222
	.uleb128 .LVU265
	.uleb128 .LVU265
	.uleb128 .LVU266
	.uleb128 .LVU266
	.uleb128 .LVU268
	.uleb128 .LVU268
	.uleb128 .LVU274
	.uleb128 .LVU275
	.uleb128 .LVU277
.LLST38:
	.4byte	.LVL53-.Ltext0
	.4byte	.LVL69-.Ltext0
	.2byte	0x1
	.byte	0x52
	.4byte	.LVL69-.Ltext0
	.4byte	.LVL69-.Ltext0
	.2byte	0x9
	.byte	0x72
	.sleb128 0
	.byte	0x73
	.sleb128 0
	.byte	0x1c
	.byte	0x77
	.sleb128 0
	.byte	0x22
	.byte	0x9f
	.4byte	.LVL69-.Ltext0
	.4byte	.LVL70-.Ltext0
	.2byte	0xb
	.byte	0x72
	.sleb128 0
	.byte	0x73
	.sleb128 0
	.byte	0x1c
	.byte	0x77
	.sleb128 0
	.byte	0x22
	.byte	0x23
	.uleb128 0x4
	.byte	0x9f
	.4byte	.LVL70-.Ltext0
	.4byte	.LVL73-.Ltext0
	.2byte	0x9
	.byte	0x72
	.sleb128 0
	.byte	0x73
	.sleb128 0
	.byte	0x1c
	.byte	0x77
	.sleb128 0
	.byte	0x22
	.byte	0x9f
	.4byte	.LVL74-.Ltext0
	.4byte	.LVL75-.Ltext0
	.2byte	0x1
	.byte	0x52
	.4byte	0
	.4byte	0
.LVUS39:
	.uleb128 .LVU229
	.uleb128 .LVU234
	.uleb128 .LVU234
	.uleb128 .LVU244
	.uleb128 .LVU244
	.uleb128 .LVU253
	.uleb128 .LVU253
	.uleb128 .LVU254
	.uleb128 .LVU254
	.uleb128 .LVU260
.LLST39:
	.4byte	.LVL54-.Ltext0
	.4byte	.LVL57-.Ltext0
	.2byte	0x1
	.byte	0x55
	.4byte	.LVL57-.Ltext0
	.4byte	.LVL59-.Ltext0
	.2byte	0x1
	.byte	0x58
	.4byte	.LVL59-.Ltext0
	.4byte	.LVL62-.Ltext0
	.2byte	0x1
	.byte	0x59
	.4byte	.LVL62-.Ltext0
	.4byte	.LVL63-.Ltext0
	.2byte	0x5
	.byte	0x79
	.sleb128 0
	.byte	0x31
	.byte	0x2e
	.byte	0x9f
	.4byte	.LVL63-.Ltext0
	.4byte	.LVL65-.Ltext0
	.2byte	0x2
	.byte	0x31
	.byte	0x9f
	.4byte	0
	.4byte	0
.LVUS40:
	.uleb128 .LVU232
	.uleb128 .LVU243
	.uleb128 .LVU243
	.uleb128 .LVU250
	.uleb128 .LVU252
	.uleb128 .LVU257
	.uleb128 .LVU259
	.uleb128 .LVU260
.LLST40:
	.4byte	.LVL56-.Ltext0
	.4byte	.LVL59-.Ltext0
	.2byte	0x1
	.byte	0x57
	.4byte	.LVL59-.Ltext0
	.4byte	.LVL61-.Ltext0
	.2byte	0x1
	.byte	0x55
	.4byte	.LVL62-.Ltext0
	.4byte	.LVL64-.Ltext0
	.2byte	0x1
	.byte	0x57
	.4byte	.LVL65-.Ltext0
	.4byte	.LVL65-.Ltext0
	.2byte	0x2
	.byte	0x30
	.byte	0x9f
	.4byte	0
	.4byte	0
.LVUS41:
	.uleb128 .LVU281
	.uleb128 .LVU288
	.uleb128 .LVU288
	.uleb128 .LVU295
.LLST41:
	.4byte	.LVL76-.Ltext0
	.4byte	.LVL78-.Ltext0
	.2byte	0x1
	.byte	0x52
	.4byte	.LVL78-.Ltext0
	.4byte	.LVL80-.Ltext0
	.2byte	0x1
	.byte	0x54
	.4byte	0
	.4byte	0
.LVUS21:
	.uleb128 0
	.uleb128 .LVU162
	.uleb128 .LVU162
	.uleb128 0
.LLST21:
	.4byte	.LVL40-.Ltext0
	.4byte	.LVL41-.Ltext0
	.2byte	0x1
	.byte	0x52
	.4byte	.LVL41-.Ltext0
	.4byte	.LFE7-.Ltext0
	.2byte	0x4
	.byte	0xf3
	.uleb128 0x1
	.byte	0x52
	.byte	0x9f
	.4byte	0
	.4byte	0
.LVUS22:
	.uleb128 0
	.uleb128 .LVU164
	.uleb128 .LVU164
	.uleb128 .LVU166
	.uleb128 .LVU166
	.uleb128 0
.LLST22:
	.4byte	.LVL40-.Ltext0
	.4byte	.LVL43-.Ltext0
	.2byte	0x1
	.byte	0x53
	.4byte	.LVL43-.Ltext0
	.4byte	.LVL44-1-.Ltext0
	.2byte	0x1
	.byte	0x52
	.4byte	.LVL44-1-.Ltext0
	.4byte	.LFE7-.Ltext0
	.2byte	0x4
	.byte	0xf3
	.uleb128 0x1
	.byte	0x53
	.byte	0x9f
	.4byte	0
	.4byte	0
.LVUS23:
	.uleb128 0
	.uleb128 .LVU163
	.uleb128 .LVU163
	.uleb128 0
.LLST23:
	.4byte	.LVL40-.Ltext0
	.4byte	.LVL42-.Ltext0
	.2byte	0x1
	.byte	0x54
	.4byte	.LVL42-.Ltext0
	.4byte	.LFE7-.Ltext0
	.2byte	0x4
	.byte	0xf3
	.uleb128 0x1
	.byte	0x54
	.byte	0x9f
	.4byte	0
	.4byte	0
.LVUS24:
	.uleb128 0
	.uleb128 .LVU166
	.uleb128 .LVU166
	.uleb128 0
.LLST24:
	.4byte	.LVL40-.Ltext0
	.4byte	.LVL44-1-.Ltext0
	.2byte	0x1
	.byte	0x55
	.4byte	.LVL44-1-.Ltext0
	.4byte	.LFE7-.Ltext0
	.2byte	0x4
	.byte	0xf3
	.uleb128 0x1
	.byte	0x55
	.byte	0x9f
	.4byte	0
	.4byte	0
.LVUS19:
	.uleb128 0
	.uleb128 .LVU158
	.uleb128 .LVU158
	.uleb128 0
.LLST19:
	.4byte	.LVL37-.Ltext0
	.4byte	.LVL39-1-.Ltext0
	.2byte	0x1
	.byte	0x52
	.4byte	.LVL39-1-.Ltext0
	.4byte	.LFE6-.Ltext0
	.2byte	0x4
	.byte	0xf3
	.uleb128 0x1
	.byte	0x52
	.byte	0x9f
	.4byte	0
	.4byte	0
.LVUS20:
	.uleb128 0
	.uleb128 .LVU156
	.uleb128 .LVU156
	.uleb128 .LVU158
	.uleb128 .LVU158
	.uleb128 0
.LLST20:
	.4byte	.LVL37-.Ltext0
	.4byte	.LVL38-.Ltext0
	.2byte	0x1
	.byte	0x53
	.4byte	.LVL38-.Ltext0
	.4byte	.LVL39-1-.Ltext0
	.2byte	0x1
	.byte	0x54
	.4byte	.LVL39-1-.Ltext0
	.4byte	.LFE6-.Ltext0
	.2byte	0x4
	.byte	0xf3
	.uleb128 0x1
	.byte	0x53
	.byte	0x9f
	.4byte	0
	.4byte	0
.LVUS13:
	.uleb128 0
	.uleb128 .LVU150
	.uleb128 .LVU150
	.uleb128 0
.LLST13:
	.4byte	.LVL29-.Ltext0
	.4byte	.LVL35-.Ltext0
	.2byte	0x1
	.byte	0x52
	.4byte	.LVL35-.Ltext0
	.4byte	.LFE5-.Ltext0
	.2byte	0x4
	.byte	0xf3
	.uleb128 0x1
	.byte	0x52
	.byte	0x9f
	.4byte	0
	.4byte	0
.LVUS14:
	.uleb128 0
	.uleb128 .LVU147
	.uleb128 .LVU147
	.uleb128 .LVU148
	.uleb128 .LVU148
	.uleb128 .LVU151
	.uleb128 .LVU151
	.uleb128 0
.LLST14:
	.4byte	.LVL29-.Ltext0
	.4byte	.LVL32-.Ltext0
	.2byte	0x1
	.byte	0x53
	.4byte	.LVL32-.Ltext0
	.4byte	.LVL33-.Ltext0
	.2byte	0x4
	.byte	0xf3
	.uleb128 0x1
	.byte	0x53
	.byte	0x9f
	.4byte	.LVL33-.Ltext0
	.4byte	.LVL36-1-.Ltext0
	.2byte	0x1
	.byte	0x53
	.4byte	.LVL36-1-.Ltext0
	.4byte	.LFE5-.Ltext0
	.2byte	0x4
	.byte	0xf3
	.uleb128 0x1
	.byte	0x53
	.byte	0x9f
	.4byte	0
	.4byte	0
.LVUS15:
	.uleb128 0
	.uleb128 .LVU124
	.uleb128 .LVU124
	.uleb128 .LVU148
	.uleb128 .LVU148
	.uleb128 .LVU149
	.uleb128 .LVU149
	.uleb128 .LVU151
	.uleb128 .LVU151
	.uleb128 0
.LLST15:
	.4byte	.LVL29-.Ltext0
	.4byte	.LVL31-.Ltext0
	.2byte	0x1
	.byte	0x54
	.4byte	.LVL31-.Ltext0
	.4byte	.LVL33-.Ltext0
	.2byte	0x1
	.byte	0x57
	.4byte	.LVL33-.Ltext0
	.4byte	.LVL34-.Ltext0
	.2byte	0x1
	.byte	0x54
	.4byte	.LVL34-.Ltext0
	.4byte	.LVL36-1-.Ltext0
	.2byte	0x1
	.byte	0x57
	.4byte	.LVL36-1-.Ltext0
	.4byte	.LFE5-.Ltext0
	.2byte	0x4
	.byte	0xf3
	.uleb128 0x1
	.byte	0x54
	.byte	0x9f
	.4byte	0
	.4byte	0
.LVUS16:
	.uleb128 0
	.uleb128 .LVU151
	.uleb128 .LVU151
	.uleb128 0
.LLST16:
	.4byte	.LVL29-.Ltext0
	.4byte	.LVL36-1-.Ltext0
	.2byte	0x1
	.byte	0x55
	.4byte	.LVL36-1-.Ltext0
	.4byte	.LFE5-.Ltext0
	.2byte	0x4
	.byte	0xf3
	.uleb128 0x1
	.byte	0x55
	.byte	0x9f
	.4byte	0
	.4byte	0
.LVUS17:
	.uleb128 .LVU121
	.uleb128 .LVU148
.LLST17:
	.4byte	.LVL30-.Ltext0
	.4byte	.LVL33-.Ltext0
	.2byte	0x1
	.byte	0x52
	.4byte	0
	.4byte	0
.LVUS18:
	.uleb128 .LVU122
	.uleb128 .LVU147
	.uleb128 .LVU147
	.uleb128 .LVU148
.LLST18:
	.4byte	.LVL30-.Ltext0
	.4byte	.LVL32-.Ltext0
	.2byte	0x1
	.byte	0x53
	.4byte	.LVL32-.Ltext0
	.4byte	.LVL33-.Ltext0
	.2byte	0x4
	.byte	0xf3
	.uleb128 0x1
	.byte	0x53
	.byte	0x9f
	.4byte	0
	.4byte	0
.LVUS1:
	.uleb128 0
	.uleb128 .LVU73
	.uleb128 .LVU73
	.uleb128 0
.LLST1:
	.4byte	.LVL2-.Ltext0
	.4byte	.LVL10-.Ltext0
	.2byte	0x1
	.byte	0x52
	.4byte	.LVL10-.Ltext0
	.4byte	.LFE4-.Ltext0
	.2byte	0x4
	.byte	0xf3
	.uleb128 0x1
	.byte	0x52
	.byte	0x9f
	.4byte	0
	.4byte	0
.LVUS2:
	.uleb128 0
	.uleb128 .LVU18
	.uleb128 .LVU18
	.uleb128 .LVU60
	.uleb128 .LVU60
	.uleb128 .LVU74
	.uleb128 .LVU74
	.uleb128 .LVU89
	.uleb128 .LVU89
	.uleb128 0
.LLST2:
	.4byte	.LVL2-.Ltext0
	.4byte	.LVL5-.Ltext0
	.2byte	0x1
	.byte	0x53
	.4byte	.LVL5-.Ltext0
	.4byte	.LVL7-.Ltext0
	.2byte	0x1
	.byte	0x5c
	.4byte	.LVL7-.Ltext0
	.4byte	.LVL11-.Ltext0
	.2byte	0x1
	.byte	0x53
	.4byte	.LVL11-.Ltext0
	.4byte	.LVL17-.Ltext0
	.2byte	0x1
	.byte	0x5c
	.4byte	.LVL17-.Ltext0
	.4byte	.LFE4-.Ltext0
	.2byte	0x4
	.byte	0xf3
	.uleb128 0x1
	.byte	0x53
	.byte	0x9f
	.4byte	0
	.4byte	0
.LVUS3:
	.uleb128 0
	.uleb128 .LVU19
	.uleb128 .LVU19
	.uleb128 .LVU60
	.uleb128 .LVU60
	.uleb128 .LVU80
	.uleb128 .LVU80
	.uleb128 0
.LLST3:
	.4byte	.LVL2-.Ltext0
	.4byte	.LVL6-.Ltext0
	.2byte	0x1
	.byte	0x54
	.4byte	.LVL6-.Ltext0
	.4byte	.LVL7-.Ltext0
	.2byte	0x4
	.byte	0xf3
	.uleb128 0x1
	.byte	0x54
	.byte	0x9f
	.4byte	.LVL7-.Ltext0
	.4byte	.LVL14-.Ltext0
	.2byte	0x1
	.byte	0x54
	.4byte	.LVL14-.Ltext0
	.4byte	.LFE4-.Ltext0
	.2byte	0x4
	.byte	0xf3
	.uleb128 0x1
	.byte	0x54
	.byte	0x9f
	.4byte	0
	.4byte	0
.LVUS4:
	.uleb128 0
	.uleb128 .LVU17
	.uleb128 .LVU17
	.uleb128 .LVU60
	.uleb128 .LVU60
	.uleb128 .LVU81
	.uleb128 .LVU81
	.uleb128 0
.LLST4:
	.4byte	.LVL2-.Ltext0
	.4byte	.LVL4-.Ltext0
	.2byte	0x1
	.byte	0x55
	.4byte	.LVL4-.Ltext0
	.4byte	.LVL7-.Ltext0
	.2byte	0x4
	.byte	0xf3
	.uleb128 0x1
	.byte	0x55
	.byte	0x9f
	.4byte	.LVL7-.Ltext0
	.4byte	.LVL15-1-.Ltext0
	.2byte	0x1
	.byte	0x55
	.4byte	.LVL15-1-.Ltext0
	.4byte	.LFE4-.Ltext0
	.2byte	0x4
	.byte	0xf3
	.uleb128 0x1
	.byte	0x55
	.byte	0x9f
	.4byte	0
	.4byte	0
.LVUS5:
	.uleb128 .LVU14
	.uleb128 .LVU60
.LLST5:
	.4byte	.LVL3-.Ltext0
	.4byte	.LVL7-.Ltext0
	.2byte	0x1
	.byte	0x52
	.4byte	0
	.4byte	0
.LVUS6:
	.uleb128 .LVU15
	.uleb128 .LVU18
	.uleb128 .LVU18
	.uleb128 .LVU60
.LLST6:
	.4byte	.LVL3-.Ltext0
	.4byte	.LVL5-.Ltext0
	.2byte	0x1
	.byte	0x53
	.4byte	.LVL5-.Ltext0
	.4byte	.LVL7-.Ltext0
	.2byte	0x1
	.byte	0x5c
	.4byte	0
	.4byte	0
.LVUS7:
	.uleb128 .LVU61
	.uleb128 .LVU81
	.uleb128 .LVU81
	.uleb128 .LVU87
	.uleb128 .LVU87
	.uleb128 .LVU92
	.uleb128 .LVU92
	.uleb128 .LVU98
	.uleb128 .LVU98
	.uleb128 .LVU100
	.uleb128 .LVU100
	.uleb128 .LVU101
	.uleb128 .LVU102
	.uleb128 .LVU104
.LLST7:
	.4byte	.LVL7-.Ltext0
	.4byte	.LVL15-1-.Ltext0
	.2byte	0x1
	.byte	0x55
	.4byte	.LVL15-1-.Ltext0
	.4byte	.LVL16-.Ltext0
	.2byte	0x4
	.byte	0xf3
	.uleb128 0x1
	.byte	0x55
	.byte	0x9f
	.4byte	.LVL16-.Ltext0
	.4byte	.LVL20-.Ltext0
	.2byte	0x1
	.byte	0x55
	.4byte	.LVL20-.Ltext0
	.4byte	.LVL22-.Ltext0
	.2byte	0x9
	.byte	0x7d
	.sleb128 0
	.byte	0x75
	.sleb128 0
	.byte	0x22
	.byte	0x74
	.sleb128 0
	.byte	0x1c
	.byte	0x9f
	.4byte	.LVL22-.Ltext0
	.4byte	.LVL23-.Ltext0
	.2byte	0xb
	.byte	0x7d
	.sleb128 0
	.byte	0x74
	.sleb128 0
	.byte	0x1c
	.byte	0x75
	.sleb128 0
	.byte	0x22
	.byte	0x34
	.byte	0x1c
	.byte	0x9f
	.4byte	.LVL23-.Ltext0
	.4byte	.LVL24-.Ltext0
	.2byte	0x9
	.byte	0x7d
	.sleb128 0
	.byte	0x74
	.sleb128 0
	.byte	0x1c
	.byte	0x75
	.sleb128 0
	.byte	0x22
	.byte	0x9f
	.4byte	.LVL25-.Ltext0
	.4byte	.LVL26-.Ltext0
	.2byte	0x1
	.byte	0x55
	.4byte	0
	.4byte	0
.LVUS8:
	.uleb128 .LVU62
	.uleb128 .LVU80
	.uleb128 .LVU80
	.uleb128 .LVU112
.LLST8:
	.4byte	.LVL7-.Ltext0
	.4byte	.LVL14-.Ltext0
	.2byte	0x5
	.byte	0x74
	.sleb128 0
	.byte	0x32
	.byte	0x25
	.byte	0x9f
	.4byte	.LVL14-.Ltext0
	.4byte	.LVL28-.Ltext0
	.2byte	0x6
	.byte	0xf3
	.uleb128 0x1
	.byte	0x54
	.byte	0x32
	.byte	0x25
	.byte	0x9f
	.4byte	0
	.4byte	0
.LVUS9:
	.uleb128 .LVU65
	.uleb128 .LVU81
	.uleb128 .LVU81
	.uleb128 .LVU112
.LLST9:
	.4byte	.LVL8-.Ltext0
	.4byte	.LVL15-1-.Ltext0
	.2byte	0x1
	.byte	0x56
	.4byte	.LVL15-1-.Ltext0
	.4byte	.LVL28-.Ltext0
	.2byte	0x6
	.byte	0xf3
	.uleb128 0x1
	.byte	0x54
	.byte	0x33
	.byte	0x1a
	.byte	0x9f
	.4byte	0
	.4byte	0
.LVUS10:
	.uleb128 .LVU66
	.uleb128 .LVU74
	.uleb128 .LVU74
	.uleb128 .LVU96
	.uleb128 .LVU96
	.uleb128 .LVU99
	.uleb128 .LVU99
	.uleb128 .LVU112
.LLST10:
	.4byte	.LVL8-.Ltext0
	.4byte	.LVL11-.Ltext0
	.2byte	0x1
	.byte	0x53
	.4byte	.LVL11-.Ltext0
	.4byte	.LVL21-.Ltext0
	.2byte	0x1
	.byte	0x5c
	.4byte	.LVL21-.Ltext0
	.4byte	.LVL22-.Ltext0
	.2byte	0x3
	.byte	0x7c
	.sleb128 -4
	.byte	0x9f
	.4byte	.LVL22-.Ltext0
	.4byte	.LVL28-.Ltext0
	.2byte	0x1
	.byte	0x5c
	.4byte	0
	.4byte	0
.LVUS11:
	.uleb128 .LVU67
	.uleb128 .LVU69
	.uleb128 .LVU69
	.uleb128 .LVU82
	.uleb128 .LVU82
	.uleb128 .LVU90
	.uleb128 .LVU90
	.uleb128 .LVU92
	.uleb128 .LVU92
	.uleb128 .LVU94
	.uleb128 .LVU94
	.uleb128 .LVU100
	.uleb128 .LVU100
	.uleb128 .LVU102
	.uleb128 .LVU102
	.uleb128 .LVU104
.LLST11:
	.4byte	.LVL8-.Ltext0
	.4byte	.LVL9-.Ltext0
	.2byte	0x1
	.byte	0x52
	.4byte	.LVL9-.Ltext0
	.4byte	.LVL15-.Ltext0
	.2byte	0x1
	.byte	0x5d
	.4byte	.LVL15-.Ltext0
	.4byte	.LVL18-.Ltext0
	.2byte	0x3
	.byte	0x7d
	.sleb128 4
	.byte	0x9f
	.4byte	.LVL18-.Ltext0
	.4byte	.LVL20-.Ltext0
	.2byte	0x1
	.byte	0x5d
	.4byte	.LVL20-.Ltext0
	.4byte	.LVL20-.Ltext0
	.2byte	0x1
	.byte	0x54
	.4byte	.LVL20-.Ltext0
	.4byte	.LVL23-.Ltext0
	.2byte	0x3
	.byte	0x74
	.sleb128 4
	.byte	0x9f
	.4byte	.LVL23-.Ltext0
	.4byte	.LVL25-.Ltext0
	.2byte	0x1
	.byte	0x54
	.4byte	.LVL25-.Ltext0
	.4byte	.LVL26-.Ltext0
	.2byte	0x1
	.byte	0x5d
	.4byte	0
	.4byte	0
.LVUS12:
	.uleb128 .LVU75
	.uleb128 .LVU79
	.uleb128 .LVU79
	.uleb128 .LVU91
.LLST12:
	.4byte	.LVL12-.Ltext0
	.4byte	.LVL13-.Ltext0
	.2byte	0x1
	.byte	0x52
	.4byte	.LVL13-.Ltext0
	.4byte	.LVL19-.Ltext0
	.2byte	0x1
	.byte	0x5e
	.4byte	0
	.4byte	0
.LVUS0:
	.uleb128 0
	.uleb128 .LVU6
	.uleb128 .LVU6
	.uleb128 0
.LLST0:
	.4byte	.LVL0-.Ltext0
	.4byte	.LVL1-1-.Ltext0
	.2byte	0x1
	.byte	0x52
	.4byte	.LVL1-1-.Ltext0
	.4byte	.LFE3-.Ltext0
	.2byte	0x4
	.byte	0xf3
	.uleb128 0x1
	.byte	0x52
	.byte	0x9f
	.4byte	0
	.4byte	0
	.section	.debug_aranges,"",@progbits
	.4byte	0x1c
	.2byte	0x2
	.4byte	.Ldebug_info0
	.byte	0x4
	.byte	0
	.2byte	0
	.2byte	0
	.4byte	.Ltext0
	.4byte	.Letext0-.Ltext0
	.4byte	0
	.4byte	0
	.section	.debug_line,"",@progbits
.Ldebug_line0:
	.section	.debug_str,"MS",@progbits,1
.LASF40:
	.string	"_dso_handle"
.LASF49:
	.string	"_size"
.LASF152:
	.string	"memcpy"
.LASF96:
	.string	"_rand48"
.LASF61:
	.string	"_emergency"
.LASF158:
	.string	"/storage/projects/embedded-xoodyak"
.LASF147:
	.string	"Xoodoo_plain_OverwriteBytes"
.LASF125:
	.string	"Xoodoo_plain_Permute_12rounds"
.LASF54:
	.string	"_data"
.LASF129:
	.string	"Xoodoo_plain_ExtractAndAddBytes"
.LASF116:
	.string	"_wcrtomb_state"
.LASF117:
	.string	"_wcsrtombs_state"
.LASF155:
	.string	"__builtin_memset"
.LASF6:
	.string	"long long unsigned int"
.LASF53:
	.string	"_lbfsize"
.LASF159:
	.string	"__locale_t"
.LASF157:
	.string	"/storage/projects/XKCP/lib/low/Xoodoo/plain/Xoodoo-plain.c"
.LASF141:
	.string	"lane"
.LASF114:
	.string	"_mbrtowc_state"
.LASF109:
	.string	"_wctomb_state"
.LASF29:
	.string	"__tm_sec"
.LASF5:
	.string	"long long int"
.LASF0:
	.string	"signed char"
.LASF149:
	.string	"Xoodoo_plain_AddBytes"
.LASF140:
	.string	"bytesInLane"
.LASF84:
	.string	"_ubuf"
.LASF48:
	.string	"_base"
.LASF31:
	.string	"__tm_hour"
.LASF75:
	.string	"__sf"
.LASF38:
	.string	"_on_exit_args"
.LASF144:
	.string	"Xoodoo_plain_OverwriteWithZeroes"
.LASF79:
	.string	"_cookie"
.LASF74:
	.string	"__sglue"
.LASF127:
	.string	"state"
.LASF11:
	.string	"long int"
.LASF101:
	.string	"_mprec"
.LASF51:
	.string	"_flags"
.LASF42:
	.string	"_is_cxa"
.LASF57:
	.string	"_stdin"
.LASF131:
	.string	"input"
.LASF86:
	.string	"_blksize"
.LASF9:
	.string	"_lock_t"
.LASF135:
	.string	"sizeLeft"
.LASF68:
	.string	"_cvtbuf"
.LASF87:
	.string	"_offset"
.LASF115:
	.string	"_mbsrtowcs_state"
.LASF156:
	.string	"GNU C17 8.4.0 -g -O3"
.LASF39:
	.string	"_fnargs"
.LASF126:
	.string	"Xoodoo_plain_Permute_6rounds"
.LASF45:
	.string	"_fns"
.LASF151:
	.string	"Xoodoo_plain_Initialize"
.LASF8:
	.string	"__uint32_t"
.LASF25:
	.string	"_sign"
.LASF20:
	.string	"_flock_t"
.LASF59:
	.string	"_stderr"
.LASF27:
	.string	"_Bigint"
.LASF66:
	.string	"_gamma_signgam"
.LASF80:
	.string	"_read"
.LASF103:
	.string	"_result_k"
.LASF28:
	.string	"__tm"
.LASF46:
	.string	"_on_exit_args_ptr"
.LASF4:
	.string	"unsigned int"
.LASF16:
	.string	"__wchb"
.LASF58:
	.string	"_stdout"
.LASF67:
	.string	"_cvtlen"
.LASF21:
	.string	"long unsigned int"
.LASF50:
	.string	"__sFILE_fake"
.LASF146:
	.string	"byteCount"
.LASF94:
	.string	"_niobs"
.LASF143:
	.string	"data"
.LASF3:
	.string	"short unsigned int"
.LASF130:
	.string	"argState"
.LASF73:
	.string	"_atexit0"
.LASF77:
	.string	"_signal_buf"
.LASF71:
	.string	"_asctime_buf"
.LASF102:
	.string	"_result"
.LASF15:
	.string	"__wch"
.LASF14:
	.string	"wint_t"
.LASF150:
	.string	"curData"
.LASF154:
	.string	"__builtin_memcpy"
.LASF88:
	.string	"_lock"
.LASF90:
	.string	"_flags2"
.LASF81:
	.string	"_write"
.LASF34:
	.string	"__tm_year"
.LASF132:
	.string	"output"
.LASF76:
	.string	"_misc"
.LASF7:
	.string	"long double"
.LASF118:
	.string	"__sf_fake_stdin"
.LASF119:
	.string	"__sf_fake_stdout"
.LASF33:
	.string	"__tm_mon"
.LASF43:
	.string	"_atexit"
.LASF123:
	.string	"suboptarg"
.LASF62:
	.string	"__sdidinit"
.LASF12:
	.string	"_off_t"
.LASF113:
	.string	"_mbrlen_state"
.LASF105:
	.string	"_freelist"
.LASF10:
	.string	"_LOCK_RECURSIVE_T"
.LASF139:
	.string	"curOutput"
.LASF1:
	.string	"unsigned char"
.LASF95:
	.string	"_iobs"
.LASF2:
	.string	"short int"
.LASF36:
	.string	"__tm_yday"
.LASF47:
	.string	"__sbuf"
.LASF128:
	.string	"Xoodoo_plain_Permute_Nrounds"
.LASF92:
	.string	"__FILE"
.LASF19:
	.string	"_mbstate_t"
.LASF78:
	.string	"__sFILE"
.LASF89:
	.string	"_mbstate"
.LASF100:
	.string	"_rand_next"
.LASF108:
	.string	"_mblen_state"
.LASF60:
	.string	"_inc"
.LASF44:
	.string	"_ind"
.LASF138:
	.string	"curInput"
.LASF64:
	.string	"_locale"
.LASF65:
	.string	"__cleanup"
.LASF63:
	.string	"_unspecified_locale_info"
.LASF137:
	.string	"offsetInLane"
.LASF24:
	.string	"_maxwds"
.LASF55:
	.string	"_reent"
.LASF97:
	.string	"_seed"
.LASF17:
	.string	"__count"
.LASF18:
	.string	"__value"
.LASF142:
	.string	"Xoodoo_plain_ExtractBytes"
.LASF82:
	.string	"_seek"
.LASF13:
	.string	"_fpos_t"
.LASF124:
	.string	"Xoodoo_plain32_state"
.LASF134:
	.string	"length"
.LASF56:
	.string	"_errno"
.LASF91:
	.string	"char"
.LASF30:
	.string	"__tm_min"
.LASF136:
	.string	"lanePosition"
.LASF98:
	.string	"_mult"
.LASF23:
	.string	"_next"
.LASF107:
	.string	"_strtok_last"
.LASF133:
	.string	"offset"
.LASF145:
	.string	"argstate"
.LASF41:
	.string	"_fntypes"
.LASF106:
	.string	"_misc_reent"
.LASF99:
	.string	"_add"
.LASF22:
	.string	"__ULong"
.LASF112:
	.string	"_getdate_err"
.LASF121:
	.string	"_global_impure_ptr"
.LASF122:
	.string	"uint32_t"
.LASF153:
	.string	"memset"
.LASF52:
	.string	"_file"
.LASF26:
	.string	"_wds"
.LASF35:
	.string	"__tm_wday"
.LASF93:
	.string	"_glue"
.LASF111:
	.string	"_l64a_buf"
.LASF72:
	.string	"_sig_func"
.LASF85:
	.string	"_nbuf"
.LASF37:
	.string	"__tm_isdst"
.LASF70:
	.string	"_localtime_buf"
.LASF83:
	.string	"_close"
.LASF120:
	.string	"__sf_fake_stderr"
.LASF69:
	.string	"_r48"
.LASF110:
	.string	"_mbtowc_state"
.LASF104:
	.string	"_p5s"
.LASF148:
	.string	"argdata"
.LASF32:
	.string	"__tm_mday"
	.ident	"GCC: (crosstool-NG esp-2020r3-49-gd5524c1) 8.4.0"
